
btb_assoc:     file format elf64-littleaarch64


Disassembly of section .init:

00000000000006e8 <_init>:
 6e8:	d503201f 	nop
 6ec:	a9bf7bfd 	stp	x29, x30, [sp, #-16]!
 6f0:	910003fd 	mov	x29, sp
 6f4:	94000040 	bl	7f4 <call_weak_fn>
 6f8:	a8c17bfd 	ldp	x29, x30, [sp], #16
 6fc:	d65f03c0 	ret

Disassembly of section .plt:

0000000000000700 <.plt>:
 700:	a9bf7bf0 	stp	x16, x30, [sp, #-16]!
 704:	f00001f0 	adrp	x16, 3f000 <__FRAME_END__+0x192cc>
 708:	f947fe11 	ldr	x17, [x16, #4088]
 70c:	913fe210 	add	x16, x16, #0xff8
 710:	d61f0220 	br	x17
 714:	d503201f 	nop
 718:	d503201f 	nop
 71c:	d503201f 	nop

0000000000000720 <__libc_start_main@plt>:
 720:	90000210 	adrp	x16, 40000 <__libc_start_main@GLIBC_2.34>
 724:	f9400211 	ldr	x17, [x16]
 728:	91000210 	add	x16, x16, #0x0
 72c:	d61f0220 	br	x17

0000000000000730 <perror@plt>:
 730:	90000210 	adrp	x16, 40000 <__libc_start_main@GLIBC_2.34>
 734:	f9400611 	ldr	x17, [x16, #8]
 738:	91002210 	add	x16, x16, #0x8
 73c:	d61f0220 	br	x17

0000000000000740 <__cxa_finalize@plt>:
 740:	90000210 	adrp	x16, 40000 <__libc_start_main@GLIBC_2.34>
 744:	f9400a11 	ldr	x17, [x16, #16]
 748:	91004210 	add	x16, x16, #0x10
 74c:	d61f0220 	br	x17

0000000000000750 <atoi@plt>:
 750:	90000210 	adrp	x16, 40000 <__libc_start_main@GLIBC_2.34>
 754:	f9400e11 	ldr	x17, [x16, #24]
 758:	91006210 	add	x16, x16, #0x18
 75c:	d61f0220 	br	x17

0000000000000760 <open@plt>:
 760:	90000210 	adrp	x16, 40000 <__libc_start_main@GLIBC_2.34>
 764:	f9401211 	ldr	x17, [x16, #32]
 768:	91008210 	add	x16, x16, #0x20
 76c:	d61f0220 	br	x17

0000000000000770 <__gmon_start__@plt>:
 770:	90000210 	adrp	x16, 40000 <__libc_start_main@GLIBC_2.34>
 774:	f9401611 	ldr	x17, [x16, #40]
 778:	9100a210 	add	x16, x16, #0x28
 77c:	d61f0220 	br	x17

0000000000000780 <write@plt>:
 780:	90000210 	adrp	x16, 40000 <__libc_start_main@GLIBC_2.34>
 784:	f9401a11 	ldr	x17, [x16, #48]
 788:	9100c210 	add	x16, x16, #0x30
 78c:	d61f0220 	br	x17

0000000000000790 <abort@plt>:
 790:	90000210 	adrp	x16, 40000 <__libc_start_main@GLIBC_2.34>
 794:	f9401e11 	ldr	x17, [x16, #56]
 798:	9100e210 	add	x16, x16, #0x38
 79c:	d61f0220 	br	x17

00000000000007a0 <printf@plt>:
 7a0:	90000210 	adrp	x16, 40000 <__libc_start_main@GLIBC_2.34>
 7a4:	f9402211 	ldr	x17, [x16, #64]
 7a8:	91010210 	add	x16, x16, #0x40
 7ac:	d61f0220 	br	x17

Disassembly of section .text:

00000000000007c0 <_start>:
     7c0:	d503201f 	nop
     7c4:	d280001d 	mov	x29, #0x0                   	// #0
     7c8:	d280001e 	mov	x30, #0x0                   	// #0
     7cc:	aa0003e5 	mov	x5, x0
     7d0:	f94003e1 	ldr	x1, [sp]
     7d4:	910023e2 	add	x2, sp, #0x8
     7d8:	910003e6 	mov	x6, sp
     7dc:	f00001e0 	adrp	x0, 3f000 <__FRAME_END__+0x192cc>
     7e0:	f947ec00 	ldr	x0, [x0, #4056]
     7e4:	d2800003 	mov	x3, #0x0                   	// #0
     7e8:	d2800004 	mov	x4, #0x0                   	// #0
     7ec:	97ffffcd 	bl	720 <__libc_start_main@plt>
     7f0:	97ffffe8 	bl	790 <abort@plt>

00000000000007f4 <call_weak_fn>:
     7f4:	f00001e0 	adrp	x0, 3f000 <__FRAME_END__+0x192cc>
     7f8:	f947e800 	ldr	x0, [x0, #4048]
     7fc:	b4000040 	cbz	x0, 804 <call_weak_fn+0x10>
     800:	17ffffdc 	b	770 <__gmon_start__@plt>
     804:	d65f03c0 	ret
     808:	d503201f 	nop
     80c:	d503201f 	nop

0000000000000810 <deregister_tm_clones>:
     810:	90000200 	adrp	x0, 40000 <__libc_start_main@GLIBC_2.34>
     814:	91016000 	add	x0, x0, #0x58
     818:	90000201 	adrp	x1, 40000 <__libc_start_main@GLIBC_2.34>
     81c:	91016021 	add	x1, x1, #0x58
     820:	eb00003f 	cmp	x1, x0
     824:	540000c0 	b.eq	83c <deregister_tm_clones+0x2c>  // b.none
     828:	f00001e1 	adrp	x1, 3f000 <__FRAME_END__+0x192cc>
     82c:	f947e021 	ldr	x1, [x1, #4032]
     830:	b4000061 	cbz	x1, 83c <deregister_tm_clones+0x2c>
     834:	aa0103f0 	mov	x16, x1
     838:	d61f0200 	br	x16
     83c:	d65f03c0 	ret

0000000000000840 <register_tm_clones>:
     840:	90000200 	adrp	x0, 40000 <__libc_start_main@GLIBC_2.34>
     844:	91016000 	add	x0, x0, #0x58
     848:	90000201 	adrp	x1, 40000 <__libc_start_main@GLIBC_2.34>
     84c:	91016021 	add	x1, x1, #0x58
     850:	cb000021 	sub	x1, x1, x0
     854:	d37ffc22 	lsr	x2, x1, #63
     858:	8b810c41 	add	x1, x2, x1, asr #3
     85c:	9341fc21 	asr	x1, x1, #1
     860:	b40000c1 	cbz	x1, 878 <register_tm_clones+0x38>
     864:	f00001e2 	adrp	x2, 3f000 <__FRAME_END__+0x192cc>
     868:	f947f042 	ldr	x2, [x2, #4064]
     86c:	b4000062 	cbz	x2, 878 <register_tm_clones+0x38>
     870:	aa0203f0 	mov	x16, x2
     874:	d61f0200 	br	x16
     878:	d65f03c0 	ret
     87c:	d503201f 	nop

0000000000000880 <__do_global_dtors_aux>:
     880:	a9be7bfd 	stp	x29, x30, [sp, #-32]!
     884:	910003fd 	mov	x29, sp
     888:	f9000bf3 	str	x19, [sp, #16]
     88c:	90000213 	adrp	x19, 40000 <__libc_start_main@GLIBC_2.34>
     890:	39416260 	ldrb	w0, [x19, #88]
     894:	35000140 	cbnz	w0, 8bc <__do_global_dtors_aux+0x3c>
     898:	f00001e0 	adrp	x0, 3f000 <__FRAME_END__+0x192cc>
     89c:	f947e400 	ldr	x0, [x0, #4040]
     8a0:	b4000080 	cbz	x0, 8b0 <__do_global_dtors_aux+0x30>
     8a4:	90000200 	adrp	x0, 40000 <__libc_start_main@GLIBC_2.34>
     8a8:	f9402800 	ldr	x0, [x0, #80]
     8ac:	97ffffa5 	bl	740 <__cxa_finalize@plt>
     8b0:	97ffffd8 	bl	810 <deregister_tm_clones>
     8b4:	52800020 	mov	w0, #0x1                   	// #1
     8b8:	39016260 	strb	w0, [x19, #88]
     8bc:	f9400bf3 	ldr	x19, [sp, #16]
     8c0:	a8c27bfd 	ldp	x29, x30, [sp], #32
     8c4:	d65f03c0 	ret
     8c8:	d503201f 	nop
     8cc:	d503201f 	nop

00000000000008d0 <frame_dummy>:
     8d0:	17ffffdc 	b	840 <register_tm_clones>

00000000000008d4 <num_cycles_to_do_FP_loop>:
     8d4:	d10143ff 	sub	sp, sp, #0x50
     8d8:	6d0423e9 	stp	d9, d8, [sp, #64]
     8dc:	f9001fe0 	str	x0, [sp, #56]
     8e0:	d53af008 	mrs	x8, s3_2_c15_c0_0
     8e4:	f90017e8 	str	x8, [sp, #40]
     8e8:	f94017e8 	ldr	x8, [sp, #40]
     8ec:	f90013e8 	str	x8, [sp, #32]
     8f0:	f94013e8 	ldr	x8, [sp, #32]
     8f4:	f9001be8 	str	x8, [sp, #48]
     8f8:	f9401fe8 	ldr	x8, [sp, #56]
     8fc:	aa0803e0 	mov	x0, x8
     900:	d2e7fe01 	mov	x1, #0x3ff0000000000000    	// #4607182418800017408
     904:	9e670020 	fmov	d0, x1
     908:	d2e80382 	mov	x2, #0x401c000000000000    	// #4619567317775286272
     90c:	9e670041 	fmov	d1, x2
     910:	1e612802 	fadd	d2, d0, d1
     914:	1e612803 	fadd	d3, d0, d1
     918:	1e612804 	fadd	d4, d0, d1
     91c:	1e612805 	fadd	d5, d0, d1
     920:	1e612806 	fadd	d6, d0, d1
     924:	1e612807 	fadd	d7, d0, d1
     928:	1e612808 	fadd	d8, d0, d1
     92c:	1e612809 	fadd	d9, d0, d1
     930:	d1000400 	sub	x0, x0, #0x1
     934:	f100001f 	cmp	x0, #0x0
     938:	54fffec1 	b.ne	910 <num_cycles_to_do_FP_loop+0x3c>  // b.any
     93c:	d5033fdf 	isb
     940:	d53af008 	mrs	x8, s3_2_c15_c0_0
     944:	f9000be8 	str	x8, [sp, #16]
     948:	f9400be8 	ldr	x8, [sp, #16]
     94c:	f90007e8 	str	x8, [sp, #8]
     950:	f94007e8 	ldr	x8, [sp, #8]
     954:	f9000fe8 	str	x8, [sp, #24]
     958:	f9400fe8 	ldr	x8, [sp, #24]
     95c:	f9401be9 	ldr	x9, [sp, #48]
     960:	eb090100 	subs	x0, x8, x9
     964:	6d4423e9 	ldp	d9, d8, [sp, #64]
     968:	910143ff 	add	sp, sp, #0x50
     96c:	d65f03c0 	ret

0000000000000970 <main>:
     970:	d10283ff 	sub	sp, sp, #0xa0
     974:	a9097bfd 	stp	x29, x30, [sp, #144]
     978:	910243fd 	add	x29, sp, #0x90
     97c:	b81fc3bf 	stur	wzr, [x29, #-4]
     980:	b81f83a0 	stur	w0, [x29, #-8]
     984:	f81f03a1 	stur	x1, [x29, #-16]
     988:	b85f83a8 	ldur	w8, [x29, #-8]
     98c:	71000908 	subs	w8, w8, #0x2
     990:	54000100 	b.eq	9b0 <main+0x40>  // b.none
     994:	14000001 	b	998 <main+0x28>
     998:	b0000120 	adrp	x0, 25000 <start+0xb4c4>
     99c:	912e8000 	add	x0, x0, #0xba0
     9a0:	97ffff80 	bl	7a0 <printf@plt>
     9a4:	52800028 	mov	w8, #0x1                   	// #1
     9a8:	b81fc3a8 	stur	w8, [x29, #-4]
     9ac:	14009473 	b	25b78 <end+0x2c>
     9b0:	f85f03a8 	ldur	x8, [x29, #-16]
     9b4:	f9400500 	ldr	x0, [x8, #8]
     9b8:	97ffff66 	bl	750 <atoi@plt>
     9bc:	2a0003e8 	mov	w8, w0
     9c0:	93407d08 	sxtw	x8, w8
     9c4:	f81e83a8 	stur	x8, [x29, #-24]
     9c8:	b0000120 	adrp	x0, 25000 <start+0xb4c4>
     9cc:	912efc00 	add	x0, x0, #0xbbf
     9d0:	52800041 	mov	w1, #0x2                   	// #2
     9d4:	97ffff63 	bl	760 <open@plt>
     9d8:	b81e43a0 	stur	w0, [x29, #-28]
     9dc:	b85e43a8 	ldur	w8, [x29, #-28]
     9e0:	71000108 	subs	w8, w8, #0x0
     9e4:	5400010a 	b.ge	a04 <main+0x94>  // b.tcont
     9e8:	14000001 	b	9ec <main+0x7c>
     9ec:	b0000120 	adrp	x0, 25000 <start+0xb4c4>
     9f0:	912f6800 	add	x0, x0, #0xbda
     9f4:	97ffff4f 	bl	730 <perror@plt>
     9f8:	52800028 	mov	w8, #0x1                   	// #1
     9fc:	b81fc3a8 	stur	w8, [x29, #-4]
     a00:	1400945e 	b	25b78 <end+0x2c>
     a04:	d100a3a1 	sub	x1, x29, #0x28
     a08:	d29e9fe8 	mov	x8, #0xf4ff                	// #62719
     a0c:	f2a8e1e8 	movk	x8, #0x470f, lsl #16
     a10:	f2c60068 	movk	x8, #0x3003, lsl #32
     a14:	f81d83a8 	stur	x8, [x29, #-40]
     a18:	b85e43a0 	ldur	w0, [x29, #-28]
     a1c:	d2800102 	mov	x2, #0x8                   	// #8
     a20:	97ffff58 	bl	780 <write@plt>
     a24:	f1000008 	subs	x8, x0, #0x0
     a28:	5400010a 	b.ge	a48 <main+0xd8>  // b.tcont
     a2c:	14000001 	b	a30 <main+0xc0>
     a30:	b0000120 	adrp	x0, 25000 <start+0xb4c4>
     a34:	912fe800 	add	x0, x0, #0xbfa
     a38:	97ffff3e 	bl	730 <perror@plt>
     a3c:	52800028 	mov	w8, #0x1                   	// #1
     a40:	b81fc3a8 	stur	w8, [x29, #-4]
     a44:	1400944d 	b	25b78 <end+0x2c>
     a48:	d539f108 	mrs	x8, s3_1_c15_c1_0
     a4c:	f81c83a8 	stur	x8, [x29, #-56]
     a50:	f85c83a8 	ldur	x8, [x29, #-56]
     a54:	f81c03a8 	stur	x8, [x29, #-64]
     a58:	f85c03a8 	ldur	x8, [x29, #-64]
     a5c:	f81d03a8 	stur	x8, [x29, #-48]
     a60:	f85d03a8 	ldur	x8, [x29, #-48]
     a64:	b2730108 	orr	x8, x8, #0x2000
     a68:	f81d03a8 	stur	x8, [x29, #-48]
     a6c:	f85d03a8 	ldur	x8, [x29, #-48]
     a70:	d519f108 	msr	s3_1_c15_c1_0, x8
     a74:	d5033fdf 	isb
     a78:	d539f508 	mrs	x8, s3_1_c15_c5_0
     a7c:	f90023e8 	str	x8, [sp, #64]
     a80:	f94023e8 	ldr	x8, [sp, #64]
     a84:	f9001fe8 	str	x8, [sp, #56]
     a88:	f9401fe8 	ldr	x8, [sp, #56]
     a8c:	f90027e8 	str	x8, [sp, #72]
     a90:	f94027e8 	ldr	x8, [sp, #72]
     a94:	f9001be8 	str	x8, [sp, #48]
     a98:	d2801fe8 	mov	x8, #0xff                  	// #255
     a9c:	f90017e8 	str	x8, [sp, #40]
     aa0:	f94017e9 	ldr	x9, [sp, #40]
     aa4:	f90013e9 	str	x9, [sp, #32]
     aa8:	f94013ea 	ldr	x10, [sp, #32]
     aac:	f9401be9 	ldr	x9, [sp, #48]
     ab0:	8a2a6129 	bic	x9, x9, x10, lsl #24
     ab4:	f9001be9 	str	x9, [sp, #48]
     ab8:	f9000fe8 	str	x8, [sp, #24]
     abc:	f9400fe8 	ldr	x8, [sp, #24]
     ac0:	f9000be8 	str	x8, [sp, #16]
     ac4:	f9400be9 	ldr	x9, [sp, #16]
     ac8:	d28018c8 	mov	x8, #0xc6                  	// #198
     acc:	8a090109 	and	x9, x8, x9
     ad0:	f9401be8 	ldr	x8, [sp, #48]
     ad4:	aa096108 	orr	x8, x8, x9, lsl #24
     ad8:	f9001be8 	str	x8, [sp, #48]
     adc:	f9401be8 	ldr	x8, [sp, #48]
     ae0:	f90007e8 	str	x8, [sp, #8]
     ae4:	f94007e8 	ldr	x8, [sp, #8]
     ae8:	f90027e8 	str	x8, [sp, #72]
     aec:	f94027e8 	ldr	x8, [sp, #72]
     af0:	d519f508 	msr	s3_1_c15_c5_0, x8
     af4:	d5033fdf 	isb
     af8:	f90003ff 	str	xzr, [sp]
     afc:	f85e83a8 	ldur	x8, [x29, #-24]
     b00:	d2800021 	mov	x1, #0x1                   	// #1
     b04:	d2800182 	mov	x2, #0xc                   	// #12

0000000000000b08 <s_san>:
     b08:	d5033f9f 	dsb	sy
     b0c:	1000000a 	adr	x10, b0c <s_san+0x4>
     b10:	8b02014a 	add	x10, x10, x2
     b14:	d61f0140 	br	x10
     b18:	d5033f9f 	dsb	sy
     b1c:	8b02014a 	add	x10, x10, x2
     b20:	d61f0140 	br	x10
     b24:	d5033f9f 	dsb	sy
     b28:	8b02014a 	add	x10, x10, x2
     b2c:	d61f0140 	br	x10
     b30:	d5033f9f 	dsb	sy
     b34:	8b02014a 	add	x10, x10, x2
     b38:	d61f0140 	br	x10
     b3c:	d5033f9f 	dsb	sy
     b40:	8b02014a 	add	x10, x10, x2
     b44:	d61f0140 	br	x10
     b48:	d5033f9f 	dsb	sy
     b4c:	8b02014a 	add	x10, x10, x2
     b50:	d61f0140 	br	x10
     b54:	d5033f9f 	dsb	sy
     b58:	8b02014a 	add	x10, x10, x2
     b5c:	d61f0140 	br	x10
     b60:	d5033f9f 	dsb	sy
     b64:	8b02014a 	add	x10, x10, x2
     b68:	d61f0140 	br	x10
     b6c:	d5033f9f 	dsb	sy
     b70:	8b02014a 	add	x10, x10, x2
     b74:	d61f0140 	br	x10
     b78:	d5033f9f 	dsb	sy
     b7c:	8b02014a 	add	x10, x10, x2
     b80:	d61f0140 	br	x10
     b84:	d5033f9f 	dsb	sy
     b88:	8b02014a 	add	x10, x10, x2
     b8c:	d61f0140 	br	x10
     b90:	d5033f9f 	dsb	sy
     b94:	8b02014a 	add	x10, x10, x2
     b98:	d61f0140 	br	x10
     b9c:	d5033f9f 	dsb	sy
     ba0:	8b02014a 	add	x10, x10, x2
     ba4:	d61f0140 	br	x10
     ba8:	d5033f9f 	dsb	sy
     bac:	8b02014a 	add	x10, x10, x2
     bb0:	d61f0140 	br	x10
     bb4:	d5033f9f 	dsb	sy
     bb8:	8b02014a 	add	x10, x10, x2
     bbc:	d61f0140 	br	x10
     bc0:	d5033f9f 	dsb	sy
     bc4:	8b02014a 	add	x10, x10, x2
     bc8:	d61f0140 	br	x10
     bcc:	d5033f9f 	dsb	sy
     bd0:	8b02014a 	add	x10, x10, x2
     bd4:	d61f0140 	br	x10
     bd8:	d5033f9f 	dsb	sy
     bdc:	8b02014a 	add	x10, x10, x2
     be0:	d61f0140 	br	x10
     be4:	d5033f9f 	dsb	sy
     be8:	8b02014a 	add	x10, x10, x2
     bec:	d61f0140 	br	x10
     bf0:	d5033f9f 	dsb	sy
     bf4:	8b02014a 	add	x10, x10, x2
     bf8:	d61f0140 	br	x10
     bfc:	d5033f9f 	dsb	sy
     c00:	8b02014a 	add	x10, x10, x2
     c04:	d61f0140 	br	x10
     c08:	d5033f9f 	dsb	sy
     c0c:	8b02014a 	add	x10, x10, x2
     c10:	d61f0140 	br	x10
     c14:	d5033f9f 	dsb	sy
     c18:	8b02014a 	add	x10, x10, x2
     c1c:	d61f0140 	br	x10
     c20:	d5033f9f 	dsb	sy
     c24:	8b02014a 	add	x10, x10, x2
     c28:	d61f0140 	br	x10
     c2c:	d5033f9f 	dsb	sy
     c30:	8b02014a 	add	x10, x10, x2
     c34:	d61f0140 	br	x10
     c38:	d5033f9f 	dsb	sy
     c3c:	8b02014a 	add	x10, x10, x2
     c40:	d61f0140 	br	x10
     c44:	d5033f9f 	dsb	sy
     c48:	8b02014a 	add	x10, x10, x2
     c4c:	d61f0140 	br	x10
     c50:	d5033f9f 	dsb	sy
     c54:	8b02014a 	add	x10, x10, x2
     c58:	d61f0140 	br	x10
     c5c:	d5033f9f 	dsb	sy
     c60:	8b02014a 	add	x10, x10, x2
     c64:	d61f0140 	br	x10
     c68:	d5033f9f 	dsb	sy
     c6c:	8b02014a 	add	x10, x10, x2
     c70:	d61f0140 	br	x10
     c74:	d5033f9f 	dsb	sy
     c78:	8b02014a 	add	x10, x10, x2
     c7c:	d61f0140 	br	x10
     c80:	d5033f9f 	dsb	sy
     c84:	8b02014a 	add	x10, x10, x2
     c88:	d61f0140 	br	x10
     c8c:	d5033f9f 	dsb	sy
     c90:	8b02014a 	add	x10, x10, x2
     c94:	d61f0140 	br	x10
     c98:	d5033f9f 	dsb	sy
     c9c:	8b02014a 	add	x10, x10, x2
     ca0:	d61f0140 	br	x10
     ca4:	d5033f9f 	dsb	sy
     ca8:	8b02014a 	add	x10, x10, x2
     cac:	d61f0140 	br	x10
     cb0:	d5033f9f 	dsb	sy
     cb4:	8b02014a 	add	x10, x10, x2
     cb8:	d61f0140 	br	x10
     cbc:	d5033f9f 	dsb	sy
     cc0:	8b02014a 	add	x10, x10, x2
     cc4:	d61f0140 	br	x10
     cc8:	d5033f9f 	dsb	sy
     ccc:	8b02014a 	add	x10, x10, x2
     cd0:	d61f0140 	br	x10
     cd4:	d5033f9f 	dsb	sy
     cd8:	8b02014a 	add	x10, x10, x2
     cdc:	d61f0140 	br	x10
     ce0:	d5033f9f 	dsb	sy
     ce4:	8b02014a 	add	x10, x10, x2
     ce8:	d61f0140 	br	x10
     cec:	d5033f9f 	dsb	sy
     cf0:	8b02014a 	add	x10, x10, x2
     cf4:	d61f0140 	br	x10
     cf8:	d5033f9f 	dsb	sy
     cfc:	8b02014a 	add	x10, x10, x2
     d00:	d61f0140 	br	x10
     d04:	d5033f9f 	dsb	sy
     d08:	8b02014a 	add	x10, x10, x2
     d0c:	d61f0140 	br	x10
     d10:	d5033f9f 	dsb	sy
     d14:	8b02014a 	add	x10, x10, x2
     d18:	d61f0140 	br	x10
     d1c:	d5033f9f 	dsb	sy
     d20:	8b02014a 	add	x10, x10, x2
     d24:	d61f0140 	br	x10
     d28:	d5033f9f 	dsb	sy
     d2c:	8b02014a 	add	x10, x10, x2
     d30:	d61f0140 	br	x10
     d34:	d5033f9f 	dsb	sy
     d38:	8b02014a 	add	x10, x10, x2
     d3c:	d61f0140 	br	x10
     d40:	d5033f9f 	dsb	sy
     d44:	8b02014a 	add	x10, x10, x2
     d48:	d61f0140 	br	x10
     d4c:	d5033f9f 	dsb	sy
     d50:	8b02014a 	add	x10, x10, x2
     d54:	d61f0140 	br	x10
     d58:	d5033f9f 	dsb	sy
     d5c:	8b02014a 	add	x10, x10, x2
     d60:	d61f0140 	br	x10
     d64:	d5033f9f 	dsb	sy
     d68:	8b02014a 	add	x10, x10, x2
     d6c:	d61f0140 	br	x10
     d70:	d5033f9f 	dsb	sy
     d74:	8b02014a 	add	x10, x10, x2
     d78:	d61f0140 	br	x10
     d7c:	d5033f9f 	dsb	sy
     d80:	8b02014a 	add	x10, x10, x2
     d84:	d61f0140 	br	x10
     d88:	d5033f9f 	dsb	sy
     d8c:	8b02014a 	add	x10, x10, x2
     d90:	d61f0140 	br	x10
     d94:	d5033f9f 	dsb	sy
     d98:	8b02014a 	add	x10, x10, x2
     d9c:	d61f0140 	br	x10
     da0:	d5033f9f 	dsb	sy
     da4:	8b02014a 	add	x10, x10, x2
     da8:	d61f0140 	br	x10
     dac:	d5033f9f 	dsb	sy
     db0:	8b02014a 	add	x10, x10, x2
     db4:	d61f0140 	br	x10
     db8:	d5033f9f 	dsb	sy
     dbc:	8b02014a 	add	x10, x10, x2
     dc0:	d61f0140 	br	x10
     dc4:	d5033f9f 	dsb	sy
     dc8:	8b02014a 	add	x10, x10, x2
     dcc:	d61f0140 	br	x10
     dd0:	d5033f9f 	dsb	sy
     dd4:	8b02014a 	add	x10, x10, x2
     dd8:	d61f0140 	br	x10
     ddc:	d5033f9f 	dsb	sy
     de0:	8b02014a 	add	x10, x10, x2
     de4:	d61f0140 	br	x10
     de8:	d5033f9f 	dsb	sy
     dec:	8b02014a 	add	x10, x10, x2
     df0:	d61f0140 	br	x10
     df4:	d5033f9f 	dsb	sy
     df8:	8b02014a 	add	x10, x10, x2
     dfc:	d61f0140 	br	x10
     e00:	d5033f9f 	dsb	sy
     e04:	8b02014a 	add	x10, x10, x2
     e08:	d61f0140 	br	x10
     e0c:	d5033f9f 	dsb	sy
     e10:	8b02014a 	add	x10, x10, x2
     e14:	d61f0140 	br	x10
     e18:	d5033f9f 	dsb	sy
     e1c:	8b02014a 	add	x10, x10, x2
     e20:	d61f0140 	br	x10
     e24:	d5033f9f 	dsb	sy
     e28:	8b02014a 	add	x10, x10, x2
     e2c:	d61f0140 	br	x10
     e30:	d5033f9f 	dsb	sy
     e34:	8b02014a 	add	x10, x10, x2
     e38:	d61f0140 	br	x10
     e3c:	d5033f9f 	dsb	sy
     e40:	8b02014a 	add	x10, x10, x2
     e44:	d61f0140 	br	x10
     e48:	d5033f9f 	dsb	sy
     e4c:	8b02014a 	add	x10, x10, x2
     e50:	d61f0140 	br	x10
     e54:	d5033f9f 	dsb	sy
     e58:	8b02014a 	add	x10, x10, x2
     e5c:	d61f0140 	br	x10
     e60:	d5033f9f 	dsb	sy
     e64:	8b02014a 	add	x10, x10, x2
     e68:	d61f0140 	br	x10
     e6c:	d5033f9f 	dsb	sy
     e70:	8b02014a 	add	x10, x10, x2
     e74:	d61f0140 	br	x10
     e78:	d5033f9f 	dsb	sy
     e7c:	8b02014a 	add	x10, x10, x2
     e80:	d61f0140 	br	x10
     e84:	d5033f9f 	dsb	sy
     e88:	8b02014a 	add	x10, x10, x2
     e8c:	d61f0140 	br	x10
     e90:	d5033f9f 	dsb	sy
     e94:	8b02014a 	add	x10, x10, x2
     e98:	d61f0140 	br	x10
     e9c:	d5033f9f 	dsb	sy
     ea0:	8b02014a 	add	x10, x10, x2
     ea4:	d61f0140 	br	x10
     ea8:	d5033f9f 	dsb	sy
     eac:	8b02014a 	add	x10, x10, x2
     eb0:	d61f0140 	br	x10
     eb4:	d5033f9f 	dsb	sy
     eb8:	8b02014a 	add	x10, x10, x2
     ebc:	d61f0140 	br	x10
     ec0:	d5033f9f 	dsb	sy
     ec4:	8b02014a 	add	x10, x10, x2
     ec8:	d61f0140 	br	x10
     ecc:	d5033f9f 	dsb	sy
     ed0:	8b02014a 	add	x10, x10, x2
     ed4:	d61f0140 	br	x10
     ed8:	d5033f9f 	dsb	sy
     edc:	8b02014a 	add	x10, x10, x2
     ee0:	d61f0140 	br	x10
     ee4:	d5033f9f 	dsb	sy
     ee8:	8b02014a 	add	x10, x10, x2
     eec:	d61f0140 	br	x10
     ef0:	d5033f9f 	dsb	sy
     ef4:	8b02014a 	add	x10, x10, x2
     ef8:	d61f0140 	br	x10
     efc:	d5033f9f 	dsb	sy
     f00:	8b02014a 	add	x10, x10, x2
     f04:	d61f0140 	br	x10
     f08:	d5033f9f 	dsb	sy
     f0c:	8b02014a 	add	x10, x10, x2
     f10:	d61f0140 	br	x10
     f14:	d5033f9f 	dsb	sy
     f18:	8b02014a 	add	x10, x10, x2
     f1c:	d61f0140 	br	x10
     f20:	d5033f9f 	dsb	sy
     f24:	8b02014a 	add	x10, x10, x2
     f28:	d61f0140 	br	x10
     f2c:	d5033f9f 	dsb	sy
     f30:	8b02014a 	add	x10, x10, x2
     f34:	d61f0140 	br	x10
     f38:	d5033f9f 	dsb	sy
     f3c:	8b02014a 	add	x10, x10, x2
     f40:	d61f0140 	br	x10
     f44:	d5033f9f 	dsb	sy
     f48:	8b02014a 	add	x10, x10, x2
     f4c:	d61f0140 	br	x10
     f50:	d5033f9f 	dsb	sy
     f54:	8b02014a 	add	x10, x10, x2
     f58:	d61f0140 	br	x10
     f5c:	d5033f9f 	dsb	sy
     f60:	8b02014a 	add	x10, x10, x2
     f64:	d61f0140 	br	x10
     f68:	d5033f9f 	dsb	sy
     f6c:	8b02014a 	add	x10, x10, x2
     f70:	d61f0140 	br	x10
     f74:	d5033f9f 	dsb	sy
     f78:	8b02014a 	add	x10, x10, x2
     f7c:	d61f0140 	br	x10
     f80:	d5033f9f 	dsb	sy
     f84:	8b02014a 	add	x10, x10, x2
     f88:	d61f0140 	br	x10
     f8c:	d5033f9f 	dsb	sy
     f90:	8b02014a 	add	x10, x10, x2
     f94:	d61f0140 	br	x10
     f98:	d5033f9f 	dsb	sy
     f9c:	8b02014a 	add	x10, x10, x2
     fa0:	d61f0140 	br	x10
     fa4:	d5033f9f 	dsb	sy
     fa8:	8b02014a 	add	x10, x10, x2
     fac:	d61f0140 	br	x10
     fb0:	d5033f9f 	dsb	sy
     fb4:	8b02014a 	add	x10, x10, x2
     fb8:	d61f0140 	br	x10
     fbc:	d5033f9f 	dsb	sy
     fc0:	8b02014a 	add	x10, x10, x2
     fc4:	d61f0140 	br	x10
     fc8:	d5033f9f 	dsb	sy
     fcc:	8b02014a 	add	x10, x10, x2
     fd0:	d61f0140 	br	x10
     fd4:	d5033f9f 	dsb	sy
     fd8:	8b02014a 	add	x10, x10, x2
     fdc:	d61f0140 	br	x10
     fe0:	d5033f9f 	dsb	sy
     fe4:	8b02014a 	add	x10, x10, x2
     fe8:	d61f0140 	br	x10
     fec:	d5033f9f 	dsb	sy
     ff0:	8b02014a 	add	x10, x10, x2
     ff4:	d61f0140 	br	x10
     ff8:	d5033f9f 	dsb	sy
     ffc:	8b02014a 	add	x10, x10, x2
    1000:	d61f0140 	br	x10
    1004:	d5033f9f 	dsb	sy
    1008:	8b02014a 	add	x10, x10, x2
    100c:	d61f0140 	br	x10
    1010:	d5033f9f 	dsb	sy
    1014:	8b02014a 	add	x10, x10, x2
    1018:	d61f0140 	br	x10
    101c:	d5033f9f 	dsb	sy
    1020:	8b02014a 	add	x10, x10, x2
    1024:	d61f0140 	br	x10
    1028:	d5033f9f 	dsb	sy
    102c:	8b02014a 	add	x10, x10, x2
    1030:	d61f0140 	br	x10
    1034:	d5033f9f 	dsb	sy
    1038:	8b02014a 	add	x10, x10, x2
    103c:	d61f0140 	br	x10
    1040:	d5033f9f 	dsb	sy
    1044:	8b02014a 	add	x10, x10, x2
    1048:	d61f0140 	br	x10
    104c:	d5033f9f 	dsb	sy
    1050:	8b02014a 	add	x10, x10, x2
    1054:	d61f0140 	br	x10
    1058:	d5033f9f 	dsb	sy
    105c:	8b02014a 	add	x10, x10, x2
    1060:	d61f0140 	br	x10
    1064:	d5033f9f 	dsb	sy
    1068:	8b02014a 	add	x10, x10, x2
    106c:	d61f0140 	br	x10
    1070:	d5033f9f 	dsb	sy
    1074:	8b02014a 	add	x10, x10, x2
    1078:	d61f0140 	br	x10
    107c:	d5033f9f 	dsb	sy
    1080:	8b02014a 	add	x10, x10, x2
    1084:	d61f0140 	br	x10
    1088:	d5033f9f 	dsb	sy
    108c:	8b02014a 	add	x10, x10, x2
    1090:	d61f0140 	br	x10
    1094:	d5033f9f 	dsb	sy
    1098:	8b02014a 	add	x10, x10, x2
    109c:	d61f0140 	br	x10
    10a0:	d5033f9f 	dsb	sy
    10a4:	8b02014a 	add	x10, x10, x2
    10a8:	d61f0140 	br	x10
    10ac:	d5033f9f 	dsb	sy
    10b0:	8b02014a 	add	x10, x10, x2
    10b4:	d61f0140 	br	x10
    10b8:	d5033f9f 	dsb	sy
    10bc:	8b02014a 	add	x10, x10, x2
    10c0:	d61f0140 	br	x10
    10c4:	d5033f9f 	dsb	sy
    10c8:	8b02014a 	add	x10, x10, x2
    10cc:	d61f0140 	br	x10
    10d0:	d5033f9f 	dsb	sy
    10d4:	8b02014a 	add	x10, x10, x2
    10d8:	d61f0140 	br	x10
    10dc:	d5033f9f 	dsb	sy
    10e0:	8b02014a 	add	x10, x10, x2
    10e4:	d61f0140 	br	x10
    10e8:	d5033f9f 	dsb	sy
    10ec:	8b02014a 	add	x10, x10, x2
    10f0:	d61f0140 	br	x10
    10f4:	d5033f9f 	dsb	sy
    10f8:	8b02014a 	add	x10, x10, x2
    10fc:	d61f0140 	br	x10
    1100:	d5033f9f 	dsb	sy
    1104:	8b02014a 	add	x10, x10, x2
    1108:	d61f0140 	br	x10
    110c:	d5033f9f 	dsb	sy
    1110:	8b02014a 	add	x10, x10, x2
    1114:	d61f0140 	br	x10
    1118:	d5033f9f 	dsb	sy
    111c:	8b02014a 	add	x10, x10, x2
    1120:	d61f0140 	br	x10
    1124:	d5033f9f 	dsb	sy
    1128:	8b02014a 	add	x10, x10, x2
    112c:	d61f0140 	br	x10
    1130:	d5033f9f 	dsb	sy
    1134:	8b02014a 	add	x10, x10, x2
    1138:	d61f0140 	br	x10
    113c:	d5033f9f 	dsb	sy
    1140:	8b02014a 	add	x10, x10, x2
    1144:	d61f0140 	br	x10
    1148:	d5033f9f 	dsb	sy
    114c:	8b02014a 	add	x10, x10, x2
    1150:	d61f0140 	br	x10
    1154:	d5033f9f 	dsb	sy
    1158:	8b02014a 	add	x10, x10, x2
    115c:	d61f0140 	br	x10
    1160:	d5033f9f 	dsb	sy
    1164:	8b02014a 	add	x10, x10, x2
    1168:	d61f0140 	br	x10
    116c:	d5033f9f 	dsb	sy
    1170:	8b02014a 	add	x10, x10, x2
    1174:	d61f0140 	br	x10
    1178:	d5033f9f 	dsb	sy
    117c:	8b02014a 	add	x10, x10, x2
    1180:	d61f0140 	br	x10
    1184:	d5033f9f 	dsb	sy
    1188:	8b02014a 	add	x10, x10, x2
    118c:	d61f0140 	br	x10
    1190:	d5033f9f 	dsb	sy
    1194:	8b02014a 	add	x10, x10, x2
    1198:	d61f0140 	br	x10
    119c:	d5033f9f 	dsb	sy
    11a0:	8b02014a 	add	x10, x10, x2
    11a4:	d61f0140 	br	x10
    11a8:	d5033f9f 	dsb	sy
    11ac:	8b02014a 	add	x10, x10, x2
    11b0:	d61f0140 	br	x10
    11b4:	d5033f9f 	dsb	sy
    11b8:	8b02014a 	add	x10, x10, x2
    11bc:	d61f0140 	br	x10
    11c0:	d5033f9f 	dsb	sy
    11c4:	8b02014a 	add	x10, x10, x2
    11c8:	d61f0140 	br	x10
    11cc:	d5033f9f 	dsb	sy
    11d0:	8b02014a 	add	x10, x10, x2
    11d4:	d61f0140 	br	x10
    11d8:	d5033f9f 	dsb	sy
    11dc:	8b02014a 	add	x10, x10, x2
    11e0:	d61f0140 	br	x10
    11e4:	d5033f9f 	dsb	sy
    11e8:	8b02014a 	add	x10, x10, x2
    11ec:	d61f0140 	br	x10
    11f0:	d5033f9f 	dsb	sy
    11f4:	8b02014a 	add	x10, x10, x2
    11f8:	d61f0140 	br	x10
    11fc:	d5033f9f 	dsb	sy
    1200:	8b02014a 	add	x10, x10, x2
    1204:	d61f0140 	br	x10
    1208:	d5033f9f 	dsb	sy
    120c:	8b02014a 	add	x10, x10, x2
    1210:	d61f0140 	br	x10
    1214:	d5033f9f 	dsb	sy
    1218:	8b02014a 	add	x10, x10, x2
    121c:	d61f0140 	br	x10
    1220:	d5033f9f 	dsb	sy
    1224:	8b02014a 	add	x10, x10, x2
    1228:	d61f0140 	br	x10
    122c:	d5033f9f 	dsb	sy
    1230:	8b02014a 	add	x10, x10, x2
    1234:	d61f0140 	br	x10
    1238:	d5033f9f 	dsb	sy
    123c:	8b02014a 	add	x10, x10, x2
    1240:	d61f0140 	br	x10
    1244:	d5033f9f 	dsb	sy
    1248:	8b02014a 	add	x10, x10, x2
    124c:	d61f0140 	br	x10
    1250:	d5033f9f 	dsb	sy
    1254:	8b02014a 	add	x10, x10, x2
    1258:	d61f0140 	br	x10
    125c:	d5033f9f 	dsb	sy
    1260:	8b02014a 	add	x10, x10, x2
    1264:	d61f0140 	br	x10
    1268:	d5033f9f 	dsb	sy
    126c:	8b02014a 	add	x10, x10, x2
    1270:	d61f0140 	br	x10
    1274:	d5033f9f 	dsb	sy
    1278:	8b02014a 	add	x10, x10, x2
    127c:	d61f0140 	br	x10
    1280:	d5033f9f 	dsb	sy
    1284:	8b02014a 	add	x10, x10, x2
    1288:	d61f0140 	br	x10
    128c:	d5033f9f 	dsb	sy
    1290:	8b02014a 	add	x10, x10, x2
    1294:	d61f0140 	br	x10
    1298:	d5033f9f 	dsb	sy
    129c:	8b02014a 	add	x10, x10, x2
    12a0:	d61f0140 	br	x10
    12a4:	d5033f9f 	dsb	sy
    12a8:	8b02014a 	add	x10, x10, x2
    12ac:	d61f0140 	br	x10
    12b0:	d5033f9f 	dsb	sy
    12b4:	8b02014a 	add	x10, x10, x2
    12b8:	d61f0140 	br	x10
    12bc:	d5033f9f 	dsb	sy
    12c0:	8b02014a 	add	x10, x10, x2
    12c4:	d61f0140 	br	x10
    12c8:	d5033f9f 	dsb	sy
    12cc:	8b02014a 	add	x10, x10, x2
    12d0:	d61f0140 	br	x10
    12d4:	d5033f9f 	dsb	sy
    12d8:	8b02014a 	add	x10, x10, x2
    12dc:	d61f0140 	br	x10
    12e0:	d5033f9f 	dsb	sy
    12e4:	8b02014a 	add	x10, x10, x2
    12e8:	d61f0140 	br	x10
    12ec:	d5033f9f 	dsb	sy
    12f0:	8b02014a 	add	x10, x10, x2
    12f4:	d61f0140 	br	x10
    12f8:	d5033f9f 	dsb	sy
    12fc:	8b02014a 	add	x10, x10, x2
    1300:	d61f0140 	br	x10
    1304:	d5033f9f 	dsb	sy
    1308:	8b02014a 	add	x10, x10, x2
    130c:	d61f0140 	br	x10
    1310:	d5033f9f 	dsb	sy
    1314:	8b02014a 	add	x10, x10, x2
    1318:	d61f0140 	br	x10
    131c:	d5033f9f 	dsb	sy
    1320:	8b02014a 	add	x10, x10, x2
    1324:	d61f0140 	br	x10
    1328:	d5033f9f 	dsb	sy
    132c:	8b02014a 	add	x10, x10, x2
    1330:	d61f0140 	br	x10
    1334:	d5033f9f 	dsb	sy
    1338:	8b02014a 	add	x10, x10, x2
    133c:	d61f0140 	br	x10
    1340:	d5033f9f 	dsb	sy
    1344:	8b02014a 	add	x10, x10, x2
    1348:	d61f0140 	br	x10
    134c:	d5033f9f 	dsb	sy
    1350:	8b02014a 	add	x10, x10, x2
    1354:	d61f0140 	br	x10
    1358:	d5033f9f 	dsb	sy
    135c:	8b02014a 	add	x10, x10, x2
    1360:	d61f0140 	br	x10
    1364:	d5033f9f 	dsb	sy
    1368:	8b02014a 	add	x10, x10, x2
    136c:	d61f0140 	br	x10
    1370:	d5033f9f 	dsb	sy
    1374:	8b02014a 	add	x10, x10, x2
    1378:	d61f0140 	br	x10
    137c:	d5033f9f 	dsb	sy
    1380:	8b02014a 	add	x10, x10, x2
    1384:	d61f0140 	br	x10
    1388:	d5033f9f 	dsb	sy
    138c:	8b02014a 	add	x10, x10, x2
    1390:	d61f0140 	br	x10
    1394:	d5033f9f 	dsb	sy
    1398:	8b02014a 	add	x10, x10, x2
    139c:	d61f0140 	br	x10
    13a0:	d5033f9f 	dsb	sy
    13a4:	8b02014a 	add	x10, x10, x2
    13a8:	d61f0140 	br	x10
    13ac:	d5033f9f 	dsb	sy
    13b0:	8b02014a 	add	x10, x10, x2
    13b4:	d61f0140 	br	x10
    13b8:	d5033f9f 	dsb	sy
    13bc:	8b02014a 	add	x10, x10, x2
    13c0:	d61f0140 	br	x10
    13c4:	d5033f9f 	dsb	sy
    13c8:	8b02014a 	add	x10, x10, x2
    13cc:	d61f0140 	br	x10
    13d0:	d5033f9f 	dsb	sy
    13d4:	8b02014a 	add	x10, x10, x2
    13d8:	d61f0140 	br	x10
    13dc:	d5033f9f 	dsb	sy
    13e0:	8b02014a 	add	x10, x10, x2
    13e4:	d61f0140 	br	x10
    13e8:	d5033f9f 	dsb	sy
    13ec:	8b02014a 	add	x10, x10, x2
    13f0:	d61f0140 	br	x10
    13f4:	d5033f9f 	dsb	sy
    13f8:	8b02014a 	add	x10, x10, x2
    13fc:	d61f0140 	br	x10
    1400:	d5033f9f 	dsb	sy
    1404:	8b02014a 	add	x10, x10, x2
    1408:	d61f0140 	br	x10
    140c:	d5033f9f 	dsb	sy
    1410:	8b02014a 	add	x10, x10, x2
    1414:	d61f0140 	br	x10
    1418:	d5033f9f 	dsb	sy
    141c:	8b02014a 	add	x10, x10, x2
    1420:	d61f0140 	br	x10
    1424:	d5033f9f 	dsb	sy
    1428:	8b02014a 	add	x10, x10, x2
    142c:	d61f0140 	br	x10
    1430:	d5033f9f 	dsb	sy
    1434:	8b02014a 	add	x10, x10, x2
    1438:	d61f0140 	br	x10
    143c:	d5033f9f 	dsb	sy
    1440:	8b02014a 	add	x10, x10, x2
    1444:	d61f0140 	br	x10
    1448:	d5033f9f 	dsb	sy
    144c:	8b02014a 	add	x10, x10, x2
    1450:	d61f0140 	br	x10
    1454:	d5033f9f 	dsb	sy
    1458:	8b02014a 	add	x10, x10, x2
    145c:	d61f0140 	br	x10
    1460:	d5033f9f 	dsb	sy
    1464:	8b02014a 	add	x10, x10, x2
    1468:	d61f0140 	br	x10
    146c:	d5033f9f 	dsb	sy
    1470:	8b02014a 	add	x10, x10, x2
    1474:	d61f0140 	br	x10
    1478:	d5033f9f 	dsb	sy
    147c:	8b02014a 	add	x10, x10, x2
    1480:	d61f0140 	br	x10
    1484:	d5033f9f 	dsb	sy
    1488:	8b02014a 	add	x10, x10, x2
    148c:	d61f0140 	br	x10
    1490:	d5033f9f 	dsb	sy
    1494:	8b02014a 	add	x10, x10, x2
    1498:	d61f0140 	br	x10
    149c:	d5033f9f 	dsb	sy
    14a0:	8b02014a 	add	x10, x10, x2
    14a4:	d61f0140 	br	x10
    14a8:	d5033f9f 	dsb	sy
    14ac:	8b02014a 	add	x10, x10, x2
    14b0:	d61f0140 	br	x10
    14b4:	d5033f9f 	dsb	sy
    14b8:	8b02014a 	add	x10, x10, x2
    14bc:	d61f0140 	br	x10
    14c0:	d5033f9f 	dsb	sy
    14c4:	8b02014a 	add	x10, x10, x2
    14c8:	d61f0140 	br	x10
    14cc:	d5033f9f 	dsb	sy
    14d0:	8b02014a 	add	x10, x10, x2
    14d4:	d61f0140 	br	x10
    14d8:	d5033f9f 	dsb	sy
    14dc:	8b02014a 	add	x10, x10, x2
    14e0:	d61f0140 	br	x10
    14e4:	d5033f9f 	dsb	sy
    14e8:	8b02014a 	add	x10, x10, x2
    14ec:	d61f0140 	br	x10
    14f0:	d5033f9f 	dsb	sy
    14f4:	8b02014a 	add	x10, x10, x2
    14f8:	d61f0140 	br	x10
    14fc:	d5033f9f 	dsb	sy
    1500:	8b02014a 	add	x10, x10, x2
    1504:	d61f0140 	br	x10
    1508:	d5033f9f 	dsb	sy
    150c:	8b02014a 	add	x10, x10, x2
    1510:	d61f0140 	br	x10
    1514:	d5033f9f 	dsb	sy
    1518:	8b02014a 	add	x10, x10, x2
    151c:	d61f0140 	br	x10
    1520:	d5033f9f 	dsb	sy
    1524:	8b02014a 	add	x10, x10, x2
    1528:	d61f0140 	br	x10
    152c:	d5033f9f 	dsb	sy
    1530:	8b02014a 	add	x10, x10, x2
    1534:	d61f0140 	br	x10
    1538:	d5033f9f 	dsb	sy
    153c:	8b02014a 	add	x10, x10, x2
    1540:	d61f0140 	br	x10
    1544:	d5033f9f 	dsb	sy
    1548:	8b02014a 	add	x10, x10, x2
    154c:	d61f0140 	br	x10
    1550:	d5033f9f 	dsb	sy
    1554:	8b02014a 	add	x10, x10, x2
    1558:	d61f0140 	br	x10
    155c:	d5033f9f 	dsb	sy
    1560:	8b02014a 	add	x10, x10, x2
    1564:	d61f0140 	br	x10
    1568:	d5033f9f 	dsb	sy
    156c:	8b02014a 	add	x10, x10, x2
    1570:	d61f0140 	br	x10
    1574:	d5033f9f 	dsb	sy
    1578:	8b02014a 	add	x10, x10, x2
    157c:	d61f0140 	br	x10
    1580:	d5033f9f 	dsb	sy
    1584:	8b02014a 	add	x10, x10, x2
    1588:	d61f0140 	br	x10
    158c:	d5033f9f 	dsb	sy
    1590:	8b02014a 	add	x10, x10, x2
    1594:	d61f0140 	br	x10
    1598:	d5033f9f 	dsb	sy
    159c:	8b02014a 	add	x10, x10, x2
    15a0:	d61f0140 	br	x10
    15a4:	d5033f9f 	dsb	sy
    15a8:	8b02014a 	add	x10, x10, x2
    15ac:	d61f0140 	br	x10
    15b0:	d5033f9f 	dsb	sy
    15b4:	8b02014a 	add	x10, x10, x2
    15b8:	d61f0140 	br	x10
    15bc:	d5033f9f 	dsb	sy
    15c0:	8b02014a 	add	x10, x10, x2
    15c4:	d61f0140 	br	x10
    15c8:	d5033f9f 	dsb	sy
    15cc:	8b02014a 	add	x10, x10, x2
    15d0:	d61f0140 	br	x10
    15d4:	d5033f9f 	dsb	sy
    15d8:	8b02014a 	add	x10, x10, x2
    15dc:	d61f0140 	br	x10
    15e0:	d5033f9f 	dsb	sy
    15e4:	8b02014a 	add	x10, x10, x2
    15e8:	d61f0140 	br	x10
    15ec:	d5033f9f 	dsb	sy
    15f0:	8b02014a 	add	x10, x10, x2
    15f4:	d61f0140 	br	x10
    15f8:	d5033f9f 	dsb	sy
    15fc:	8b02014a 	add	x10, x10, x2
    1600:	d61f0140 	br	x10
    1604:	d5033f9f 	dsb	sy
    1608:	8b02014a 	add	x10, x10, x2
    160c:	d61f0140 	br	x10
    1610:	d5033f9f 	dsb	sy
    1614:	8b02014a 	add	x10, x10, x2
    1618:	d61f0140 	br	x10
    161c:	d5033f9f 	dsb	sy
    1620:	8b02014a 	add	x10, x10, x2
    1624:	d61f0140 	br	x10
    1628:	d5033f9f 	dsb	sy
    162c:	8b02014a 	add	x10, x10, x2
    1630:	d61f0140 	br	x10
    1634:	d5033f9f 	dsb	sy
    1638:	8b02014a 	add	x10, x10, x2
    163c:	d61f0140 	br	x10
    1640:	d5033f9f 	dsb	sy
    1644:	8b02014a 	add	x10, x10, x2
    1648:	d61f0140 	br	x10
    164c:	d5033f9f 	dsb	sy
    1650:	8b02014a 	add	x10, x10, x2
    1654:	d61f0140 	br	x10
    1658:	d5033f9f 	dsb	sy
    165c:	8b02014a 	add	x10, x10, x2
    1660:	d61f0140 	br	x10
    1664:	d5033f9f 	dsb	sy
    1668:	8b02014a 	add	x10, x10, x2
    166c:	d61f0140 	br	x10
    1670:	d5033f9f 	dsb	sy
    1674:	8b02014a 	add	x10, x10, x2
    1678:	d61f0140 	br	x10
    167c:	d5033f9f 	dsb	sy
    1680:	8b02014a 	add	x10, x10, x2
    1684:	d61f0140 	br	x10
    1688:	d5033f9f 	dsb	sy
    168c:	8b02014a 	add	x10, x10, x2
    1690:	d61f0140 	br	x10
    1694:	d5033f9f 	dsb	sy
    1698:	8b02014a 	add	x10, x10, x2
    169c:	d61f0140 	br	x10
    16a0:	d5033f9f 	dsb	sy
    16a4:	8b02014a 	add	x10, x10, x2
    16a8:	d61f0140 	br	x10
    16ac:	d5033f9f 	dsb	sy
    16b0:	8b02014a 	add	x10, x10, x2
    16b4:	d61f0140 	br	x10
    16b8:	d5033f9f 	dsb	sy
    16bc:	8b02014a 	add	x10, x10, x2
    16c0:	d61f0140 	br	x10
    16c4:	d5033f9f 	dsb	sy
    16c8:	8b02014a 	add	x10, x10, x2
    16cc:	d61f0140 	br	x10
    16d0:	d5033f9f 	dsb	sy
    16d4:	8b02014a 	add	x10, x10, x2
    16d8:	d61f0140 	br	x10
    16dc:	d5033f9f 	dsb	sy
    16e0:	8b02014a 	add	x10, x10, x2
    16e4:	d61f0140 	br	x10
    16e8:	d5033f9f 	dsb	sy
    16ec:	8b02014a 	add	x10, x10, x2
    16f0:	d61f0140 	br	x10
    16f4:	d5033f9f 	dsb	sy
    16f8:	8b02014a 	add	x10, x10, x2
    16fc:	d61f0140 	br	x10
    1700:	d5033f9f 	dsb	sy
    1704:	8b02014a 	add	x10, x10, x2
    1708:	d61f0140 	br	x10
    170c:	d5033f9f 	dsb	sy
    1710:	8b02014a 	add	x10, x10, x2
    1714:	d61f0140 	br	x10
    1718:	d5033f9f 	dsb	sy
    171c:	8b02014a 	add	x10, x10, x2
    1720:	d61f0140 	br	x10
    1724:	d5033f9f 	dsb	sy
    1728:	8b02014a 	add	x10, x10, x2
    172c:	d61f0140 	br	x10
    1730:	d5033f9f 	dsb	sy
    1734:	8b02014a 	add	x10, x10, x2
    1738:	d61f0140 	br	x10
    173c:	d5033f9f 	dsb	sy
    1740:	8b02014a 	add	x10, x10, x2
    1744:	d61f0140 	br	x10
    1748:	d5033f9f 	dsb	sy
    174c:	8b02014a 	add	x10, x10, x2
    1750:	d61f0140 	br	x10
    1754:	d5033f9f 	dsb	sy
    1758:	8b02014a 	add	x10, x10, x2
    175c:	d61f0140 	br	x10
    1760:	d5033f9f 	dsb	sy
    1764:	8b02014a 	add	x10, x10, x2
    1768:	d61f0140 	br	x10
    176c:	d5033f9f 	dsb	sy
    1770:	8b02014a 	add	x10, x10, x2
    1774:	d61f0140 	br	x10
    1778:	d5033f9f 	dsb	sy
    177c:	8b02014a 	add	x10, x10, x2
    1780:	d61f0140 	br	x10
    1784:	d5033f9f 	dsb	sy
    1788:	8b02014a 	add	x10, x10, x2
    178c:	d61f0140 	br	x10
    1790:	d5033f9f 	dsb	sy
    1794:	8b02014a 	add	x10, x10, x2
    1798:	d61f0140 	br	x10
    179c:	d5033f9f 	dsb	sy
    17a0:	8b02014a 	add	x10, x10, x2
    17a4:	d61f0140 	br	x10
    17a8:	d5033f9f 	dsb	sy
    17ac:	8b02014a 	add	x10, x10, x2
    17b0:	d61f0140 	br	x10
    17b4:	d5033f9f 	dsb	sy
    17b8:	8b02014a 	add	x10, x10, x2
    17bc:	d61f0140 	br	x10
    17c0:	d5033f9f 	dsb	sy
    17c4:	8b02014a 	add	x10, x10, x2
    17c8:	d61f0140 	br	x10
    17cc:	d5033f9f 	dsb	sy
    17d0:	8b02014a 	add	x10, x10, x2
    17d4:	d61f0140 	br	x10
    17d8:	d5033f9f 	dsb	sy
    17dc:	8b02014a 	add	x10, x10, x2
    17e0:	d61f0140 	br	x10
    17e4:	d5033f9f 	dsb	sy
    17e8:	8b02014a 	add	x10, x10, x2
    17ec:	d61f0140 	br	x10
    17f0:	d5033f9f 	dsb	sy
    17f4:	8b02014a 	add	x10, x10, x2
    17f8:	d61f0140 	br	x10
    17fc:	d5033f9f 	dsb	sy
    1800:	8b02014a 	add	x10, x10, x2
    1804:	d61f0140 	br	x10
    1808:	d5033f9f 	dsb	sy
    180c:	8b02014a 	add	x10, x10, x2
    1810:	d61f0140 	br	x10
    1814:	d5033f9f 	dsb	sy
    1818:	8b02014a 	add	x10, x10, x2
    181c:	d61f0140 	br	x10
    1820:	d5033f9f 	dsb	sy
    1824:	8b02014a 	add	x10, x10, x2
    1828:	d61f0140 	br	x10
    182c:	d5033f9f 	dsb	sy
    1830:	8b02014a 	add	x10, x10, x2
    1834:	d61f0140 	br	x10
    1838:	d5033f9f 	dsb	sy
    183c:	8b02014a 	add	x10, x10, x2
    1840:	d61f0140 	br	x10
    1844:	d5033f9f 	dsb	sy
    1848:	8b02014a 	add	x10, x10, x2
    184c:	d61f0140 	br	x10
    1850:	d5033f9f 	dsb	sy
    1854:	8b02014a 	add	x10, x10, x2
    1858:	d61f0140 	br	x10
    185c:	d5033f9f 	dsb	sy
    1860:	8b02014a 	add	x10, x10, x2
    1864:	d61f0140 	br	x10
    1868:	d5033f9f 	dsb	sy
    186c:	8b02014a 	add	x10, x10, x2
    1870:	d61f0140 	br	x10
    1874:	d5033f9f 	dsb	sy
    1878:	8b02014a 	add	x10, x10, x2
    187c:	d61f0140 	br	x10
    1880:	d5033f9f 	dsb	sy
    1884:	8b02014a 	add	x10, x10, x2
    1888:	d61f0140 	br	x10
    188c:	d5033f9f 	dsb	sy
    1890:	8b02014a 	add	x10, x10, x2
    1894:	d61f0140 	br	x10
    1898:	d5033f9f 	dsb	sy
    189c:	8b02014a 	add	x10, x10, x2
    18a0:	d61f0140 	br	x10
    18a4:	d5033f9f 	dsb	sy
    18a8:	8b02014a 	add	x10, x10, x2
    18ac:	d61f0140 	br	x10
    18b0:	d5033f9f 	dsb	sy
    18b4:	8b02014a 	add	x10, x10, x2
    18b8:	d61f0140 	br	x10
    18bc:	d5033f9f 	dsb	sy
    18c0:	8b02014a 	add	x10, x10, x2
    18c4:	d61f0140 	br	x10
    18c8:	d5033f9f 	dsb	sy
    18cc:	8b02014a 	add	x10, x10, x2
    18d0:	d61f0140 	br	x10
    18d4:	d5033f9f 	dsb	sy
    18d8:	8b02014a 	add	x10, x10, x2
    18dc:	d61f0140 	br	x10
    18e0:	d5033f9f 	dsb	sy
    18e4:	8b02014a 	add	x10, x10, x2
    18e8:	d61f0140 	br	x10
    18ec:	d5033f9f 	dsb	sy
    18f0:	8b02014a 	add	x10, x10, x2
    18f4:	d61f0140 	br	x10
    18f8:	d5033f9f 	dsb	sy
    18fc:	8b02014a 	add	x10, x10, x2
    1900:	d61f0140 	br	x10
    1904:	d5033f9f 	dsb	sy
    1908:	8b02014a 	add	x10, x10, x2
    190c:	d61f0140 	br	x10
    1910:	d5033f9f 	dsb	sy
    1914:	8b02014a 	add	x10, x10, x2
    1918:	d61f0140 	br	x10
    191c:	d5033f9f 	dsb	sy
    1920:	8b02014a 	add	x10, x10, x2
    1924:	d61f0140 	br	x10
    1928:	d5033f9f 	dsb	sy
    192c:	8b02014a 	add	x10, x10, x2
    1930:	d61f0140 	br	x10
    1934:	d5033f9f 	dsb	sy
    1938:	8b02014a 	add	x10, x10, x2
    193c:	d61f0140 	br	x10
    1940:	d5033f9f 	dsb	sy
    1944:	8b02014a 	add	x10, x10, x2
    1948:	d61f0140 	br	x10
    194c:	d5033f9f 	dsb	sy
    1950:	8b02014a 	add	x10, x10, x2
    1954:	d61f0140 	br	x10
    1958:	d5033f9f 	dsb	sy
    195c:	8b02014a 	add	x10, x10, x2
    1960:	d61f0140 	br	x10
    1964:	d5033f9f 	dsb	sy
    1968:	8b02014a 	add	x10, x10, x2
    196c:	d61f0140 	br	x10
    1970:	d5033f9f 	dsb	sy
    1974:	8b02014a 	add	x10, x10, x2
    1978:	d61f0140 	br	x10
    197c:	d5033f9f 	dsb	sy
    1980:	8b02014a 	add	x10, x10, x2
    1984:	d61f0140 	br	x10
    1988:	d5033f9f 	dsb	sy
    198c:	8b02014a 	add	x10, x10, x2
    1990:	d61f0140 	br	x10
    1994:	d5033f9f 	dsb	sy
    1998:	8b02014a 	add	x10, x10, x2
    199c:	d61f0140 	br	x10
    19a0:	d5033f9f 	dsb	sy
    19a4:	8b02014a 	add	x10, x10, x2
    19a8:	d61f0140 	br	x10
    19ac:	d5033f9f 	dsb	sy
    19b0:	8b02014a 	add	x10, x10, x2
    19b4:	d61f0140 	br	x10
    19b8:	d5033f9f 	dsb	sy
    19bc:	8b02014a 	add	x10, x10, x2
    19c0:	d61f0140 	br	x10
    19c4:	d5033f9f 	dsb	sy
    19c8:	8b02014a 	add	x10, x10, x2
    19cc:	d61f0140 	br	x10
    19d0:	d5033f9f 	dsb	sy
    19d4:	8b02014a 	add	x10, x10, x2
    19d8:	d61f0140 	br	x10
    19dc:	d5033f9f 	dsb	sy
    19e0:	8b02014a 	add	x10, x10, x2
    19e4:	d61f0140 	br	x10
    19e8:	d5033f9f 	dsb	sy
    19ec:	8b02014a 	add	x10, x10, x2
    19f0:	d61f0140 	br	x10
    19f4:	d5033f9f 	dsb	sy
    19f8:	8b02014a 	add	x10, x10, x2
    19fc:	d61f0140 	br	x10
    1a00:	d5033f9f 	dsb	sy
    1a04:	8b02014a 	add	x10, x10, x2
    1a08:	d61f0140 	br	x10
    1a0c:	d5033f9f 	dsb	sy
    1a10:	8b02014a 	add	x10, x10, x2
    1a14:	d61f0140 	br	x10
    1a18:	d5033f9f 	dsb	sy
    1a1c:	8b02014a 	add	x10, x10, x2
    1a20:	d61f0140 	br	x10
    1a24:	d5033f9f 	dsb	sy
    1a28:	8b02014a 	add	x10, x10, x2
    1a2c:	d61f0140 	br	x10
    1a30:	d5033f9f 	dsb	sy
    1a34:	8b02014a 	add	x10, x10, x2
    1a38:	d61f0140 	br	x10
    1a3c:	d5033f9f 	dsb	sy
    1a40:	8b02014a 	add	x10, x10, x2
    1a44:	d61f0140 	br	x10
    1a48:	d5033f9f 	dsb	sy
    1a4c:	8b02014a 	add	x10, x10, x2
    1a50:	d61f0140 	br	x10
    1a54:	d5033f9f 	dsb	sy
    1a58:	8b02014a 	add	x10, x10, x2
    1a5c:	d61f0140 	br	x10
    1a60:	d5033f9f 	dsb	sy
    1a64:	8b02014a 	add	x10, x10, x2
    1a68:	d61f0140 	br	x10
    1a6c:	d5033f9f 	dsb	sy
    1a70:	8b02014a 	add	x10, x10, x2
    1a74:	d61f0140 	br	x10
    1a78:	d5033f9f 	dsb	sy
    1a7c:	8b02014a 	add	x10, x10, x2
    1a80:	d61f0140 	br	x10
    1a84:	d5033f9f 	dsb	sy
    1a88:	8b02014a 	add	x10, x10, x2
    1a8c:	d61f0140 	br	x10
    1a90:	d5033f9f 	dsb	sy
    1a94:	8b02014a 	add	x10, x10, x2
    1a98:	d61f0140 	br	x10
    1a9c:	d5033f9f 	dsb	sy
    1aa0:	8b02014a 	add	x10, x10, x2
    1aa4:	d61f0140 	br	x10
    1aa8:	d5033f9f 	dsb	sy
    1aac:	8b02014a 	add	x10, x10, x2
    1ab0:	d61f0140 	br	x10
    1ab4:	d5033f9f 	dsb	sy
    1ab8:	8b02014a 	add	x10, x10, x2
    1abc:	d61f0140 	br	x10
    1ac0:	d5033f9f 	dsb	sy
    1ac4:	8b02014a 	add	x10, x10, x2
    1ac8:	d61f0140 	br	x10
    1acc:	d5033f9f 	dsb	sy
    1ad0:	8b02014a 	add	x10, x10, x2
    1ad4:	d61f0140 	br	x10
    1ad8:	d5033f9f 	dsb	sy
    1adc:	8b02014a 	add	x10, x10, x2
    1ae0:	d61f0140 	br	x10
    1ae4:	d5033f9f 	dsb	sy
    1ae8:	8b02014a 	add	x10, x10, x2
    1aec:	d61f0140 	br	x10
    1af0:	d5033f9f 	dsb	sy
    1af4:	8b02014a 	add	x10, x10, x2
    1af8:	d61f0140 	br	x10
    1afc:	d5033f9f 	dsb	sy
    1b00:	8b02014a 	add	x10, x10, x2
    1b04:	d61f0140 	br	x10
    1b08:	d5033f9f 	dsb	sy
    1b0c:	8b02014a 	add	x10, x10, x2
    1b10:	d61f0140 	br	x10
    1b14:	d5033f9f 	dsb	sy
    1b18:	8b02014a 	add	x10, x10, x2
    1b1c:	d61f0140 	br	x10
    1b20:	d5033f9f 	dsb	sy
    1b24:	8b02014a 	add	x10, x10, x2
    1b28:	d61f0140 	br	x10
    1b2c:	d5033f9f 	dsb	sy
    1b30:	8b02014a 	add	x10, x10, x2
    1b34:	d61f0140 	br	x10
    1b38:	d5033f9f 	dsb	sy
    1b3c:	8b02014a 	add	x10, x10, x2
    1b40:	d61f0140 	br	x10
    1b44:	d5033f9f 	dsb	sy
    1b48:	8b02014a 	add	x10, x10, x2
    1b4c:	d61f0140 	br	x10
    1b50:	d5033f9f 	dsb	sy
    1b54:	8b02014a 	add	x10, x10, x2
    1b58:	d61f0140 	br	x10
    1b5c:	d5033f9f 	dsb	sy
    1b60:	8b02014a 	add	x10, x10, x2
    1b64:	d61f0140 	br	x10
    1b68:	d5033f9f 	dsb	sy
    1b6c:	8b02014a 	add	x10, x10, x2
    1b70:	d61f0140 	br	x10
    1b74:	d5033f9f 	dsb	sy
    1b78:	8b02014a 	add	x10, x10, x2
    1b7c:	d61f0140 	br	x10
    1b80:	d5033f9f 	dsb	sy
    1b84:	8b02014a 	add	x10, x10, x2
    1b88:	d61f0140 	br	x10
    1b8c:	d5033f9f 	dsb	sy
    1b90:	8b02014a 	add	x10, x10, x2
    1b94:	d61f0140 	br	x10
    1b98:	d5033f9f 	dsb	sy
    1b9c:	8b02014a 	add	x10, x10, x2
    1ba0:	d61f0140 	br	x10
    1ba4:	d5033f9f 	dsb	sy
    1ba8:	8b02014a 	add	x10, x10, x2
    1bac:	d61f0140 	br	x10
    1bb0:	d5033f9f 	dsb	sy
    1bb4:	8b02014a 	add	x10, x10, x2
    1bb8:	d61f0140 	br	x10
    1bbc:	d5033f9f 	dsb	sy
    1bc0:	8b02014a 	add	x10, x10, x2
    1bc4:	d61f0140 	br	x10
    1bc8:	d5033f9f 	dsb	sy
    1bcc:	8b02014a 	add	x10, x10, x2
    1bd0:	d61f0140 	br	x10
    1bd4:	d5033f9f 	dsb	sy
    1bd8:	8b02014a 	add	x10, x10, x2
    1bdc:	d61f0140 	br	x10
    1be0:	d5033f9f 	dsb	sy
    1be4:	8b02014a 	add	x10, x10, x2
    1be8:	d61f0140 	br	x10
    1bec:	d5033f9f 	dsb	sy
    1bf0:	8b02014a 	add	x10, x10, x2
    1bf4:	d61f0140 	br	x10
    1bf8:	d5033f9f 	dsb	sy
    1bfc:	8b02014a 	add	x10, x10, x2
    1c00:	d61f0140 	br	x10
    1c04:	d5033f9f 	dsb	sy
    1c08:	8b02014a 	add	x10, x10, x2
    1c0c:	d61f0140 	br	x10
    1c10:	d5033f9f 	dsb	sy
    1c14:	8b02014a 	add	x10, x10, x2
    1c18:	d61f0140 	br	x10
    1c1c:	d5033f9f 	dsb	sy
    1c20:	8b02014a 	add	x10, x10, x2
    1c24:	d61f0140 	br	x10
    1c28:	d5033f9f 	dsb	sy
    1c2c:	8b02014a 	add	x10, x10, x2
    1c30:	d61f0140 	br	x10
    1c34:	d5033f9f 	dsb	sy
    1c38:	8b02014a 	add	x10, x10, x2
    1c3c:	d61f0140 	br	x10
    1c40:	d5033f9f 	dsb	sy
    1c44:	8b02014a 	add	x10, x10, x2
    1c48:	d61f0140 	br	x10
    1c4c:	d5033f9f 	dsb	sy
    1c50:	8b02014a 	add	x10, x10, x2
    1c54:	d61f0140 	br	x10
    1c58:	d5033f9f 	dsb	sy
    1c5c:	8b02014a 	add	x10, x10, x2
    1c60:	d61f0140 	br	x10
    1c64:	d5033f9f 	dsb	sy
    1c68:	8b02014a 	add	x10, x10, x2
    1c6c:	d61f0140 	br	x10
    1c70:	d5033f9f 	dsb	sy
    1c74:	8b02014a 	add	x10, x10, x2
    1c78:	d61f0140 	br	x10
    1c7c:	d5033f9f 	dsb	sy
    1c80:	8b02014a 	add	x10, x10, x2
    1c84:	d61f0140 	br	x10
    1c88:	d5033f9f 	dsb	sy
    1c8c:	8b02014a 	add	x10, x10, x2
    1c90:	d61f0140 	br	x10
    1c94:	d5033f9f 	dsb	sy
    1c98:	8b02014a 	add	x10, x10, x2
    1c9c:	d61f0140 	br	x10
    1ca0:	d5033f9f 	dsb	sy
    1ca4:	8b02014a 	add	x10, x10, x2
    1ca8:	d61f0140 	br	x10
    1cac:	d5033f9f 	dsb	sy
    1cb0:	8b02014a 	add	x10, x10, x2
    1cb4:	d61f0140 	br	x10
    1cb8:	d5033f9f 	dsb	sy
    1cbc:	8b02014a 	add	x10, x10, x2
    1cc0:	d61f0140 	br	x10
    1cc4:	d5033f9f 	dsb	sy
    1cc8:	8b02014a 	add	x10, x10, x2
    1ccc:	d61f0140 	br	x10
    1cd0:	d5033f9f 	dsb	sy
    1cd4:	8b02014a 	add	x10, x10, x2
    1cd8:	d61f0140 	br	x10
    1cdc:	d5033f9f 	dsb	sy
    1ce0:	8b02014a 	add	x10, x10, x2
    1ce4:	d61f0140 	br	x10
    1ce8:	d5033f9f 	dsb	sy
    1cec:	8b02014a 	add	x10, x10, x2
    1cf0:	d61f0140 	br	x10
    1cf4:	d5033f9f 	dsb	sy
    1cf8:	8b02014a 	add	x10, x10, x2
    1cfc:	d61f0140 	br	x10
    1d00:	d5033f9f 	dsb	sy
    1d04:	8b02014a 	add	x10, x10, x2
    1d08:	d61f0140 	br	x10
    1d0c:	d5033f9f 	dsb	sy
    1d10:	8b02014a 	add	x10, x10, x2
    1d14:	d61f0140 	br	x10
    1d18:	d5033f9f 	dsb	sy
    1d1c:	8b02014a 	add	x10, x10, x2
    1d20:	d61f0140 	br	x10
    1d24:	d5033f9f 	dsb	sy
    1d28:	8b02014a 	add	x10, x10, x2
    1d2c:	d61f0140 	br	x10
    1d30:	d5033f9f 	dsb	sy
    1d34:	8b02014a 	add	x10, x10, x2
    1d38:	d61f0140 	br	x10
    1d3c:	d5033f9f 	dsb	sy
    1d40:	8b02014a 	add	x10, x10, x2
    1d44:	d61f0140 	br	x10
    1d48:	d5033f9f 	dsb	sy
    1d4c:	8b02014a 	add	x10, x10, x2
    1d50:	d61f0140 	br	x10
    1d54:	d5033f9f 	dsb	sy
    1d58:	8b02014a 	add	x10, x10, x2
    1d5c:	d61f0140 	br	x10
    1d60:	d5033f9f 	dsb	sy
    1d64:	8b02014a 	add	x10, x10, x2
    1d68:	d61f0140 	br	x10
    1d6c:	d5033f9f 	dsb	sy
    1d70:	8b02014a 	add	x10, x10, x2
    1d74:	d61f0140 	br	x10
    1d78:	d5033f9f 	dsb	sy
    1d7c:	8b02014a 	add	x10, x10, x2
    1d80:	d61f0140 	br	x10
    1d84:	d5033f9f 	dsb	sy
    1d88:	8b02014a 	add	x10, x10, x2
    1d8c:	d61f0140 	br	x10
    1d90:	d5033f9f 	dsb	sy
    1d94:	8b02014a 	add	x10, x10, x2
    1d98:	d61f0140 	br	x10
    1d9c:	d5033f9f 	dsb	sy
    1da0:	8b02014a 	add	x10, x10, x2
    1da4:	d61f0140 	br	x10
    1da8:	d5033f9f 	dsb	sy
    1dac:	8b02014a 	add	x10, x10, x2
    1db0:	d61f0140 	br	x10
    1db4:	d5033f9f 	dsb	sy
    1db8:	8b02014a 	add	x10, x10, x2
    1dbc:	d61f0140 	br	x10
    1dc0:	d5033f9f 	dsb	sy
    1dc4:	8b02014a 	add	x10, x10, x2
    1dc8:	d61f0140 	br	x10
    1dcc:	d5033f9f 	dsb	sy
    1dd0:	8b02014a 	add	x10, x10, x2
    1dd4:	d61f0140 	br	x10
    1dd8:	d5033f9f 	dsb	sy
    1ddc:	8b02014a 	add	x10, x10, x2
    1de0:	d61f0140 	br	x10
    1de4:	d5033f9f 	dsb	sy
    1de8:	8b02014a 	add	x10, x10, x2
    1dec:	d61f0140 	br	x10
    1df0:	d5033f9f 	dsb	sy
    1df4:	8b02014a 	add	x10, x10, x2
    1df8:	d61f0140 	br	x10
    1dfc:	d5033f9f 	dsb	sy
    1e00:	8b02014a 	add	x10, x10, x2
    1e04:	d61f0140 	br	x10
    1e08:	d5033f9f 	dsb	sy
    1e0c:	8b02014a 	add	x10, x10, x2
    1e10:	d61f0140 	br	x10
    1e14:	d5033f9f 	dsb	sy
    1e18:	8b02014a 	add	x10, x10, x2
    1e1c:	d61f0140 	br	x10
    1e20:	d5033f9f 	dsb	sy
    1e24:	8b02014a 	add	x10, x10, x2
    1e28:	d61f0140 	br	x10
    1e2c:	d5033f9f 	dsb	sy
    1e30:	8b02014a 	add	x10, x10, x2
    1e34:	d61f0140 	br	x10
    1e38:	d5033f9f 	dsb	sy
    1e3c:	8b02014a 	add	x10, x10, x2
    1e40:	d61f0140 	br	x10
    1e44:	d5033f9f 	dsb	sy
    1e48:	8b02014a 	add	x10, x10, x2
    1e4c:	d61f0140 	br	x10
    1e50:	d5033f9f 	dsb	sy
    1e54:	8b02014a 	add	x10, x10, x2
    1e58:	d61f0140 	br	x10
    1e5c:	d5033f9f 	dsb	sy
    1e60:	8b02014a 	add	x10, x10, x2
    1e64:	d61f0140 	br	x10
    1e68:	d5033f9f 	dsb	sy
    1e6c:	8b02014a 	add	x10, x10, x2
    1e70:	d61f0140 	br	x10
    1e74:	d5033f9f 	dsb	sy
    1e78:	8b02014a 	add	x10, x10, x2
    1e7c:	d61f0140 	br	x10
    1e80:	d5033f9f 	dsb	sy
    1e84:	8b02014a 	add	x10, x10, x2
    1e88:	d61f0140 	br	x10
    1e8c:	d5033f9f 	dsb	sy
    1e90:	8b02014a 	add	x10, x10, x2
    1e94:	d61f0140 	br	x10
    1e98:	d5033f9f 	dsb	sy
    1e9c:	8b02014a 	add	x10, x10, x2
    1ea0:	d61f0140 	br	x10
    1ea4:	d5033f9f 	dsb	sy
    1ea8:	8b02014a 	add	x10, x10, x2
    1eac:	d61f0140 	br	x10
    1eb0:	d5033f9f 	dsb	sy
    1eb4:	8b02014a 	add	x10, x10, x2
    1eb8:	d61f0140 	br	x10
    1ebc:	d5033f9f 	dsb	sy
    1ec0:	8b02014a 	add	x10, x10, x2
    1ec4:	d61f0140 	br	x10
    1ec8:	d5033f9f 	dsb	sy
    1ecc:	8b02014a 	add	x10, x10, x2
    1ed0:	d61f0140 	br	x10
    1ed4:	d5033f9f 	dsb	sy
    1ed8:	8b02014a 	add	x10, x10, x2
    1edc:	d61f0140 	br	x10
    1ee0:	d5033f9f 	dsb	sy
    1ee4:	8b02014a 	add	x10, x10, x2
    1ee8:	d61f0140 	br	x10
    1eec:	d5033f9f 	dsb	sy
    1ef0:	8b02014a 	add	x10, x10, x2
    1ef4:	d61f0140 	br	x10
    1ef8:	d5033f9f 	dsb	sy
    1efc:	8b02014a 	add	x10, x10, x2
    1f00:	d61f0140 	br	x10
    1f04:	d5033f9f 	dsb	sy
    1f08:	8b02014a 	add	x10, x10, x2
    1f0c:	d61f0140 	br	x10
    1f10:	d5033f9f 	dsb	sy
    1f14:	8b02014a 	add	x10, x10, x2
    1f18:	d61f0140 	br	x10
    1f1c:	d5033f9f 	dsb	sy
    1f20:	8b02014a 	add	x10, x10, x2
    1f24:	d61f0140 	br	x10
    1f28:	d5033f9f 	dsb	sy
    1f2c:	8b02014a 	add	x10, x10, x2
    1f30:	d61f0140 	br	x10
    1f34:	d5033f9f 	dsb	sy
    1f38:	8b02014a 	add	x10, x10, x2
    1f3c:	d61f0140 	br	x10
    1f40:	d5033f9f 	dsb	sy
    1f44:	8b02014a 	add	x10, x10, x2
    1f48:	d61f0140 	br	x10
    1f4c:	d5033f9f 	dsb	sy
    1f50:	8b02014a 	add	x10, x10, x2
    1f54:	d61f0140 	br	x10
    1f58:	d5033f9f 	dsb	sy
    1f5c:	8b02014a 	add	x10, x10, x2
    1f60:	d61f0140 	br	x10
    1f64:	d5033f9f 	dsb	sy
    1f68:	8b02014a 	add	x10, x10, x2
    1f6c:	d61f0140 	br	x10
    1f70:	d5033f9f 	dsb	sy
    1f74:	8b02014a 	add	x10, x10, x2
    1f78:	d61f0140 	br	x10
    1f7c:	d5033f9f 	dsb	sy
    1f80:	8b02014a 	add	x10, x10, x2
    1f84:	d61f0140 	br	x10
    1f88:	d5033f9f 	dsb	sy
    1f8c:	8b02014a 	add	x10, x10, x2
    1f90:	d61f0140 	br	x10
    1f94:	d5033f9f 	dsb	sy
    1f98:	8b02014a 	add	x10, x10, x2
    1f9c:	d61f0140 	br	x10
    1fa0:	d5033f9f 	dsb	sy
    1fa4:	8b02014a 	add	x10, x10, x2
    1fa8:	d61f0140 	br	x10
    1fac:	d5033f9f 	dsb	sy
    1fb0:	8b02014a 	add	x10, x10, x2
    1fb4:	d61f0140 	br	x10
    1fb8:	d5033f9f 	dsb	sy
    1fbc:	8b02014a 	add	x10, x10, x2
    1fc0:	d61f0140 	br	x10
    1fc4:	d5033f9f 	dsb	sy
    1fc8:	8b02014a 	add	x10, x10, x2
    1fcc:	d61f0140 	br	x10
    1fd0:	d5033f9f 	dsb	sy
    1fd4:	8b02014a 	add	x10, x10, x2
    1fd8:	d61f0140 	br	x10
    1fdc:	d5033f9f 	dsb	sy
    1fe0:	8b02014a 	add	x10, x10, x2
    1fe4:	d61f0140 	br	x10
    1fe8:	d5033f9f 	dsb	sy
    1fec:	8b02014a 	add	x10, x10, x2
    1ff0:	d61f0140 	br	x10
    1ff4:	d5033f9f 	dsb	sy
    1ff8:	8b02014a 	add	x10, x10, x2
    1ffc:	d61f0140 	br	x10
    2000:	d5033f9f 	dsb	sy
    2004:	8b02014a 	add	x10, x10, x2
    2008:	d61f0140 	br	x10
    200c:	d5033f9f 	dsb	sy
    2010:	8b02014a 	add	x10, x10, x2
    2014:	d61f0140 	br	x10
    2018:	d5033f9f 	dsb	sy
    201c:	8b02014a 	add	x10, x10, x2
    2020:	d61f0140 	br	x10
    2024:	d5033f9f 	dsb	sy
    2028:	8b02014a 	add	x10, x10, x2
    202c:	d61f0140 	br	x10
    2030:	d5033f9f 	dsb	sy
    2034:	8b02014a 	add	x10, x10, x2
    2038:	d61f0140 	br	x10
    203c:	d5033f9f 	dsb	sy
    2040:	8b02014a 	add	x10, x10, x2
    2044:	d61f0140 	br	x10
    2048:	d5033f9f 	dsb	sy
    204c:	8b02014a 	add	x10, x10, x2
    2050:	d61f0140 	br	x10
    2054:	d5033f9f 	dsb	sy
    2058:	8b02014a 	add	x10, x10, x2
    205c:	d61f0140 	br	x10
    2060:	d5033f9f 	dsb	sy
    2064:	8b02014a 	add	x10, x10, x2
    2068:	d61f0140 	br	x10
    206c:	d5033f9f 	dsb	sy
    2070:	8b02014a 	add	x10, x10, x2
    2074:	d61f0140 	br	x10
    2078:	d5033f9f 	dsb	sy
    207c:	8b02014a 	add	x10, x10, x2
    2080:	d61f0140 	br	x10
    2084:	d5033f9f 	dsb	sy
    2088:	8b02014a 	add	x10, x10, x2
    208c:	d61f0140 	br	x10
    2090:	d5033f9f 	dsb	sy
    2094:	8b02014a 	add	x10, x10, x2
    2098:	d61f0140 	br	x10
    209c:	d5033f9f 	dsb	sy
    20a0:	8b02014a 	add	x10, x10, x2
    20a4:	d61f0140 	br	x10
    20a8:	d5033f9f 	dsb	sy
    20ac:	8b02014a 	add	x10, x10, x2
    20b0:	d61f0140 	br	x10
    20b4:	d5033f9f 	dsb	sy
    20b8:	8b02014a 	add	x10, x10, x2
    20bc:	d61f0140 	br	x10
    20c0:	d5033f9f 	dsb	sy
    20c4:	8b02014a 	add	x10, x10, x2
    20c8:	d61f0140 	br	x10
    20cc:	d5033f9f 	dsb	sy
    20d0:	8b02014a 	add	x10, x10, x2
    20d4:	d61f0140 	br	x10
    20d8:	d5033f9f 	dsb	sy
    20dc:	8b02014a 	add	x10, x10, x2
    20e0:	d61f0140 	br	x10
    20e4:	d5033f9f 	dsb	sy
    20e8:	8b02014a 	add	x10, x10, x2
    20ec:	d61f0140 	br	x10
    20f0:	d5033f9f 	dsb	sy
    20f4:	8b02014a 	add	x10, x10, x2
    20f8:	d61f0140 	br	x10
    20fc:	d5033f9f 	dsb	sy
    2100:	8b02014a 	add	x10, x10, x2
    2104:	d61f0140 	br	x10
    2108:	d5033f9f 	dsb	sy
    210c:	8b02014a 	add	x10, x10, x2
    2110:	d61f0140 	br	x10
    2114:	d5033f9f 	dsb	sy
    2118:	8b02014a 	add	x10, x10, x2
    211c:	d61f0140 	br	x10
    2120:	d5033f9f 	dsb	sy
    2124:	8b02014a 	add	x10, x10, x2
    2128:	d61f0140 	br	x10
    212c:	d5033f9f 	dsb	sy
    2130:	8b02014a 	add	x10, x10, x2
    2134:	d61f0140 	br	x10
    2138:	d5033f9f 	dsb	sy
    213c:	8b02014a 	add	x10, x10, x2
    2140:	d61f0140 	br	x10
    2144:	d5033f9f 	dsb	sy
    2148:	8b02014a 	add	x10, x10, x2
    214c:	d61f0140 	br	x10
    2150:	d5033f9f 	dsb	sy
    2154:	8b02014a 	add	x10, x10, x2
    2158:	d61f0140 	br	x10
    215c:	d5033f9f 	dsb	sy
    2160:	8b02014a 	add	x10, x10, x2
    2164:	d61f0140 	br	x10
    2168:	d5033f9f 	dsb	sy
    216c:	8b02014a 	add	x10, x10, x2
    2170:	d61f0140 	br	x10
    2174:	d5033f9f 	dsb	sy
    2178:	8b02014a 	add	x10, x10, x2
    217c:	d61f0140 	br	x10
    2180:	d5033f9f 	dsb	sy
    2184:	8b02014a 	add	x10, x10, x2
    2188:	d61f0140 	br	x10
    218c:	d5033f9f 	dsb	sy
    2190:	8b02014a 	add	x10, x10, x2
    2194:	d61f0140 	br	x10
    2198:	d5033f9f 	dsb	sy
    219c:	8b02014a 	add	x10, x10, x2
    21a0:	d61f0140 	br	x10
    21a4:	d5033f9f 	dsb	sy
    21a8:	8b02014a 	add	x10, x10, x2
    21ac:	d61f0140 	br	x10
    21b0:	d5033f9f 	dsb	sy
    21b4:	8b02014a 	add	x10, x10, x2
    21b8:	d61f0140 	br	x10
    21bc:	d5033f9f 	dsb	sy
    21c0:	8b02014a 	add	x10, x10, x2
    21c4:	d61f0140 	br	x10
    21c8:	d5033f9f 	dsb	sy
    21cc:	8b02014a 	add	x10, x10, x2
    21d0:	d61f0140 	br	x10
    21d4:	d5033f9f 	dsb	sy
    21d8:	8b02014a 	add	x10, x10, x2
    21dc:	d61f0140 	br	x10
    21e0:	d5033f9f 	dsb	sy
    21e4:	8b02014a 	add	x10, x10, x2
    21e8:	d61f0140 	br	x10
    21ec:	d5033f9f 	dsb	sy
    21f0:	8b02014a 	add	x10, x10, x2
    21f4:	d61f0140 	br	x10
    21f8:	d5033f9f 	dsb	sy
    21fc:	8b02014a 	add	x10, x10, x2
    2200:	d61f0140 	br	x10
    2204:	d5033f9f 	dsb	sy
    2208:	8b02014a 	add	x10, x10, x2
    220c:	d61f0140 	br	x10
    2210:	d5033f9f 	dsb	sy
    2214:	8b02014a 	add	x10, x10, x2
    2218:	d61f0140 	br	x10
    221c:	d5033f9f 	dsb	sy
    2220:	8b02014a 	add	x10, x10, x2
    2224:	d61f0140 	br	x10
    2228:	d5033f9f 	dsb	sy
    222c:	8b02014a 	add	x10, x10, x2
    2230:	d61f0140 	br	x10
    2234:	d5033f9f 	dsb	sy
    2238:	8b02014a 	add	x10, x10, x2
    223c:	d61f0140 	br	x10
    2240:	d5033f9f 	dsb	sy
    2244:	8b02014a 	add	x10, x10, x2
    2248:	d61f0140 	br	x10
    224c:	d5033f9f 	dsb	sy
    2250:	8b02014a 	add	x10, x10, x2
    2254:	d61f0140 	br	x10
    2258:	d5033f9f 	dsb	sy
    225c:	8b02014a 	add	x10, x10, x2
    2260:	d61f0140 	br	x10
    2264:	d5033f9f 	dsb	sy
    2268:	8b02014a 	add	x10, x10, x2
    226c:	d61f0140 	br	x10
    2270:	d5033f9f 	dsb	sy
    2274:	8b02014a 	add	x10, x10, x2
    2278:	d61f0140 	br	x10
    227c:	d5033f9f 	dsb	sy
    2280:	8b02014a 	add	x10, x10, x2
    2284:	d61f0140 	br	x10
    2288:	d5033f9f 	dsb	sy
    228c:	8b02014a 	add	x10, x10, x2
    2290:	d61f0140 	br	x10
    2294:	d5033f9f 	dsb	sy
    2298:	8b02014a 	add	x10, x10, x2
    229c:	d61f0140 	br	x10
    22a0:	d5033f9f 	dsb	sy
    22a4:	8b02014a 	add	x10, x10, x2
    22a8:	d61f0140 	br	x10
    22ac:	d5033f9f 	dsb	sy
    22b0:	8b02014a 	add	x10, x10, x2
    22b4:	d61f0140 	br	x10
    22b8:	d5033f9f 	dsb	sy
    22bc:	8b02014a 	add	x10, x10, x2
    22c0:	d61f0140 	br	x10
    22c4:	d5033f9f 	dsb	sy
    22c8:	8b02014a 	add	x10, x10, x2
    22cc:	d61f0140 	br	x10
    22d0:	d5033f9f 	dsb	sy
    22d4:	8b02014a 	add	x10, x10, x2
    22d8:	d61f0140 	br	x10
    22dc:	d5033f9f 	dsb	sy
    22e0:	8b02014a 	add	x10, x10, x2
    22e4:	d61f0140 	br	x10
    22e8:	d5033f9f 	dsb	sy
    22ec:	8b02014a 	add	x10, x10, x2
    22f0:	d61f0140 	br	x10
    22f4:	d5033f9f 	dsb	sy
    22f8:	8b02014a 	add	x10, x10, x2
    22fc:	d61f0140 	br	x10
    2300:	d5033f9f 	dsb	sy
    2304:	8b02014a 	add	x10, x10, x2
    2308:	d61f0140 	br	x10
    230c:	d5033f9f 	dsb	sy
    2310:	8b02014a 	add	x10, x10, x2
    2314:	d61f0140 	br	x10
    2318:	d5033f9f 	dsb	sy
    231c:	8b02014a 	add	x10, x10, x2
    2320:	d61f0140 	br	x10
    2324:	d5033f9f 	dsb	sy
    2328:	8b02014a 	add	x10, x10, x2
    232c:	d61f0140 	br	x10
    2330:	d5033f9f 	dsb	sy
    2334:	8b02014a 	add	x10, x10, x2
    2338:	d61f0140 	br	x10
    233c:	d5033f9f 	dsb	sy
    2340:	8b02014a 	add	x10, x10, x2
    2344:	d61f0140 	br	x10
    2348:	d5033f9f 	dsb	sy
    234c:	8b02014a 	add	x10, x10, x2
    2350:	d61f0140 	br	x10
    2354:	d5033f9f 	dsb	sy
    2358:	8b02014a 	add	x10, x10, x2
    235c:	d61f0140 	br	x10
    2360:	d5033f9f 	dsb	sy
    2364:	8b02014a 	add	x10, x10, x2
    2368:	d61f0140 	br	x10
    236c:	d5033f9f 	dsb	sy
    2370:	8b02014a 	add	x10, x10, x2
    2374:	d61f0140 	br	x10
    2378:	d5033f9f 	dsb	sy
    237c:	8b02014a 	add	x10, x10, x2
    2380:	d61f0140 	br	x10
    2384:	d5033f9f 	dsb	sy
    2388:	8b02014a 	add	x10, x10, x2
    238c:	d61f0140 	br	x10
    2390:	d5033f9f 	dsb	sy
    2394:	8b02014a 	add	x10, x10, x2
    2398:	d61f0140 	br	x10
    239c:	d5033f9f 	dsb	sy
    23a0:	8b02014a 	add	x10, x10, x2
    23a4:	d61f0140 	br	x10
    23a8:	d5033f9f 	dsb	sy
    23ac:	8b02014a 	add	x10, x10, x2
    23b0:	d61f0140 	br	x10
    23b4:	d5033f9f 	dsb	sy
    23b8:	8b02014a 	add	x10, x10, x2
    23bc:	d61f0140 	br	x10
    23c0:	d5033f9f 	dsb	sy
    23c4:	8b02014a 	add	x10, x10, x2
    23c8:	d61f0140 	br	x10
    23cc:	d5033f9f 	dsb	sy
    23d0:	8b02014a 	add	x10, x10, x2
    23d4:	d61f0140 	br	x10
    23d8:	d5033f9f 	dsb	sy
    23dc:	8b02014a 	add	x10, x10, x2
    23e0:	d61f0140 	br	x10
    23e4:	d5033f9f 	dsb	sy
    23e8:	8b02014a 	add	x10, x10, x2
    23ec:	d61f0140 	br	x10
    23f0:	d5033f9f 	dsb	sy
    23f4:	8b02014a 	add	x10, x10, x2
    23f8:	d61f0140 	br	x10
    23fc:	d5033f9f 	dsb	sy
    2400:	8b02014a 	add	x10, x10, x2
    2404:	d61f0140 	br	x10
    2408:	d5033f9f 	dsb	sy
    240c:	8b02014a 	add	x10, x10, x2
    2410:	d61f0140 	br	x10
    2414:	d5033f9f 	dsb	sy
    2418:	8b02014a 	add	x10, x10, x2
    241c:	d61f0140 	br	x10
    2420:	d5033f9f 	dsb	sy
    2424:	8b02014a 	add	x10, x10, x2
    2428:	d61f0140 	br	x10
    242c:	d5033f9f 	dsb	sy
    2430:	8b02014a 	add	x10, x10, x2
    2434:	d61f0140 	br	x10
    2438:	d5033f9f 	dsb	sy
    243c:	8b02014a 	add	x10, x10, x2
    2440:	d61f0140 	br	x10
    2444:	d5033f9f 	dsb	sy
    2448:	8b02014a 	add	x10, x10, x2
    244c:	d61f0140 	br	x10
    2450:	d5033f9f 	dsb	sy
    2454:	8b02014a 	add	x10, x10, x2
    2458:	d61f0140 	br	x10
    245c:	d5033f9f 	dsb	sy
    2460:	8b02014a 	add	x10, x10, x2
    2464:	d61f0140 	br	x10
    2468:	d5033f9f 	dsb	sy
    246c:	8b02014a 	add	x10, x10, x2
    2470:	d61f0140 	br	x10
    2474:	d5033f9f 	dsb	sy
    2478:	8b02014a 	add	x10, x10, x2
    247c:	d61f0140 	br	x10
    2480:	d5033f9f 	dsb	sy
    2484:	8b02014a 	add	x10, x10, x2
    2488:	d61f0140 	br	x10
    248c:	d5033f9f 	dsb	sy
    2490:	8b02014a 	add	x10, x10, x2
    2494:	d61f0140 	br	x10
    2498:	d5033f9f 	dsb	sy
    249c:	8b02014a 	add	x10, x10, x2
    24a0:	d61f0140 	br	x10
    24a4:	d5033f9f 	dsb	sy
    24a8:	8b02014a 	add	x10, x10, x2
    24ac:	d61f0140 	br	x10
    24b0:	d5033f9f 	dsb	sy
    24b4:	8b02014a 	add	x10, x10, x2
    24b8:	d61f0140 	br	x10
    24bc:	d5033f9f 	dsb	sy
    24c0:	8b02014a 	add	x10, x10, x2
    24c4:	d61f0140 	br	x10
    24c8:	d5033f9f 	dsb	sy
    24cc:	8b02014a 	add	x10, x10, x2
    24d0:	d61f0140 	br	x10
    24d4:	d5033f9f 	dsb	sy
    24d8:	8b02014a 	add	x10, x10, x2
    24dc:	d61f0140 	br	x10
    24e0:	d5033f9f 	dsb	sy
    24e4:	8b02014a 	add	x10, x10, x2
    24e8:	d61f0140 	br	x10
    24ec:	d5033f9f 	dsb	sy
    24f0:	8b02014a 	add	x10, x10, x2
    24f4:	d61f0140 	br	x10
    24f8:	d5033f9f 	dsb	sy
    24fc:	8b02014a 	add	x10, x10, x2
    2500:	d61f0140 	br	x10
    2504:	d5033f9f 	dsb	sy
    2508:	8b02014a 	add	x10, x10, x2
    250c:	d61f0140 	br	x10
    2510:	d5033f9f 	dsb	sy
    2514:	8b02014a 	add	x10, x10, x2
    2518:	d61f0140 	br	x10
    251c:	d5033f9f 	dsb	sy
    2520:	8b02014a 	add	x10, x10, x2
    2524:	d61f0140 	br	x10
    2528:	d5033f9f 	dsb	sy
    252c:	8b02014a 	add	x10, x10, x2
    2530:	d61f0140 	br	x10
    2534:	d5033f9f 	dsb	sy
    2538:	8b02014a 	add	x10, x10, x2
    253c:	d61f0140 	br	x10
    2540:	d5033f9f 	dsb	sy
    2544:	8b02014a 	add	x10, x10, x2
    2548:	d61f0140 	br	x10
    254c:	d5033f9f 	dsb	sy
    2550:	8b02014a 	add	x10, x10, x2
    2554:	d61f0140 	br	x10
    2558:	d5033f9f 	dsb	sy
    255c:	8b02014a 	add	x10, x10, x2
    2560:	d61f0140 	br	x10
    2564:	d5033f9f 	dsb	sy
    2568:	8b02014a 	add	x10, x10, x2
    256c:	d61f0140 	br	x10
    2570:	d5033f9f 	dsb	sy
    2574:	8b02014a 	add	x10, x10, x2
    2578:	d61f0140 	br	x10
    257c:	d5033f9f 	dsb	sy
    2580:	8b02014a 	add	x10, x10, x2
    2584:	d61f0140 	br	x10
    2588:	d5033f9f 	dsb	sy
    258c:	8b02014a 	add	x10, x10, x2
    2590:	d61f0140 	br	x10
    2594:	d5033f9f 	dsb	sy
    2598:	8b02014a 	add	x10, x10, x2
    259c:	d61f0140 	br	x10
    25a0:	d5033f9f 	dsb	sy
    25a4:	8b02014a 	add	x10, x10, x2
    25a8:	d61f0140 	br	x10
    25ac:	d5033f9f 	dsb	sy
    25b0:	8b02014a 	add	x10, x10, x2
    25b4:	d61f0140 	br	x10
    25b8:	d5033f9f 	dsb	sy
    25bc:	8b02014a 	add	x10, x10, x2
    25c0:	d61f0140 	br	x10
    25c4:	d5033f9f 	dsb	sy
    25c8:	8b02014a 	add	x10, x10, x2
    25cc:	d61f0140 	br	x10
    25d0:	d5033f9f 	dsb	sy
    25d4:	8b02014a 	add	x10, x10, x2
    25d8:	d61f0140 	br	x10
    25dc:	d5033f9f 	dsb	sy
    25e0:	8b02014a 	add	x10, x10, x2
    25e4:	d61f0140 	br	x10
    25e8:	d5033f9f 	dsb	sy
    25ec:	8b02014a 	add	x10, x10, x2
    25f0:	d61f0140 	br	x10
    25f4:	d5033f9f 	dsb	sy
    25f8:	8b02014a 	add	x10, x10, x2
    25fc:	d61f0140 	br	x10
    2600:	d5033f9f 	dsb	sy
    2604:	8b02014a 	add	x10, x10, x2
    2608:	d61f0140 	br	x10
    260c:	d5033f9f 	dsb	sy
    2610:	8b02014a 	add	x10, x10, x2
    2614:	d61f0140 	br	x10
    2618:	d5033f9f 	dsb	sy
    261c:	8b02014a 	add	x10, x10, x2
    2620:	d61f0140 	br	x10
    2624:	d5033f9f 	dsb	sy
    2628:	8b02014a 	add	x10, x10, x2
    262c:	d61f0140 	br	x10
    2630:	d5033f9f 	dsb	sy
    2634:	8b02014a 	add	x10, x10, x2
    2638:	d61f0140 	br	x10
    263c:	d5033f9f 	dsb	sy
    2640:	8b02014a 	add	x10, x10, x2
    2644:	d61f0140 	br	x10
    2648:	d5033f9f 	dsb	sy
    264c:	8b02014a 	add	x10, x10, x2
    2650:	d61f0140 	br	x10
    2654:	d5033f9f 	dsb	sy
    2658:	8b02014a 	add	x10, x10, x2
    265c:	d61f0140 	br	x10
    2660:	d5033f9f 	dsb	sy
    2664:	8b02014a 	add	x10, x10, x2
    2668:	d61f0140 	br	x10
    266c:	d5033f9f 	dsb	sy
    2670:	8b02014a 	add	x10, x10, x2
    2674:	d61f0140 	br	x10
    2678:	d5033f9f 	dsb	sy
    267c:	8b02014a 	add	x10, x10, x2
    2680:	d61f0140 	br	x10
    2684:	d5033f9f 	dsb	sy
    2688:	8b02014a 	add	x10, x10, x2
    268c:	d61f0140 	br	x10
    2690:	d5033f9f 	dsb	sy
    2694:	8b02014a 	add	x10, x10, x2
    2698:	d61f0140 	br	x10
    269c:	d5033f9f 	dsb	sy
    26a0:	8b02014a 	add	x10, x10, x2
    26a4:	d61f0140 	br	x10
    26a8:	d5033f9f 	dsb	sy
    26ac:	8b02014a 	add	x10, x10, x2
    26b0:	d61f0140 	br	x10
    26b4:	d5033f9f 	dsb	sy
    26b8:	8b02014a 	add	x10, x10, x2
    26bc:	d61f0140 	br	x10
    26c0:	d5033f9f 	dsb	sy
    26c4:	8b02014a 	add	x10, x10, x2
    26c8:	d61f0140 	br	x10
    26cc:	d5033f9f 	dsb	sy
    26d0:	8b02014a 	add	x10, x10, x2
    26d4:	d61f0140 	br	x10
    26d8:	d5033f9f 	dsb	sy
    26dc:	8b02014a 	add	x10, x10, x2
    26e0:	d61f0140 	br	x10
    26e4:	d5033f9f 	dsb	sy
    26e8:	8b02014a 	add	x10, x10, x2
    26ec:	d61f0140 	br	x10
    26f0:	d5033f9f 	dsb	sy
    26f4:	8b02014a 	add	x10, x10, x2
    26f8:	d61f0140 	br	x10
    26fc:	d5033f9f 	dsb	sy
    2700:	8b02014a 	add	x10, x10, x2
    2704:	d61f0140 	br	x10
    2708:	d5033f9f 	dsb	sy
    270c:	8b02014a 	add	x10, x10, x2
    2710:	d61f0140 	br	x10
    2714:	d5033f9f 	dsb	sy
    2718:	8b02014a 	add	x10, x10, x2
    271c:	d61f0140 	br	x10
    2720:	d5033f9f 	dsb	sy
    2724:	8b02014a 	add	x10, x10, x2
    2728:	d61f0140 	br	x10
    272c:	d5033f9f 	dsb	sy
    2730:	8b02014a 	add	x10, x10, x2
    2734:	d61f0140 	br	x10
    2738:	d5033f9f 	dsb	sy
    273c:	8b02014a 	add	x10, x10, x2
    2740:	d61f0140 	br	x10
    2744:	d5033f9f 	dsb	sy
    2748:	8b02014a 	add	x10, x10, x2
    274c:	d61f0140 	br	x10
    2750:	d5033f9f 	dsb	sy
    2754:	8b02014a 	add	x10, x10, x2
    2758:	d61f0140 	br	x10
    275c:	d5033f9f 	dsb	sy
    2760:	8b02014a 	add	x10, x10, x2
    2764:	d61f0140 	br	x10
    2768:	d5033f9f 	dsb	sy
    276c:	8b02014a 	add	x10, x10, x2
    2770:	d61f0140 	br	x10
    2774:	d5033f9f 	dsb	sy
    2778:	8b02014a 	add	x10, x10, x2
    277c:	d61f0140 	br	x10
    2780:	d5033f9f 	dsb	sy
    2784:	8b02014a 	add	x10, x10, x2
    2788:	d61f0140 	br	x10
    278c:	d5033f9f 	dsb	sy
    2790:	8b02014a 	add	x10, x10, x2
    2794:	d61f0140 	br	x10
    2798:	d5033f9f 	dsb	sy
    279c:	8b02014a 	add	x10, x10, x2
    27a0:	d61f0140 	br	x10
    27a4:	d5033f9f 	dsb	sy
    27a8:	8b02014a 	add	x10, x10, x2
    27ac:	d61f0140 	br	x10
    27b0:	d5033f9f 	dsb	sy
    27b4:	8b02014a 	add	x10, x10, x2
    27b8:	d61f0140 	br	x10
    27bc:	d5033f9f 	dsb	sy
    27c0:	8b02014a 	add	x10, x10, x2
    27c4:	d61f0140 	br	x10
    27c8:	d5033f9f 	dsb	sy
    27cc:	8b02014a 	add	x10, x10, x2
    27d0:	d61f0140 	br	x10
    27d4:	d5033f9f 	dsb	sy
    27d8:	8b02014a 	add	x10, x10, x2
    27dc:	d61f0140 	br	x10
    27e0:	d5033f9f 	dsb	sy
    27e4:	8b02014a 	add	x10, x10, x2
    27e8:	d61f0140 	br	x10
    27ec:	d5033f9f 	dsb	sy
    27f0:	8b02014a 	add	x10, x10, x2
    27f4:	d61f0140 	br	x10
    27f8:	d5033f9f 	dsb	sy
    27fc:	8b02014a 	add	x10, x10, x2
    2800:	d61f0140 	br	x10
    2804:	d5033f9f 	dsb	sy
    2808:	8b02014a 	add	x10, x10, x2
    280c:	d61f0140 	br	x10
    2810:	d5033f9f 	dsb	sy
    2814:	8b02014a 	add	x10, x10, x2
    2818:	d61f0140 	br	x10
    281c:	d5033f9f 	dsb	sy
    2820:	8b02014a 	add	x10, x10, x2
    2824:	d61f0140 	br	x10
    2828:	d5033f9f 	dsb	sy
    282c:	8b02014a 	add	x10, x10, x2
    2830:	d61f0140 	br	x10
    2834:	d5033f9f 	dsb	sy
    2838:	8b02014a 	add	x10, x10, x2
    283c:	d61f0140 	br	x10
    2840:	d5033f9f 	dsb	sy
    2844:	8b02014a 	add	x10, x10, x2
    2848:	d61f0140 	br	x10
    284c:	d5033f9f 	dsb	sy
    2850:	8b02014a 	add	x10, x10, x2
    2854:	d61f0140 	br	x10
    2858:	d5033f9f 	dsb	sy
    285c:	8b02014a 	add	x10, x10, x2
    2860:	d61f0140 	br	x10
    2864:	d5033f9f 	dsb	sy
    2868:	8b02014a 	add	x10, x10, x2
    286c:	d61f0140 	br	x10
    2870:	d5033f9f 	dsb	sy
    2874:	8b02014a 	add	x10, x10, x2
    2878:	d61f0140 	br	x10
    287c:	d5033f9f 	dsb	sy
    2880:	8b02014a 	add	x10, x10, x2
    2884:	d61f0140 	br	x10
    2888:	d5033f9f 	dsb	sy
    288c:	8b02014a 	add	x10, x10, x2
    2890:	d61f0140 	br	x10
    2894:	d5033f9f 	dsb	sy
    2898:	8b02014a 	add	x10, x10, x2
    289c:	d61f0140 	br	x10
    28a0:	d5033f9f 	dsb	sy
    28a4:	8b02014a 	add	x10, x10, x2
    28a8:	d61f0140 	br	x10
    28ac:	d5033f9f 	dsb	sy
    28b0:	8b02014a 	add	x10, x10, x2
    28b4:	d61f0140 	br	x10
    28b8:	d5033f9f 	dsb	sy
    28bc:	8b02014a 	add	x10, x10, x2
    28c0:	d61f0140 	br	x10
    28c4:	d5033f9f 	dsb	sy
    28c8:	8b02014a 	add	x10, x10, x2
    28cc:	d61f0140 	br	x10
    28d0:	d5033f9f 	dsb	sy
    28d4:	8b02014a 	add	x10, x10, x2
    28d8:	d61f0140 	br	x10
    28dc:	d5033f9f 	dsb	sy
    28e0:	8b02014a 	add	x10, x10, x2
    28e4:	d61f0140 	br	x10
    28e8:	d5033f9f 	dsb	sy
    28ec:	8b02014a 	add	x10, x10, x2
    28f0:	d61f0140 	br	x10
    28f4:	d5033f9f 	dsb	sy
    28f8:	8b02014a 	add	x10, x10, x2
    28fc:	d61f0140 	br	x10
    2900:	d5033f9f 	dsb	sy
    2904:	8b02014a 	add	x10, x10, x2
    2908:	d61f0140 	br	x10
    290c:	d5033f9f 	dsb	sy
    2910:	8b02014a 	add	x10, x10, x2
    2914:	d61f0140 	br	x10
    2918:	d5033f9f 	dsb	sy
    291c:	8b02014a 	add	x10, x10, x2
    2920:	d61f0140 	br	x10
    2924:	d5033f9f 	dsb	sy
    2928:	8b02014a 	add	x10, x10, x2
    292c:	d61f0140 	br	x10
    2930:	d5033f9f 	dsb	sy
    2934:	8b02014a 	add	x10, x10, x2
    2938:	d61f0140 	br	x10
    293c:	d5033f9f 	dsb	sy
    2940:	8b02014a 	add	x10, x10, x2
    2944:	d61f0140 	br	x10
    2948:	d5033f9f 	dsb	sy
    294c:	8b02014a 	add	x10, x10, x2
    2950:	d61f0140 	br	x10
    2954:	d5033f9f 	dsb	sy
    2958:	8b02014a 	add	x10, x10, x2
    295c:	d61f0140 	br	x10
    2960:	d5033f9f 	dsb	sy
    2964:	8b02014a 	add	x10, x10, x2
    2968:	d61f0140 	br	x10
    296c:	d5033f9f 	dsb	sy
    2970:	8b02014a 	add	x10, x10, x2
    2974:	d61f0140 	br	x10
    2978:	d5033f9f 	dsb	sy
    297c:	8b02014a 	add	x10, x10, x2
    2980:	d61f0140 	br	x10
    2984:	d5033f9f 	dsb	sy
    2988:	8b02014a 	add	x10, x10, x2
    298c:	d61f0140 	br	x10
    2990:	d5033f9f 	dsb	sy
    2994:	8b02014a 	add	x10, x10, x2
    2998:	d61f0140 	br	x10
    299c:	d5033f9f 	dsb	sy
    29a0:	8b02014a 	add	x10, x10, x2
    29a4:	d61f0140 	br	x10
    29a8:	d5033f9f 	dsb	sy
    29ac:	8b02014a 	add	x10, x10, x2
    29b0:	d61f0140 	br	x10
    29b4:	d5033f9f 	dsb	sy
    29b8:	8b02014a 	add	x10, x10, x2
    29bc:	d61f0140 	br	x10
    29c0:	d5033f9f 	dsb	sy
    29c4:	8b02014a 	add	x10, x10, x2
    29c8:	d61f0140 	br	x10
    29cc:	d5033f9f 	dsb	sy
    29d0:	8b02014a 	add	x10, x10, x2
    29d4:	d61f0140 	br	x10
    29d8:	d5033f9f 	dsb	sy
    29dc:	8b02014a 	add	x10, x10, x2
    29e0:	d61f0140 	br	x10
    29e4:	d5033f9f 	dsb	sy
    29e8:	8b02014a 	add	x10, x10, x2
    29ec:	d61f0140 	br	x10
    29f0:	d5033f9f 	dsb	sy
    29f4:	8b02014a 	add	x10, x10, x2
    29f8:	d61f0140 	br	x10
    29fc:	d5033f9f 	dsb	sy
    2a00:	8b02014a 	add	x10, x10, x2
    2a04:	d61f0140 	br	x10
    2a08:	d5033f9f 	dsb	sy
    2a0c:	8b02014a 	add	x10, x10, x2
    2a10:	d61f0140 	br	x10
    2a14:	d5033f9f 	dsb	sy
    2a18:	8b02014a 	add	x10, x10, x2
    2a1c:	d61f0140 	br	x10
    2a20:	d5033f9f 	dsb	sy
    2a24:	8b02014a 	add	x10, x10, x2
    2a28:	d61f0140 	br	x10
    2a2c:	d5033f9f 	dsb	sy
    2a30:	8b02014a 	add	x10, x10, x2
    2a34:	d61f0140 	br	x10
    2a38:	d5033f9f 	dsb	sy
    2a3c:	8b02014a 	add	x10, x10, x2
    2a40:	d61f0140 	br	x10
    2a44:	d5033f9f 	dsb	sy
    2a48:	8b02014a 	add	x10, x10, x2
    2a4c:	d61f0140 	br	x10
    2a50:	d5033f9f 	dsb	sy
    2a54:	8b02014a 	add	x10, x10, x2
    2a58:	d61f0140 	br	x10
    2a5c:	d5033f9f 	dsb	sy
    2a60:	8b02014a 	add	x10, x10, x2
    2a64:	d61f0140 	br	x10
    2a68:	d5033f9f 	dsb	sy
    2a6c:	8b02014a 	add	x10, x10, x2
    2a70:	d61f0140 	br	x10
    2a74:	d5033f9f 	dsb	sy
    2a78:	8b02014a 	add	x10, x10, x2
    2a7c:	d61f0140 	br	x10
    2a80:	d5033f9f 	dsb	sy
    2a84:	8b02014a 	add	x10, x10, x2
    2a88:	d61f0140 	br	x10
    2a8c:	d5033f9f 	dsb	sy
    2a90:	8b02014a 	add	x10, x10, x2
    2a94:	d61f0140 	br	x10
    2a98:	d5033f9f 	dsb	sy
    2a9c:	8b02014a 	add	x10, x10, x2
    2aa0:	d61f0140 	br	x10
    2aa4:	d5033f9f 	dsb	sy
    2aa8:	8b02014a 	add	x10, x10, x2
    2aac:	d61f0140 	br	x10
    2ab0:	d5033f9f 	dsb	sy
    2ab4:	8b02014a 	add	x10, x10, x2
    2ab8:	d61f0140 	br	x10
    2abc:	d5033f9f 	dsb	sy
    2ac0:	8b02014a 	add	x10, x10, x2
    2ac4:	d61f0140 	br	x10
    2ac8:	d5033f9f 	dsb	sy
    2acc:	8b02014a 	add	x10, x10, x2
    2ad0:	d61f0140 	br	x10
    2ad4:	d5033f9f 	dsb	sy
    2ad8:	8b02014a 	add	x10, x10, x2
    2adc:	d61f0140 	br	x10
    2ae0:	d5033f9f 	dsb	sy
    2ae4:	8b02014a 	add	x10, x10, x2
    2ae8:	d61f0140 	br	x10
    2aec:	d5033f9f 	dsb	sy
    2af0:	8b02014a 	add	x10, x10, x2
    2af4:	d61f0140 	br	x10
    2af8:	d5033f9f 	dsb	sy
    2afc:	8b02014a 	add	x10, x10, x2
    2b00:	d61f0140 	br	x10
    2b04:	d5033f9f 	dsb	sy
    2b08:	8b02014a 	add	x10, x10, x2
    2b0c:	d61f0140 	br	x10
    2b10:	d5033f9f 	dsb	sy
    2b14:	8b02014a 	add	x10, x10, x2
    2b18:	d61f0140 	br	x10
    2b1c:	d5033f9f 	dsb	sy
    2b20:	8b02014a 	add	x10, x10, x2
    2b24:	d61f0140 	br	x10
    2b28:	d5033f9f 	dsb	sy
    2b2c:	8b02014a 	add	x10, x10, x2
    2b30:	d61f0140 	br	x10
    2b34:	d5033f9f 	dsb	sy
    2b38:	8b02014a 	add	x10, x10, x2
    2b3c:	d61f0140 	br	x10
    2b40:	d5033f9f 	dsb	sy
    2b44:	8b02014a 	add	x10, x10, x2
    2b48:	d61f0140 	br	x10
    2b4c:	d5033f9f 	dsb	sy
    2b50:	8b02014a 	add	x10, x10, x2
    2b54:	d61f0140 	br	x10
    2b58:	d5033f9f 	dsb	sy
    2b5c:	8b02014a 	add	x10, x10, x2
    2b60:	d61f0140 	br	x10
    2b64:	d5033f9f 	dsb	sy
    2b68:	8b02014a 	add	x10, x10, x2
    2b6c:	d61f0140 	br	x10
    2b70:	d5033f9f 	dsb	sy
    2b74:	8b02014a 	add	x10, x10, x2
    2b78:	d61f0140 	br	x10
    2b7c:	d5033f9f 	dsb	sy
    2b80:	8b02014a 	add	x10, x10, x2
    2b84:	d61f0140 	br	x10
    2b88:	d5033f9f 	dsb	sy
    2b8c:	8b02014a 	add	x10, x10, x2
    2b90:	d61f0140 	br	x10
    2b94:	d5033f9f 	dsb	sy
    2b98:	8b02014a 	add	x10, x10, x2
    2b9c:	d61f0140 	br	x10
    2ba0:	d5033f9f 	dsb	sy
    2ba4:	8b02014a 	add	x10, x10, x2
    2ba8:	d61f0140 	br	x10
    2bac:	d5033f9f 	dsb	sy
    2bb0:	8b02014a 	add	x10, x10, x2
    2bb4:	d61f0140 	br	x10
    2bb8:	d5033f9f 	dsb	sy
    2bbc:	8b02014a 	add	x10, x10, x2
    2bc0:	d61f0140 	br	x10
    2bc4:	d5033f9f 	dsb	sy
    2bc8:	8b02014a 	add	x10, x10, x2
    2bcc:	d61f0140 	br	x10
    2bd0:	d5033f9f 	dsb	sy
    2bd4:	8b02014a 	add	x10, x10, x2
    2bd8:	d61f0140 	br	x10
    2bdc:	d5033f9f 	dsb	sy
    2be0:	8b02014a 	add	x10, x10, x2
    2be4:	d61f0140 	br	x10
    2be8:	d5033f9f 	dsb	sy
    2bec:	8b02014a 	add	x10, x10, x2
    2bf0:	d61f0140 	br	x10
    2bf4:	d5033f9f 	dsb	sy
    2bf8:	8b02014a 	add	x10, x10, x2
    2bfc:	d61f0140 	br	x10
    2c00:	d5033f9f 	dsb	sy
    2c04:	8b02014a 	add	x10, x10, x2
    2c08:	d61f0140 	br	x10
    2c0c:	d5033f9f 	dsb	sy
    2c10:	8b02014a 	add	x10, x10, x2
    2c14:	d61f0140 	br	x10
    2c18:	d5033f9f 	dsb	sy
    2c1c:	8b02014a 	add	x10, x10, x2
    2c20:	d61f0140 	br	x10
    2c24:	d5033f9f 	dsb	sy
    2c28:	8b02014a 	add	x10, x10, x2
    2c2c:	d61f0140 	br	x10
    2c30:	d5033f9f 	dsb	sy
    2c34:	8b02014a 	add	x10, x10, x2
    2c38:	d61f0140 	br	x10
    2c3c:	d5033f9f 	dsb	sy
    2c40:	8b02014a 	add	x10, x10, x2
    2c44:	d61f0140 	br	x10
    2c48:	d5033f9f 	dsb	sy
    2c4c:	8b02014a 	add	x10, x10, x2
    2c50:	d61f0140 	br	x10
    2c54:	d5033f9f 	dsb	sy
    2c58:	8b02014a 	add	x10, x10, x2
    2c5c:	d61f0140 	br	x10
    2c60:	d5033f9f 	dsb	sy
    2c64:	8b02014a 	add	x10, x10, x2
    2c68:	d61f0140 	br	x10
    2c6c:	d5033f9f 	dsb	sy
    2c70:	8b02014a 	add	x10, x10, x2
    2c74:	d61f0140 	br	x10
    2c78:	d5033f9f 	dsb	sy
    2c7c:	8b02014a 	add	x10, x10, x2
    2c80:	d61f0140 	br	x10
    2c84:	d5033f9f 	dsb	sy
    2c88:	8b02014a 	add	x10, x10, x2
    2c8c:	d61f0140 	br	x10
    2c90:	d5033f9f 	dsb	sy
    2c94:	8b02014a 	add	x10, x10, x2
    2c98:	d61f0140 	br	x10
    2c9c:	d5033f9f 	dsb	sy
    2ca0:	8b02014a 	add	x10, x10, x2
    2ca4:	d61f0140 	br	x10
    2ca8:	d5033f9f 	dsb	sy
    2cac:	8b02014a 	add	x10, x10, x2
    2cb0:	d61f0140 	br	x10
    2cb4:	d5033f9f 	dsb	sy
    2cb8:	8b02014a 	add	x10, x10, x2
    2cbc:	d61f0140 	br	x10
    2cc0:	d5033f9f 	dsb	sy
    2cc4:	8b02014a 	add	x10, x10, x2
    2cc8:	d61f0140 	br	x10
    2ccc:	d5033f9f 	dsb	sy
    2cd0:	8b02014a 	add	x10, x10, x2
    2cd4:	d61f0140 	br	x10
    2cd8:	d5033f9f 	dsb	sy
    2cdc:	8b02014a 	add	x10, x10, x2
    2ce0:	d61f0140 	br	x10
    2ce4:	d5033f9f 	dsb	sy
    2ce8:	8b02014a 	add	x10, x10, x2
    2cec:	d61f0140 	br	x10
    2cf0:	d5033f9f 	dsb	sy
    2cf4:	8b02014a 	add	x10, x10, x2
    2cf8:	d61f0140 	br	x10
    2cfc:	d5033f9f 	dsb	sy
    2d00:	8b02014a 	add	x10, x10, x2
    2d04:	d61f0140 	br	x10
    2d08:	d5033f9f 	dsb	sy
    2d0c:	8b02014a 	add	x10, x10, x2
    2d10:	d61f0140 	br	x10
    2d14:	d5033f9f 	dsb	sy
    2d18:	8b02014a 	add	x10, x10, x2
    2d1c:	d61f0140 	br	x10
    2d20:	d5033f9f 	dsb	sy
    2d24:	8b02014a 	add	x10, x10, x2
    2d28:	d61f0140 	br	x10
    2d2c:	d5033f9f 	dsb	sy
    2d30:	8b02014a 	add	x10, x10, x2
    2d34:	d61f0140 	br	x10
    2d38:	d5033f9f 	dsb	sy
    2d3c:	8b02014a 	add	x10, x10, x2
    2d40:	d61f0140 	br	x10
    2d44:	d5033f9f 	dsb	sy
    2d48:	8b02014a 	add	x10, x10, x2
    2d4c:	d61f0140 	br	x10
    2d50:	d5033f9f 	dsb	sy
    2d54:	8b02014a 	add	x10, x10, x2
    2d58:	d61f0140 	br	x10
    2d5c:	d5033f9f 	dsb	sy
    2d60:	8b02014a 	add	x10, x10, x2
    2d64:	d61f0140 	br	x10
    2d68:	d5033f9f 	dsb	sy
    2d6c:	8b02014a 	add	x10, x10, x2
    2d70:	d61f0140 	br	x10
    2d74:	d5033f9f 	dsb	sy
    2d78:	8b02014a 	add	x10, x10, x2
    2d7c:	d61f0140 	br	x10
    2d80:	d5033f9f 	dsb	sy
    2d84:	8b02014a 	add	x10, x10, x2
    2d88:	d61f0140 	br	x10
    2d8c:	d5033f9f 	dsb	sy
    2d90:	8b02014a 	add	x10, x10, x2
    2d94:	d61f0140 	br	x10
    2d98:	d5033f9f 	dsb	sy
    2d9c:	8b02014a 	add	x10, x10, x2
    2da0:	d61f0140 	br	x10
    2da4:	d5033f9f 	dsb	sy
    2da8:	8b02014a 	add	x10, x10, x2
    2dac:	d61f0140 	br	x10
    2db0:	d5033f9f 	dsb	sy
    2db4:	8b02014a 	add	x10, x10, x2
    2db8:	d61f0140 	br	x10
    2dbc:	d5033f9f 	dsb	sy
    2dc0:	8b02014a 	add	x10, x10, x2
    2dc4:	d61f0140 	br	x10
    2dc8:	d5033f9f 	dsb	sy
    2dcc:	8b02014a 	add	x10, x10, x2
    2dd0:	d61f0140 	br	x10
    2dd4:	d5033f9f 	dsb	sy
    2dd8:	8b02014a 	add	x10, x10, x2
    2ddc:	d61f0140 	br	x10
    2de0:	d5033f9f 	dsb	sy
    2de4:	8b02014a 	add	x10, x10, x2
    2de8:	d61f0140 	br	x10
    2dec:	d5033f9f 	dsb	sy
    2df0:	8b02014a 	add	x10, x10, x2
    2df4:	d61f0140 	br	x10
    2df8:	d5033f9f 	dsb	sy
    2dfc:	8b02014a 	add	x10, x10, x2
    2e00:	d61f0140 	br	x10
    2e04:	d5033f9f 	dsb	sy
    2e08:	8b02014a 	add	x10, x10, x2
    2e0c:	d61f0140 	br	x10
    2e10:	d5033f9f 	dsb	sy
    2e14:	8b02014a 	add	x10, x10, x2
    2e18:	d61f0140 	br	x10
    2e1c:	d5033f9f 	dsb	sy
    2e20:	8b02014a 	add	x10, x10, x2
    2e24:	d61f0140 	br	x10
    2e28:	d5033f9f 	dsb	sy
    2e2c:	8b02014a 	add	x10, x10, x2
    2e30:	d61f0140 	br	x10
    2e34:	d5033f9f 	dsb	sy
    2e38:	8b02014a 	add	x10, x10, x2
    2e3c:	d61f0140 	br	x10
    2e40:	d5033f9f 	dsb	sy
    2e44:	8b02014a 	add	x10, x10, x2
    2e48:	d61f0140 	br	x10
    2e4c:	d5033f9f 	dsb	sy
    2e50:	8b02014a 	add	x10, x10, x2
    2e54:	d61f0140 	br	x10
    2e58:	d5033f9f 	dsb	sy
    2e5c:	8b02014a 	add	x10, x10, x2
    2e60:	d61f0140 	br	x10
    2e64:	d5033f9f 	dsb	sy
    2e68:	8b02014a 	add	x10, x10, x2
    2e6c:	d61f0140 	br	x10
    2e70:	d5033f9f 	dsb	sy
    2e74:	8b02014a 	add	x10, x10, x2
    2e78:	d61f0140 	br	x10
    2e7c:	d5033f9f 	dsb	sy
    2e80:	8b02014a 	add	x10, x10, x2
    2e84:	d61f0140 	br	x10
    2e88:	d5033f9f 	dsb	sy
    2e8c:	8b02014a 	add	x10, x10, x2
    2e90:	d61f0140 	br	x10
    2e94:	d5033f9f 	dsb	sy
    2e98:	8b02014a 	add	x10, x10, x2
    2e9c:	d61f0140 	br	x10
    2ea0:	d5033f9f 	dsb	sy
    2ea4:	8b02014a 	add	x10, x10, x2
    2ea8:	d61f0140 	br	x10
    2eac:	d5033f9f 	dsb	sy
    2eb0:	8b02014a 	add	x10, x10, x2
    2eb4:	d61f0140 	br	x10
    2eb8:	d5033f9f 	dsb	sy
    2ebc:	8b02014a 	add	x10, x10, x2
    2ec0:	d61f0140 	br	x10
    2ec4:	d5033f9f 	dsb	sy
    2ec8:	8b02014a 	add	x10, x10, x2
    2ecc:	d61f0140 	br	x10
    2ed0:	d5033f9f 	dsb	sy
    2ed4:	8b02014a 	add	x10, x10, x2
    2ed8:	d61f0140 	br	x10
    2edc:	d5033f9f 	dsb	sy
    2ee0:	8b02014a 	add	x10, x10, x2
    2ee4:	d61f0140 	br	x10
    2ee8:	d5033f9f 	dsb	sy
    2eec:	8b02014a 	add	x10, x10, x2
    2ef0:	d61f0140 	br	x10
    2ef4:	d5033f9f 	dsb	sy
    2ef8:	8b02014a 	add	x10, x10, x2
    2efc:	d61f0140 	br	x10
    2f00:	d5033f9f 	dsb	sy
    2f04:	8b02014a 	add	x10, x10, x2
    2f08:	d61f0140 	br	x10
    2f0c:	d5033f9f 	dsb	sy
    2f10:	8b02014a 	add	x10, x10, x2
    2f14:	d61f0140 	br	x10
    2f18:	d5033f9f 	dsb	sy
    2f1c:	8b02014a 	add	x10, x10, x2
    2f20:	d61f0140 	br	x10
    2f24:	d5033f9f 	dsb	sy
    2f28:	8b02014a 	add	x10, x10, x2
    2f2c:	d61f0140 	br	x10
    2f30:	d5033f9f 	dsb	sy
    2f34:	8b02014a 	add	x10, x10, x2
    2f38:	d61f0140 	br	x10
    2f3c:	d5033f9f 	dsb	sy
    2f40:	8b02014a 	add	x10, x10, x2
    2f44:	d61f0140 	br	x10
    2f48:	d5033f9f 	dsb	sy
    2f4c:	8b02014a 	add	x10, x10, x2
    2f50:	d61f0140 	br	x10
    2f54:	d5033f9f 	dsb	sy
    2f58:	8b02014a 	add	x10, x10, x2
    2f5c:	d61f0140 	br	x10
    2f60:	d5033f9f 	dsb	sy
    2f64:	8b02014a 	add	x10, x10, x2
    2f68:	d61f0140 	br	x10
    2f6c:	d5033f9f 	dsb	sy
    2f70:	8b02014a 	add	x10, x10, x2
    2f74:	d61f0140 	br	x10
    2f78:	d5033f9f 	dsb	sy
    2f7c:	8b02014a 	add	x10, x10, x2
    2f80:	d61f0140 	br	x10
    2f84:	d5033f9f 	dsb	sy
    2f88:	8b02014a 	add	x10, x10, x2
    2f8c:	d61f0140 	br	x10
    2f90:	d5033f9f 	dsb	sy
    2f94:	8b02014a 	add	x10, x10, x2
    2f98:	d61f0140 	br	x10
    2f9c:	d5033f9f 	dsb	sy
    2fa0:	8b02014a 	add	x10, x10, x2
    2fa4:	d61f0140 	br	x10
    2fa8:	d5033f9f 	dsb	sy
    2fac:	8b02014a 	add	x10, x10, x2
    2fb0:	d61f0140 	br	x10
    2fb4:	d5033f9f 	dsb	sy
    2fb8:	8b02014a 	add	x10, x10, x2
    2fbc:	d61f0140 	br	x10
    2fc0:	d5033f9f 	dsb	sy
    2fc4:	8b02014a 	add	x10, x10, x2
    2fc8:	d61f0140 	br	x10
    2fcc:	d5033f9f 	dsb	sy
    2fd0:	8b02014a 	add	x10, x10, x2
    2fd4:	d61f0140 	br	x10
    2fd8:	d5033f9f 	dsb	sy
    2fdc:	8b02014a 	add	x10, x10, x2
    2fe0:	d61f0140 	br	x10
    2fe4:	d5033f9f 	dsb	sy
    2fe8:	8b02014a 	add	x10, x10, x2
    2fec:	d61f0140 	br	x10
    2ff0:	d5033f9f 	dsb	sy
    2ff4:	8b02014a 	add	x10, x10, x2
    2ff8:	d61f0140 	br	x10
    2ffc:	d5033f9f 	dsb	sy
    3000:	8b02014a 	add	x10, x10, x2
    3004:	d61f0140 	br	x10
    3008:	d5033f9f 	dsb	sy
    300c:	8b02014a 	add	x10, x10, x2
    3010:	d61f0140 	br	x10
    3014:	d5033f9f 	dsb	sy
    3018:	8b02014a 	add	x10, x10, x2
    301c:	d61f0140 	br	x10
    3020:	d5033f9f 	dsb	sy
    3024:	8b02014a 	add	x10, x10, x2
    3028:	d61f0140 	br	x10
    302c:	d5033f9f 	dsb	sy
    3030:	8b02014a 	add	x10, x10, x2
    3034:	d61f0140 	br	x10
    3038:	d5033f9f 	dsb	sy
    303c:	8b02014a 	add	x10, x10, x2
    3040:	d61f0140 	br	x10
    3044:	d5033f9f 	dsb	sy
    3048:	8b02014a 	add	x10, x10, x2
    304c:	d61f0140 	br	x10
    3050:	d5033f9f 	dsb	sy
    3054:	8b02014a 	add	x10, x10, x2
    3058:	d61f0140 	br	x10
    305c:	d5033f9f 	dsb	sy
    3060:	8b02014a 	add	x10, x10, x2
    3064:	d61f0140 	br	x10
    3068:	d5033f9f 	dsb	sy
    306c:	8b02014a 	add	x10, x10, x2
    3070:	d61f0140 	br	x10
    3074:	d5033f9f 	dsb	sy
    3078:	8b02014a 	add	x10, x10, x2
    307c:	d61f0140 	br	x10
    3080:	d5033f9f 	dsb	sy
    3084:	8b02014a 	add	x10, x10, x2
    3088:	d61f0140 	br	x10
    308c:	d5033f9f 	dsb	sy
    3090:	8b02014a 	add	x10, x10, x2
    3094:	d61f0140 	br	x10
    3098:	d5033f9f 	dsb	sy
    309c:	8b02014a 	add	x10, x10, x2
    30a0:	d61f0140 	br	x10
    30a4:	d5033f9f 	dsb	sy
    30a8:	8b02014a 	add	x10, x10, x2
    30ac:	d61f0140 	br	x10
    30b0:	d5033f9f 	dsb	sy
    30b4:	8b02014a 	add	x10, x10, x2
    30b8:	d61f0140 	br	x10
    30bc:	d5033f9f 	dsb	sy
    30c0:	8b02014a 	add	x10, x10, x2
    30c4:	d61f0140 	br	x10
    30c8:	d5033f9f 	dsb	sy
    30cc:	8b02014a 	add	x10, x10, x2
    30d0:	d61f0140 	br	x10
    30d4:	d5033f9f 	dsb	sy
    30d8:	8b02014a 	add	x10, x10, x2
    30dc:	d61f0140 	br	x10
    30e0:	d5033f9f 	dsb	sy
    30e4:	8b02014a 	add	x10, x10, x2
    30e8:	d61f0140 	br	x10
    30ec:	d5033f9f 	dsb	sy
    30f0:	8b02014a 	add	x10, x10, x2
    30f4:	d61f0140 	br	x10
    30f8:	d5033f9f 	dsb	sy
    30fc:	8b02014a 	add	x10, x10, x2
    3100:	d61f0140 	br	x10
    3104:	d5033f9f 	dsb	sy
    3108:	8b02014a 	add	x10, x10, x2
    310c:	d61f0140 	br	x10
    3110:	d5033f9f 	dsb	sy
    3114:	8b02014a 	add	x10, x10, x2
    3118:	d61f0140 	br	x10
    311c:	d5033f9f 	dsb	sy
    3120:	8b02014a 	add	x10, x10, x2
    3124:	d61f0140 	br	x10
    3128:	d5033f9f 	dsb	sy
    312c:	8b02014a 	add	x10, x10, x2
    3130:	d61f0140 	br	x10
    3134:	d5033f9f 	dsb	sy
    3138:	8b02014a 	add	x10, x10, x2
    313c:	d61f0140 	br	x10
    3140:	d5033f9f 	dsb	sy
    3144:	8b02014a 	add	x10, x10, x2
    3148:	d61f0140 	br	x10
    314c:	d5033f9f 	dsb	sy
    3150:	8b02014a 	add	x10, x10, x2
    3154:	d61f0140 	br	x10
    3158:	d5033f9f 	dsb	sy
    315c:	8b02014a 	add	x10, x10, x2
    3160:	d61f0140 	br	x10
    3164:	d5033f9f 	dsb	sy
    3168:	8b02014a 	add	x10, x10, x2
    316c:	d61f0140 	br	x10
    3170:	d5033f9f 	dsb	sy
    3174:	8b02014a 	add	x10, x10, x2
    3178:	d61f0140 	br	x10
    317c:	d5033f9f 	dsb	sy
    3180:	8b02014a 	add	x10, x10, x2
    3184:	d61f0140 	br	x10
    3188:	d5033f9f 	dsb	sy
    318c:	8b02014a 	add	x10, x10, x2
    3190:	d61f0140 	br	x10
    3194:	d5033f9f 	dsb	sy
    3198:	8b02014a 	add	x10, x10, x2
    319c:	d61f0140 	br	x10
    31a0:	d5033f9f 	dsb	sy
    31a4:	8b02014a 	add	x10, x10, x2
    31a8:	d61f0140 	br	x10
    31ac:	d5033f9f 	dsb	sy
    31b0:	8b02014a 	add	x10, x10, x2
    31b4:	d61f0140 	br	x10
    31b8:	d5033f9f 	dsb	sy
    31bc:	8b02014a 	add	x10, x10, x2
    31c0:	d61f0140 	br	x10
    31c4:	d5033f9f 	dsb	sy
    31c8:	8b02014a 	add	x10, x10, x2
    31cc:	d61f0140 	br	x10
    31d0:	d5033f9f 	dsb	sy
    31d4:	8b02014a 	add	x10, x10, x2
    31d8:	d61f0140 	br	x10
    31dc:	d5033f9f 	dsb	sy
    31e0:	8b02014a 	add	x10, x10, x2
    31e4:	d61f0140 	br	x10
    31e8:	d5033f9f 	dsb	sy
    31ec:	8b02014a 	add	x10, x10, x2
    31f0:	d61f0140 	br	x10
    31f4:	d5033f9f 	dsb	sy
    31f8:	8b02014a 	add	x10, x10, x2
    31fc:	d61f0140 	br	x10
    3200:	d5033f9f 	dsb	sy
    3204:	8b02014a 	add	x10, x10, x2
    3208:	d61f0140 	br	x10
    320c:	d5033f9f 	dsb	sy
    3210:	8b02014a 	add	x10, x10, x2
    3214:	d61f0140 	br	x10
    3218:	d5033f9f 	dsb	sy
    321c:	8b02014a 	add	x10, x10, x2
    3220:	d61f0140 	br	x10
    3224:	d5033f9f 	dsb	sy
    3228:	8b02014a 	add	x10, x10, x2
    322c:	d61f0140 	br	x10
    3230:	d5033f9f 	dsb	sy
    3234:	8b02014a 	add	x10, x10, x2
    3238:	d61f0140 	br	x10
    323c:	d5033f9f 	dsb	sy
    3240:	8b02014a 	add	x10, x10, x2
    3244:	d61f0140 	br	x10
    3248:	d5033f9f 	dsb	sy
    324c:	8b02014a 	add	x10, x10, x2
    3250:	d61f0140 	br	x10
    3254:	d5033f9f 	dsb	sy
    3258:	8b02014a 	add	x10, x10, x2
    325c:	d61f0140 	br	x10
    3260:	d5033f9f 	dsb	sy
    3264:	8b02014a 	add	x10, x10, x2
    3268:	d61f0140 	br	x10
    326c:	d5033f9f 	dsb	sy
    3270:	8b02014a 	add	x10, x10, x2
    3274:	d61f0140 	br	x10
    3278:	d5033f9f 	dsb	sy
    327c:	8b02014a 	add	x10, x10, x2
    3280:	d61f0140 	br	x10
    3284:	d5033f9f 	dsb	sy
    3288:	8b02014a 	add	x10, x10, x2
    328c:	d61f0140 	br	x10
    3290:	d5033f9f 	dsb	sy
    3294:	8b02014a 	add	x10, x10, x2
    3298:	d61f0140 	br	x10
    329c:	d5033f9f 	dsb	sy
    32a0:	8b02014a 	add	x10, x10, x2
    32a4:	d61f0140 	br	x10
    32a8:	d5033f9f 	dsb	sy
    32ac:	8b02014a 	add	x10, x10, x2
    32b0:	d61f0140 	br	x10
    32b4:	d5033f9f 	dsb	sy
    32b8:	8b02014a 	add	x10, x10, x2
    32bc:	d61f0140 	br	x10
    32c0:	d5033f9f 	dsb	sy
    32c4:	8b02014a 	add	x10, x10, x2
    32c8:	d61f0140 	br	x10
    32cc:	d5033f9f 	dsb	sy
    32d0:	8b02014a 	add	x10, x10, x2
    32d4:	d61f0140 	br	x10
    32d8:	d5033f9f 	dsb	sy
    32dc:	8b02014a 	add	x10, x10, x2
    32e0:	d61f0140 	br	x10
    32e4:	d5033f9f 	dsb	sy
    32e8:	8b02014a 	add	x10, x10, x2
    32ec:	d61f0140 	br	x10
    32f0:	d5033f9f 	dsb	sy
    32f4:	8b02014a 	add	x10, x10, x2
    32f8:	d61f0140 	br	x10
    32fc:	d5033f9f 	dsb	sy
    3300:	8b02014a 	add	x10, x10, x2
    3304:	d61f0140 	br	x10
    3308:	d5033f9f 	dsb	sy
    330c:	8b02014a 	add	x10, x10, x2
    3310:	d61f0140 	br	x10
    3314:	d5033f9f 	dsb	sy
    3318:	8b02014a 	add	x10, x10, x2
    331c:	d61f0140 	br	x10
    3320:	d5033f9f 	dsb	sy
    3324:	8b02014a 	add	x10, x10, x2
    3328:	d61f0140 	br	x10
    332c:	d5033f9f 	dsb	sy
    3330:	8b02014a 	add	x10, x10, x2
    3334:	d61f0140 	br	x10
    3338:	d5033f9f 	dsb	sy
    333c:	8b02014a 	add	x10, x10, x2
    3340:	d61f0140 	br	x10
    3344:	d5033f9f 	dsb	sy
    3348:	8b02014a 	add	x10, x10, x2
    334c:	d61f0140 	br	x10
    3350:	d5033f9f 	dsb	sy
    3354:	8b02014a 	add	x10, x10, x2
    3358:	d61f0140 	br	x10
    335c:	d5033f9f 	dsb	sy
    3360:	8b02014a 	add	x10, x10, x2
    3364:	d61f0140 	br	x10
    3368:	d5033f9f 	dsb	sy
    336c:	8b02014a 	add	x10, x10, x2
    3370:	d61f0140 	br	x10
    3374:	d5033f9f 	dsb	sy
    3378:	8b02014a 	add	x10, x10, x2
    337c:	d61f0140 	br	x10
    3380:	d5033f9f 	dsb	sy
    3384:	8b02014a 	add	x10, x10, x2
    3388:	d61f0140 	br	x10
    338c:	d5033f9f 	dsb	sy
    3390:	8b02014a 	add	x10, x10, x2
    3394:	d61f0140 	br	x10
    3398:	d5033f9f 	dsb	sy
    339c:	8b02014a 	add	x10, x10, x2
    33a0:	d61f0140 	br	x10
    33a4:	d5033f9f 	dsb	sy
    33a8:	8b02014a 	add	x10, x10, x2
    33ac:	d61f0140 	br	x10
    33b0:	d5033f9f 	dsb	sy
    33b4:	8b02014a 	add	x10, x10, x2
    33b8:	d61f0140 	br	x10
    33bc:	d5033f9f 	dsb	sy
    33c0:	8b02014a 	add	x10, x10, x2
    33c4:	d61f0140 	br	x10
    33c8:	d5033f9f 	dsb	sy
    33cc:	8b02014a 	add	x10, x10, x2
    33d0:	d61f0140 	br	x10
    33d4:	d5033f9f 	dsb	sy
    33d8:	8b02014a 	add	x10, x10, x2
    33dc:	d61f0140 	br	x10
    33e0:	d5033f9f 	dsb	sy
    33e4:	8b02014a 	add	x10, x10, x2
    33e8:	d61f0140 	br	x10
    33ec:	d5033f9f 	dsb	sy
    33f0:	8b02014a 	add	x10, x10, x2
    33f4:	d61f0140 	br	x10
    33f8:	d5033f9f 	dsb	sy
    33fc:	8b02014a 	add	x10, x10, x2
    3400:	d61f0140 	br	x10
    3404:	d5033f9f 	dsb	sy
    3408:	8b02014a 	add	x10, x10, x2
    340c:	d61f0140 	br	x10
    3410:	d5033f9f 	dsb	sy
    3414:	8b02014a 	add	x10, x10, x2
    3418:	d61f0140 	br	x10
    341c:	d5033f9f 	dsb	sy
    3420:	8b02014a 	add	x10, x10, x2
    3424:	d61f0140 	br	x10
    3428:	d5033f9f 	dsb	sy
    342c:	8b02014a 	add	x10, x10, x2
    3430:	d61f0140 	br	x10
    3434:	d5033f9f 	dsb	sy
    3438:	8b02014a 	add	x10, x10, x2
    343c:	d61f0140 	br	x10
    3440:	d5033f9f 	dsb	sy
    3444:	8b02014a 	add	x10, x10, x2
    3448:	d61f0140 	br	x10
    344c:	d5033f9f 	dsb	sy
    3450:	8b02014a 	add	x10, x10, x2
    3454:	d61f0140 	br	x10
    3458:	d5033f9f 	dsb	sy
    345c:	8b02014a 	add	x10, x10, x2
    3460:	d61f0140 	br	x10
    3464:	d5033f9f 	dsb	sy
    3468:	8b02014a 	add	x10, x10, x2
    346c:	d61f0140 	br	x10
    3470:	d5033f9f 	dsb	sy
    3474:	8b02014a 	add	x10, x10, x2
    3478:	d61f0140 	br	x10
    347c:	d5033f9f 	dsb	sy
    3480:	8b02014a 	add	x10, x10, x2
    3484:	d61f0140 	br	x10
    3488:	d5033f9f 	dsb	sy
    348c:	8b02014a 	add	x10, x10, x2
    3490:	d61f0140 	br	x10
    3494:	d5033f9f 	dsb	sy
    3498:	8b02014a 	add	x10, x10, x2
    349c:	d61f0140 	br	x10
    34a0:	d5033f9f 	dsb	sy
    34a4:	8b02014a 	add	x10, x10, x2
    34a8:	d61f0140 	br	x10
    34ac:	d5033f9f 	dsb	sy
    34b0:	8b02014a 	add	x10, x10, x2
    34b4:	d61f0140 	br	x10
    34b8:	d5033f9f 	dsb	sy
    34bc:	8b02014a 	add	x10, x10, x2
    34c0:	d61f0140 	br	x10
    34c4:	d5033f9f 	dsb	sy
    34c8:	8b02014a 	add	x10, x10, x2
    34cc:	d61f0140 	br	x10
    34d0:	d5033f9f 	dsb	sy
    34d4:	8b02014a 	add	x10, x10, x2
    34d8:	d61f0140 	br	x10
    34dc:	d5033f9f 	dsb	sy
    34e0:	8b02014a 	add	x10, x10, x2
    34e4:	d61f0140 	br	x10
    34e8:	d5033f9f 	dsb	sy
    34ec:	8b02014a 	add	x10, x10, x2
    34f0:	d61f0140 	br	x10
    34f4:	d5033f9f 	dsb	sy
    34f8:	8b02014a 	add	x10, x10, x2
    34fc:	d61f0140 	br	x10
    3500:	d5033f9f 	dsb	sy
    3504:	8b02014a 	add	x10, x10, x2
    3508:	d61f0140 	br	x10
    350c:	d5033f9f 	dsb	sy
    3510:	8b02014a 	add	x10, x10, x2
    3514:	d61f0140 	br	x10
    3518:	d5033f9f 	dsb	sy
    351c:	8b02014a 	add	x10, x10, x2
    3520:	d61f0140 	br	x10
    3524:	d5033f9f 	dsb	sy
    3528:	8b02014a 	add	x10, x10, x2
    352c:	d61f0140 	br	x10
    3530:	d5033f9f 	dsb	sy
    3534:	8b02014a 	add	x10, x10, x2
    3538:	d61f0140 	br	x10
    353c:	d5033f9f 	dsb	sy
    3540:	8b02014a 	add	x10, x10, x2
    3544:	d61f0140 	br	x10
    3548:	d5033f9f 	dsb	sy
    354c:	8b02014a 	add	x10, x10, x2
    3550:	d61f0140 	br	x10
    3554:	d5033f9f 	dsb	sy
    3558:	8b02014a 	add	x10, x10, x2
    355c:	d61f0140 	br	x10
    3560:	d5033f9f 	dsb	sy
    3564:	8b02014a 	add	x10, x10, x2
    3568:	d61f0140 	br	x10
    356c:	d5033f9f 	dsb	sy
    3570:	8b02014a 	add	x10, x10, x2
    3574:	d61f0140 	br	x10
    3578:	d5033f9f 	dsb	sy
    357c:	8b02014a 	add	x10, x10, x2
    3580:	d61f0140 	br	x10
    3584:	d5033f9f 	dsb	sy
    3588:	8b02014a 	add	x10, x10, x2
    358c:	d61f0140 	br	x10
    3590:	d5033f9f 	dsb	sy
    3594:	8b02014a 	add	x10, x10, x2
    3598:	d61f0140 	br	x10
    359c:	d5033f9f 	dsb	sy
    35a0:	8b02014a 	add	x10, x10, x2
    35a4:	d61f0140 	br	x10
    35a8:	d5033f9f 	dsb	sy
    35ac:	8b02014a 	add	x10, x10, x2
    35b0:	d61f0140 	br	x10
    35b4:	d5033f9f 	dsb	sy
    35b8:	8b02014a 	add	x10, x10, x2
    35bc:	d61f0140 	br	x10
    35c0:	d5033f9f 	dsb	sy
    35c4:	8b02014a 	add	x10, x10, x2
    35c8:	d61f0140 	br	x10
    35cc:	d5033f9f 	dsb	sy
    35d0:	8b02014a 	add	x10, x10, x2
    35d4:	d61f0140 	br	x10
    35d8:	d5033f9f 	dsb	sy
    35dc:	8b02014a 	add	x10, x10, x2
    35e0:	d61f0140 	br	x10
    35e4:	d5033f9f 	dsb	sy
    35e8:	8b02014a 	add	x10, x10, x2
    35ec:	d61f0140 	br	x10
    35f0:	d5033f9f 	dsb	sy
    35f4:	8b02014a 	add	x10, x10, x2
    35f8:	d61f0140 	br	x10
    35fc:	d5033f9f 	dsb	sy
    3600:	8b02014a 	add	x10, x10, x2
    3604:	d61f0140 	br	x10
    3608:	d5033f9f 	dsb	sy
    360c:	8b02014a 	add	x10, x10, x2
    3610:	d61f0140 	br	x10
    3614:	d5033f9f 	dsb	sy
    3618:	8b02014a 	add	x10, x10, x2
    361c:	d61f0140 	br	x10
    3620:	d5033f9f 	dsb	sy
    3624:	8b02014a 	add	x10, x10, x2
    3628:	d61f0140 	br	x10
    362c:	d5033f9f 	dsb	sy
    3630:	8b02014a 	add	x10, x10, x2
    3634:	d61f0140 	br	x10
    3638:	d5033f9f 	dsb	sy
    363c:	8b02014a 	add	x10, x10, x2
    3640:	d61f0140 	br	x10
    3644:	d5033f9f 	dsb	sy
    3648:	8b02014a 	add	x10, x10, x2
    364c:	d61f0140 	br	x10
    3650:	d5033f9f 	dsb	sy
    3654:	8b02014a 	add	x10, x10, x2
    3658:	d61f0140 	br	x10
    365c:	d5033f9f 	dsb	sy
    3660:	8b02014a 	add	x10, x10, x2
    3664:	d61f0140 	br	x10
    3668:	d5033f9f 	dsb	sy
    366c:	8b02014a 	add	x10, x10, x2
    3670:	d61f0140 	br	x10
    3674:	d5033f9f 	dsb	sy
    3678:	8b02014a 	add	x10, x10, x2
    367c:	d61f0140 	br	x10
    3680:	d5033f9f 	dsb	sy
    3684:	8b02014a 	add	x10, x10, x2
    3688:	d61f0140 	br	x10
    368c:	d5033f9f 	dsb	sy
    3690:	8b02014a 	add	x10, x10, x2
    3694:	d61f0140 	br	x10
    3698:	d5033f9f 	dsb	sy
    369c:	8b02014a 	add	x10, x10, x2
    36a0:	d61f0140 	br	x10
    36a4:	d5033f9f 	dsb	sy
    36a8:	8b02014a 	add	x10, x10, x2
    36ac:	d61f0140 	br	x10
    36b0:	d5033f9f 	dsb	sy
    36b4:	8b02014a 	add	x10, x10, x2
    36b8:	d61f0140 	br	x10
    36bc:	d5033f9f 	dsb	sy
    36c0:	8b02014a 	add	x10, x10, x2
    36c4:	d61f0140 	br	x10
    36c8:	d5033f9f 	dsb	sy
    36cc:	8b02014a 	add	x10, x10, x2
    36d0:	d61f0140 	br	x10
    36d4:	d5033f9f 	dsb	sy
    36d8:	8b02014a 	add	x10, x10, x2
    36dc:	d61f0140 	br	x10
    36e0:	d5033f9f 	dsb	sy
    36e4:	8b02014a 	add	x10, x10, x2
    36e8:	d61f0140 	br	x10
    36ec:	d5033f9f 	dsb	sy
    36f0:	8b02014a 	add	x10, x10, x2
    36f4:	d61f0140 	br	x10
    36f8:	d5033f9f 	dsb	sy
    36fc:	8b02014a 	add	x10, x10, x2
    3700:	d61f0140 	br	x10
    3704:	d5033f9f 	dsb	sy
    3708:	8b02014a 	add	x10, x10, x2
    370c:	d61f0140 	br	x10
    3710:	d5033f9f 	dsb	sy
    3714:	8b02014a 	add	x10, x10, x2
    3718:	d61f0140 	br	x10
    371c:	d5033f9f 	dsb	sy
    3720:	8b02014a 	add	x10, x10, x2
    3724:	d61f0140 	br	x10
    3728:	d5033f9f 	dsb	sy
    372c:	8b02014a 	add	x10, x10, x2
    3730:	d61f0140 	br	x10
    3734:	d5033f9f 	dsb	sy
    3738:	8b02014a 	add	x10, x10, x2
    373c:	d61f0140 	br	x10
    3740:	d5033f9f 	dsb	sy
    3744:	8b02014a 	add	x10, x10, x2
    3748:	d61f0140 	br	x10
    374c:	d5033f9f 	dsb	sy
    3750:	8b02014a 	add	x10, x10, x2
    3754:	d61f0140 	br	x10
    3758:	d5033f9f 	dsb	sy
    375c:	8b02014a 	add	x10, x10, x2
    3760:	d61f0140 	br	x10
    3764:	d5033f9f 	dsb	sy
    3768:	8b02014a 	add	x10, x10, x2
    376c:	d61f0140 	br	x10
    3770:	d5033f9f 	dsb	sy
    3774:	8b02014a 	add	x10, x10, x2
    3778:	d61f0140 	br	x10
    377c:	d5033f9f 	dsb	sy
    3780:	8b02014a 	add	x10, x10, x2
    3784:	d61f0140 	br	x10
    3788:	d5033f9f 	dsb	sy
    378c:	8b02014a 	add	x10, x10, x2
    3790:	d61f0140 	br	x10
    3794:	d5033f9f 	dsb	sy
    3798:	8b02014a 	add	x10, x10, x2
    379c:	d61f0140 	br	x10
    37a0:	d5033f9f 	dsb	sy
    37a4:	8b02014a 	add	x10, x10, x2
    37a8:	d61f0140 	br	x10
    37ac:	d5033f9f 	dsb	sy
    37b0:	8b02014a 	add	x10, x10, x2
    37b4:	d61f0140 	br	x10
    37b8:	d5033f9f 	dsb	sy
    37bc:	8b02014a 	add	x10, x10, x2
    37c0:	d61f0140 	br	x10
    37c4:	d5033f9f 	dsb	sy
    37c8:	8b02014a 	add	x10, x10, x2
    37cc:	d61f0140 	br	x10
    37d0:	d5033f9f 	dsb	sy
    37d4:	8b02014a 	add	x10, x10, x2
    37d8:	d61f0140 	br	x10
    37dc:	d5033f9f 	dsb	sy
    37e0:	8b02014a 	add	x10, x10, x2
    37e4:	d61f0140 	br	x10
    37e8:	d5033f9f 	dsb	sy
    37ec:	8b02014a 	add	x10, x10, x2
    37f0:	d61f0140 	br	x10
    37f4:	d5033f9f 	dsb	sy
    37f8:	8b02014a 	add	x10, x10, x2
    37fc:	d61f0140 	br	x10
    3800:	d5033f9f 	dsb	sy
    3804:	8b02014a 	add	x10, x10, x2
    3808:	d61f0140 	br	x10
    380c:	d5033f9f 	dsb	sy
    3810:	8b02014a 	add	x10, x10, x2
    3814:	d61f0140 	br	x10
    3818:	d5033f9f 	dsb	sy
    381c:	8b02014a 	add	x10, x10, x2
    3820:	d61f0140 	br	x10
    3824:	d5033f9f 	dsb	sy
    3828:	8b02014a 	add	x10, x10, x2
    382c:	d61f0140 	br	x10
    3830:	d5033f9f 	dsb	sy
    3834:	8b02014a 	add	x10, x10, x2
    3838:	d61f0140 	br	x10
    383c:	d5033f9f 	dsb	sy
    3840:	8b02014a 	add	x10, x10, x2
    3844:	d61f0140 	br	x10
    3848:	d5033f9f 	dsb	sy
    384c:	8b02014a 	add	x10, x10, x2
    3850:	d61f0140 	br	x10
    3854:	d5033f9f 	dsb	sy
    3858:	8b02014a 	add	x10, x10, x2
    385c:	d61f0140 	br	x10
    3860:	d5033f9f 	dsb	sy
    3864:	8b02014a 	add	x10, x10, x2
    3868:	d61f0140 	br	x10
    386c:	d5033f9f 	dsb	sy
    3870:	8b02014a 	add	x10, x10, x2
    3874:	d61f0140 	br	x10
    3878:	d5033f9f 	dsb	sy
    387c:	8b02014a 	add	x10, x10, x2
    3880:	d61f0140 	br	x10
    3884:	d5033f9f 	dsb	sy
    3888:	8b02014a 	add	x10, x10, x2
    388c:	d61f0140 	br	x10
    3890:	d5033f9f 	dsb	sy
    3894:	8b02014a 	add	x10, x10, x2
    3898:	d61f0140 	br	x10
    389c:	d5033f9f 	dsb	sy
    38a0:	8b02014a 	add	x10, x10, x2
    38a4:	d61f0140 	br	x10
    38a8:	d5033f9f 	dsb	sy
    38ac:	8b02014a 	add	x10, x10, x2
    38b0:	d61f0140 	br	x10
    38b4:	d5033f9f 	dsb	sy
    38b8:	8b02014a 	add	x10, x10, x2
    38bc:	d61f0140 	br	x10
    38c0:	d5033f9f 	dsb	sy
    38c4:	8b02014a 	add	x10, x10, x2
    38c8:	d61f0140 	br	x10
    38cc:	d5033f9f 	dsb	sy
    38d0:	8b02014a 	add	x10, x10, x2
    38d4:	d61f0140 	br	x10
    38d8:	d5033f9f 	dsb	sy
    38dc:	8b02014a 	add	x10, x10, x2
    38e0:	d61f0140 	br	x10
    38e4:	d5033f9f 	dsb	sy
    38e8:	8b02014a 	add	x10, x10, x2
    38ec:	d61f0140 	br	x10
    38f0:	d5033f9f 	dsb	sy
    38f4:	8b02014a 	add	x10, x10, x2
    38f8:	d61f0140 	br	x10
    38fc:	d5033f9f 	dsb	sy
    3900:	8b02014a 	add	x10, x10, x2
    3904:	d61f0140 	br	x10
    3908:	d5033f9f 	dsb	sy
    390c:	8b02014a 	add	x10, x10, x2
    3910:	d61f0140 	br	x10
    3914:	d5033f9f 	dsb	sy
    3918:	8b02014a 	add	x10, x10, x2
    391c:	d61f0140 	br	x10
    3920:	d5033f9f 	dsb	sy
    3924:	8b02014a 	add	x10, x10, x2
    3928:	d61f0140 	br	x10
    392c:	d5033f9f 	dsb	sy
    3930:	8b02014a 	add	x10, x10, x2
    3934:	d61f0140 	br	x10
    3938:	d5033f9f 	dsb	sy
    393c:	8b02014a 	add	x10, x10, x2
    3940:	d61f0140 	br	x10
    3944:	d5033f9f 	dsb	sy
    3948:	8b02014a 	add	x10, x10, x2
    394c:	d61f0140 	br	x10
    3950:	d5033f9f 	dsb	sy
    3954:	8b02014a 	add	x10, x10, x2
    3958:	d61f0140 	br	x10
    395c:	d5033f9f 	dsb	sy
    3960:	8b02014a 	add	x10, x10, x2
    3964:	d61f0140 	br	x10
    3968:	d5033f9f 	dsb	sy
    396c:	8b02014a 	add	x10, x10, x2
    3970:	d61f0140 	br	x10
    3974:	d5033f9f 	dsb	sy
    3978:	8b02014a 	add	x10, x10, x2
    397c:	d61f0140 	br	x10
    3980:	d5033f9f 	dsb	sy
    3984:	8b02014a 	add	x10, x10, x2
    3988:	d61f0140 	br	x10
    398c:	d5033f9f 	dsb	sy
    3990:	8b02014a 	add	x10, x10, x2
    3994:	d61f0140 	br	x10
    3998:	d5033f9f 	dsb	sy
    399c:	8b02014a 	add	x10, x10, x2
    39a0:	d61f0140 	br	x10
    39a4:	d5033f9f 	dsb	sy
    39a8:	8b02014a 	add	x10, x10, x2
    39ac:	d61f0140 	br	x10
    39b0:	d5033f9f 	dsb	sy
    39b4:	8b02014a 	add	x10, x10, x2
    39b8:	d61f0140 	br	x10
    39bc:	d5033f9f 	dsb	sy
    39c0:	8b02014a 	add	x10, x10, x2
    39c4:	d61f0140 	br	x10
    39c8:	d5033f9f 	dsb	sy
    39cc:	8b02014a 	add	x10, x10, x2
    39d0:	d61f0140 	br	x10
    39d4:	d5033f9f 	dsb	sy
    39d8:	8b02014a 	add	x10, x10, x2
    39dc:	d61f0140 	br	x10
    39e0:	d5033f9f 	dsb	sy
    39e4:	8b02014a 	add	x10, x10, x2
    39e8:	d61f0140 	br	x10
    39ec:	d5033f9f 	dsb	sy
    39f0:	8b02014a 	add	x10, x10, x2
    39f4:	d61f0140 	br	x10
    39f8:	d5033f9f 	dsb	sy
    39fc:	8b02014a 	add	x10, x10, x2
    3a00:	d61f0140 	br	x10
    3a04:	d5033f9f 	dsb	sy
    3a08:	8b02014a 	add	x10, x10, x2
    3a0c:	d61f0140 	br	x10
    3a10:	d5033f9f 	dsb	sy
    3a14:	8b02014a 	add	x10, x10, x2
    3a18:	d61f0140 	br	x10
    3a1c:	d5033f9f 	dsb	sy
    3a20:	8b02014a 	add	x10, x10, x2
    3a24:	d61f0140 	br	x10
    3a28:	d5033f9f 	dsb	sy
    3a2c:	8b02014a 	add	x10, x10, x2
    3a30:	d61f0140 	br	x10
    3a34:	d5033f9f 	dsb	sy
    3a38:	8b02014a 	add	x10, x10, x2
    3a3c:	d61f0140 	br	x10
    3a40:	d5033f9f 	dsb	sy
    3a44:	8b02014a 	add	x10, x10, x2
    3a48:	d61f0140 	br	x10
    3a4c:	d5033f9f 	dsb	sy
    3a50:	8b02014a 	add	x10, x10, x2
    3a54:	d61f0140 	br	x10
    3a58:	d5033f9f 	dsb	sy
    3a5c:	8b02014a 	add	x10, x10, x2
    3a60:	d61f0140 	br	x10
    3a64:	d5033f9f 	dsb	sy
    3a68:	8b02014a 	add	x10, x10, x2
    3a6c:	d61f0140 	br	x10
    3a70:	d5033f9f 	dsb	sy
    3a74:	8b02014a 	add	x10, x10, x2
    3a78:	d61f0140 	br	x10
    3a7c:	d5033f9f 	dsb	sy
    3a80:	8b02014a 	add	x10, x10, x2
    3a84:	d61f0140 	br	x10
    3a88:	d5033f9f 	dsb	sy
    3a8c:	8b02014a 	add	x10, x10, x2
    3a90:	d61f0140 	br	x10
    3a94:	d5033f9f 	dsb	sy
    3a98:	8b02014a 	add	x10, x10, x2
    3a9c:	d61f0140 	br	x10
    3aa0:	d5033f9f 	dsb	sy
    3aa4:	8b02014a 	add	x10, x10, x2
    3aa8:	d61f0140 	br	x10
    3aac:	d5033f9f 	dsb	sy
    3ab0:	8b02014a 	add	x10, x10, x2
    3ab4:	d61f0140 	br	x10
    3ab8:	d5033f9f 	dsb	sy
    3abc:	8b02014a 	add	x10, x10, x2
    3ac0:	d61f0140 	br	x10
    3ac4:	d5033f9f 	dsb	sy
    3ac8:	8b02014a 	add	x10, x10, x2
    3acc:	d61f0140 	br	x10
    3ad0:	d5033f9f 	dsb	sy
    3ad4:	8b02014a 	add	x10, x10, x2
    3ad8:	d61f0140 	br	x10
    3adc:	d5033f9f 	dsb	sy
    3ae0:	8b02014a 	add	x10, x10, x2
    3ae4:	d61f0140 	br	x10
    3ae8:	d5033f9f 	dsb	sy
    3aec:	8b02014a 	add	x10, x10, x2
    3af0:	d61f0140 	br	x10
    3af4:	d5033f9f 	dsb	sy
    3af8:	8b02014a 	add	x10, x10, x2
    3afc:	d61f0140 	br	x10
    3b00:	d5033f9f 	dsb	sy
    3b04:	8b02014a 	add	x10, x10, x2
    3b08:	d61f0140 	br	x10
    3b0c:	d5033f9f 	dsb	sy
    3b10:	8b02014a 	add	x10, x10, x2
    3b14:	d61f0140 	br	x10
    3b18:	d5033f9f 	dsb	sy
    3b1c:	8b02014a 	add	x10, x10, x2
    3b20:	d61f0140 	br	x10
    3b24:	d5033f9f 	dsb	sy
    3b28:	8b02014a 	add	x10, x10, x2
    3b2c:	d61f0140 	br	x10
    3b30:	d5033f9f 	dsb	sy
    3b34:	8b02014a 	add	x10, x10, x2
    3b38:	d61f0140 	br	x10
    3b3c:	d5033f9f 	dsb	sy
    3b40:	8b02014a 	add	x10, x10, x2
    3b44:	d61f0140 	br	x10
    3b48:	d5033f9f 	dsb	sy
    3b4c:	8b02014a 	add	x10, x10, x2
    3b50:	d61f0140 	br	x10
    3b54:	d5033f9f 	dsb	sy
    3b58:	8b02014a 	add	x10, x10, x2
    3b5c:	d61f0140 	br	x10
    3b60:	d5033f9f 	dsb	sy
    3b64:	8b02014a 	add	x10, x10, x2
    3b68:	d61f0140 	br	x10
    3b6c:	d5033f9f 	dsb	sy
    3b70:	8b02014a 	add	x10, x10, x2
    3b74:	d61f0140 	br	x10
    3b78:	d5033f9f 	dsb	sy
    3b7c:	8b02014a 	add	x10, x10, x2
    3b80:	d61f0140 	br	x10
    3b84:	d5033f9f 	dsb	sy
    3b88:	8b02014a 	add	x10, x10, x2
    3b8c:	d61f0140 	br	x10
    3b90:	d5033f9f 	dsb	sy
    3b94:	8b02014a 	add	x10, x10, x2
    3b98:	d61f0140 	br	x10
    3b9c:	d5033f9f 	dsb	sy
    3ba0:	8b02014a 	add	x10, x10, x2
    3ba4:	d61f0140 	br	x10
    3ba8:	d5033f9f 	dsb	sy
    3bac:	8b02014a 	add	x10, x10, x2
    3bb0:	d61f0140 	br	x10
    3bb4:	d5033f9f 	dsb	sy
    3bb8:	8b02014a 	add	x10, x10, x2
    3bbc:	d61f0140 	br	x10
    3bc0:	d5033f9f 	dsb	sy
    3bc4:	8b02014a 	add	x10, x10, x2
    3bc8:	d61f0140 	br	x10
    3bcc:	d5033f9f 	dsb	sy
    3bd0:	8b02014a 	add	x10, x10, x2
    3bd4:	d61f0140 	br	x10
    3bd8:	d5033f9f 	dsb	sy
    3bdc:	8b02014a 	add	x10, x10, x2
    3be0:	d61f0140 	br	x10
    3be4:	d5033f9f 	dsb	sy
    3be8:	8b02014a 	add	x10, x10, x2
    3bec:	d61f0140 	br	x10
    3bf0:	d5033f9f 	dsb	sy
    3bf4:	8b02014a 	add	x10, x10, x2
    3bf8:	d61f0140 	br	x10
    3bfc:	d5033f9f 	dsb	sy
    3c00:	8b02014a 	add	x10, x10, x2
    3c04:	d61f0140 	br	x10
    3c08:	d5033f9f 	dsb	sy
    3c0c:	8b02014a 	add	x10, x10, x2
    3c10:	d61f0140 	br	x10
    3c14:	d5033f9f 	dsb	sy
    3c18:	8b02014a 	add	x10, x10, x2
    3c1c:	d61f0140 	br	x10
    3c20:	d5033f9f 	dsb	sy
    3c24:	8b02014a 	add	x10, x10, x2
    3c28:	d61f0140 	br	x10
    3c2c:	d5033f9f 	dsb	sy
    3c30:	8b02014a 	add	x10, x10, x2
    3c34:	d61f0140 	br	x10
    3c38:	d5033f9f 	dsb	sy
    3c3c:	8b02014a 	add	x10, x10, x2
    3c40:	d61f0140 	br	x10
    3c44:	d5033f9f 	dsb	sy
    3c48:	8b02014a 	add	x10, x10, x2
    3c4c:	d61f0140 	br	x10
    3c50:	d5033f9f 	dsb	sy
    3c54:	8b02014a 	add	x10, x10, x2
    3c58:	d61f0140 	br	x10
    3c5c:	d5033f9f 	dsb	sy
    3c60:	8b02014a 	add	x10, x10, x2
    3c64:	d61f0140 	br	x10
    3c68:	d5033f9f 	dsb	sy
    3c6c:	8b02014a 	add	x10, x10, x2
    3c70:	d61f0140 	br	x10
    3c74:	d5033f9f 	dsb	sy
    3c78:	8b02014a 	add	x10, x10, x2
    3c7c:	d61f0140 	br	x10
    3c80:	d5033f9f 	dsb	sy
    3c84:	8b02014a 	add	x10, x10, x2
    3c88:	d61f0140 	br	x10
    3c8c:	d5033f9f 	dsb	sy
    3c90:	8b02014a 	add	x10, x10, x2
    3c94:	d61f0140 	br	x10
    3c98:	d5033f9f 	dsb	sy
    3c9c:	8b02014a 	add	x10, x10, x2
    3ca0:	d61f0140 	br	x10
    3ca4:	d5033f9f 	dsb	sy
    3ca8:	8b02014a 	add	x10, x10, x2
    3cac:	d61f0140 	br	x10
    3cb0:	d5033f9f 	dsb	sy
    3cb4:	8b02014a 	add	x10, x10, x2
    3cb8:	d61f0140 	br	x10
    3cbc:	d5033f9f 	dsb	sy
    3cc0:	8b02014a 	add	x10, x10, x2
    3cc4:	d61f0140 	br	x10
    3cc8:	d5033f9f 	dsb	sy
    3ccc:	8b02014a 	add	x10, x10, x2
    3cd0:	d61f0140 	br	x10
    3cd4:	d5033f9f 	dsb	sy
    3cd8:	8b02014a 	add	x10, x10, x2
    3cdc:	d61f0140 	br	x10
    3ce0:	d5033f9f 	dsb	sy
    3ce4:	8b02014a 	add	x10, x10, x2
    3ce8:	d61f0140 	br	x10
    3cec:	d5033f9f 	dsb	sy
    3cf0:	8b02014a 	add	x10, x10, x2
    3cf4:	d61f0140 	br	x10
    3cf8:	d5033f9f 	dsb	sy
    3cfc:	8b02014a 	add	x10, x10, x2
    3d00:	d61f0140 	br	x10
    3d04:	d5033f9f 	dsb	sy
    3d08:	8b02014a 	add	x10, x10, x2
    3d0c:	d61f0140 	br	x10
    3d10:	d5033f9f 	dsb	sy
    3d14:	8b02014a 	add	x10, x10, x2
    3d18:	d61f0140 	br	x10
    3d1c:	d5033f9f 	dsb	sy
    3d20:	8b02014a 	add	x10, x10, x2
    3d24:	d61f0140 	br	x10
    3d28:	d5033f9f 	dsb	sy
    3d2c:	8b02014a 	add	x10, x10, x2
    3d30:	d61f0140 	br	x10
    3d34:	d5033f9f 	dsb	sy
    3d38:	8b02014a 	add	x10, x10, x2
    3d3c:	d61f0140 	br	x10
    3d40:	d5033f9f 	dsb	sy
    3d44:	8b02014a 	add	x10, x10, x2
    3d48:	d61f0140 	br	x10
    3d4c:	d5033f9f 	dsb	sy
    3d50:	8b02014a 	add	x10, x10, x2
    3d54:	d61f0140 	br	x10
    3d58:	d5033f9f 	dsb	sy
    3d5c:	8b02014a 	add	x10, x10, x2
    3d60:	d61f0140 	br	x10
    3d64:	d5033f9f 	dsb	sy
    3d68:	8b02014a 	add	x10, x10, x2
    3d6c:	d61f0140 	br	x10
    3d70:	d5033f9f 	dsb	sy
    3d74:	8b02014a 	add	x10, x10, x2
    3d78:	d61f0140 	br	x10
    3d7c:	d5033f9f 	dsb	sy
    3d80:	8b02014a 	add	x10, x10, x2
    3d84:	d61f0140 	br	x10
    3d88:	d5033f9f 	dsb	sy
    3d8c:	8b02014a 	add	x10, x10, x2
    3d90:	d61f0140 	br	x10
    3d94:	d5033f9f 	dsb	sy
    3d98:	8b02014a 	add	x10, x10, x2
    3d9c:	d61f0140 	br	x10
    3da0:	d5033f9f 	dsb	sy
    3da4:	8b02014a 	add	x10, x10, x2
    3da8:	d61f0140 	br	x10
    3dac:	d5033f9f 	dsb	sy
    3db0:	8b02014a 	add	x10, x10, x2
    3db4:	d61f0140 	br	x10
    3db8:	d5033f9f 	dsb	sy
    3dbc:	8b02014a 	add	x10, x10, x2
    3dc0:	d61f0140 	br	x10
    3dc4:	d5033f9f 	dsb	sy
    3dc8:	8b02014a 	add	x10, x10, x2
    3dcc:	d61f0140 	br	x10
    3dd0:	d5033f9f 	dsb	sy
    3dd4:	8b02014a 	add	x10, x10, x2
    3dd8:	d61f0140 	br	x10
    3ddc:	d5033f9f 	dsb	sy
    3de0:	8b02014a 	add	x10, x10, x2
    3de4:	d61f0140 	br	x10
    3de8:	d5033f9f 	dsb	sy
    3dec:	8b02014a 	add	x10, x10, x2
    3df0:	d61f0140 	br	x10
    3df4:	d5033f9f 	dsb	sy
    3df8:	8b02014a 	add	x10, x10, x2
    3dfc:	d61f0140 	br	x10
    3e00:	d5033f9f 	dsb	sy
    3e04:	8b02014a 	add	x10, x10, x2
    3e08:	d61f0140 	br	x10
    3e0c:	d5033f9f 	dsb	sy
    3e10:	8b02014a 	add	x10, x10, x2
    3e14:	d61f0140 	br	x10
    3e18:	d5033f9f 	dsb	sy
    3e1c:	8b02014a 	add	x10, x10, x2
    3e20:	d61f0140 	br	x10
    3e24:	d5033f9f 	dsb	sy
    3e28:	8b02014a 	add	x10, x10, x2
    3e2c:	d61f0140 	br	x10
    3e30:	d5033f9f 	dsb	sy
    3e34:	8b02014a 	add	x10, x10, x2
    3e38:	d61f0140 	br	x10
    3e3c:	d5033f9f 	dsb	sy
    3e40:	8b02014a 	add	x10, x10, x2
    3e44:	d61f0140 	br	x10
    3e48:	d5033f9f 	dsb	sy
    3e4c:	8b02014a 	add	x10, x10, x2
    3e50:	d61f0140 	br	x10
    3e54:	d5033f9f 	dsb	sy
    3e58:	8b02014a 	add	x10, x10, x2
    3e5c:	d61f0140 	br	x10
    3e60:	d5033f9f 	dsb	sy
    3e64:	8b02014a 	add	x10, x10, x2
    3e68:	d61f0140 	br	x10
    3e6c:	d5033f9f 	dsb	sy
    3e70:	8b02014a 	add	x10, x10, x2
    3e74:	d61f0140 	br	x10
    3e78:	d5033f9f 	dsb	sy
    3e7c:	8b02014a 	add	x10, x10, x2
    3e80:	d61f0140 	br	x10
    3e84:	d5033f9f 	dsb	sy
    3e88:	8b02014a 	add	x10, x10, x2
    3e8c:	d61f0140 	br	x10
    3e90:	d5033f9f 	dsb	sy
    3e94:	8b02014a 	add	x10, x10, x2
    3e98:	d61f0140 	br	x10
    3e9c:	d5033f9f 	dsb	sy
    3ea0:	8b02014a 	add	x10, x10, x2
    3ea4:	d61f0140 	br	x10
    3ea8:	d5033f9f 	dsb	sy
    3eac:	8b02014a 	add	x10, x10, x2
    3eb0:	d61f0140 	br	x10
    3eb4:	d5033f9f 	dsb	sy
    3eb8:	8b02014a 	add	x10, x10, x2
    3ebc:	d61f0140 	br	x10
    3ec0:	d5033f9f 	dsb	sy
    3ec4:	8b02014a 	add	x10, x10, x2
    3ec8:	d61f0140 	br	x10
    3ecc:	d5033f9f 	dsb	sy
    3ed0:	8b02014a 	add	x10, x10, x2
    3ed4:	d61f0140 	br	x10
    3ed8:	d5033f9f 	dsb	sy
    3edc:	8b02014a 	add	x10, x10, x2
    3ee0:	d61f0140 	br	x10
    3ee4:	d5033f9f 	dsb	sy
    3ee8:	8b02014a 	add	x10, x10, x2
    3eec:	d61f0140 	br	x10
    3ef0:	d5033f9f 	dsb	sy
    3ef4:	8b02014a 	add	x10, x10, x2
    3ef8:	d61f0140 	br	x10
    3efc:	d5033f9f 	dsb	sy
    3f00:	8b02014a 	add	x10, x10, x2
    3f04:	d61f0140 	br	x10
    3f08:	d5033f9f 	dsb	sy
    3f0c:	8b02014a 	add	x10, x10, x2
    3f10:	d61f0140 	br	x10
    3f14:	d5033f9f 	dsb	sy
    3f18:	8b02014a 	add	x10, x10, x2
    3f1c:	d61f0140 	br	x10
    3f20:	d5033f9f 	dsb	sy
    3f24:	8b02014a 	add	x10, x10, x2
    3f28:	d61f0140 	br	x10
    3f2c:	d5033f9f 	dsb	sy
    3f30:	8b02014a 	add	x10, x10, x2
    3f34:	d61f0140 	br	x10
    3f38:	d5033f9f 	dsb	sy
    3f3c:	8b02014a 	add	x10, x10, x2
    3f40:	d61f0140 	br	x10
    3f44:	d5033f9f 	dsb	sy
    3f48:	8b02014a 	add	x10, x10, x2
    3f4c:	d61f0140 	br	x10
    3f50:	d5033f9f 	dsb	sy
    3f54:	8b02014a 	add	x10, x10, x2
    3f58:	d61f0140 	br	x10
    3f5c:	d5033f9f 	dsb	sy
    3f60:	8b02014a 	add	x10, x10, x2
    3f64:	d61f0140 	br	x10
    3f68:	d5033f9f 	dsb	sy
    3f6c:	8b02014a 	add	x10, x10, x2
    3f70:	d61f0140 	br	x10
    3f74:	d5033f9f 	dsb	sy
    3f78:	8b02014a 	add	x10, x10, x2
    3f7c:	d61f0140 	br	x10
    3f80:	d5033f9f 	dsb	sy
    3f84:	8b02014a 	add	x10, x10, x2
    3f88:	d61f0140 	br	x10
    3f8c:	d5033f9f 	dsb	sy
    3f90:	8b02014a 	add	x10, x10, x2
    3f94:	d61f0140 	br	x10
    3f98:	d5033f9f 	dsb	sy
    3f9c:	8b02014a 	add	x10, x10, x2
    3fa0:	d61f0140 	br	x10
    3fa4:	d5033f9f 	dsb	sy
    3fa8:	8b02014a 	add	x10, x10, x2
    3fac:	d61f0140 	br	x10
    3fb0:	d5033f9f 	dsb	sy
    3fb4:	8b02014a 	add	x10, x10, x2
    3fb8:	d61f0140 	br	x10
    3fbc:	d5033f9f 	dsb	sy
    3fc0:	8b02014a 	add	x10, x10, x2
    3fc4:	d61f0140 	br	x10
    3fc8:	d5033f9f 	dsb	sy
    3fcc:	8b02014a 	add	x10, x10, x2
    3fd0:	d61f0140 	br	x10
    3fd4:	d5033f9f 	dsb	sy
    3fd8:	8b02014a 	add	x10, x10, x2
    3fdc:	d61f0140 	br	x10
    3fe0:	d5033f9f 	dsb	sy
    3fe4:	8b02014a 	add	x10, x10, x2
    3fe8:	d61f0140 	br	x10
    3fec:	d5033f9f 	dsb	sy
    3ff0:	8b02014a 	add	x10, x10, x2
    3ff4:	d61f0140 	br	x10
    3ff8:	d5033f9f 	dsb	sy
    3ffc:	8b02014a 	add	x10, x10, x2
    4000:	d61f0140 	br	x10
    4004:	d5033f9f 	dsb	sy
    4008:	8b02014a 	add	x10, x10, x2
    400c:	d61f0140 	br	x10
    4010:	d5033f9f 	dsb	sy
    4014:	8b02014a 	add	x10, x10, x2
    4018:	d61f0140 	br	x10
    401c:	d5033f9f 	dsb	sy
    4020:	8b02014a 	add	x10, x10, x2
    4024:	d61f0140 	br	x10
    4028:	d5033f9f 	dsb	sy
    402c:	8b02014a 	add	x10, x10, x2
    4030:	d61f0140 	br	x10
    4034:	d5033f9f 	dsb	sy
    4038:	8b02014a 	add	x10, x10, x2
    403c:	d61f0140 	br	x10
    4040:	d5033f9f 	dsb	sy
    4044:	8b02014a 	add	x10, x10, x2
    4048:	d61f0140 	br	x10
    404c:	d5033f9f 	dsb	sy
    4050:	8b02014a 	add	x10, x10, x2
    4054:	d61f0140 	br	x10
    4058:	d5033f9f 	dsb	sy
    405c:	8b02014a 	add	x10, x10, x2
    4060:	d61f0140 	br	x10
    4064:	d5033f9f 	dsb	sy
    4068:	8b02014a 	add	x10, x10, x2
    406c:	d61f0140 	br	x10
    4070:	d5033f9f 	dsb	sy
    4074:	8b02014a 	add	x10, x10, x2
    4078:	d61f0140 	br	x10
    407c:	d5033f9f 	dsb	sy
    4080:	8b02014a 	add	x10, x10, x2
    4084:	d61f0140 	br	x10
    4088:	d5033f9f 	dsb	sy
    408c:	8b02014a 	add	x10, x10, x2
    4090:	d61f0140 	br	x10
    4094:	d5033f9f 	dsb	sy
    4098:	8b02014a 	add	x10, x10, x2
    409c:	d61f0140 	br	x10
    40a0:	d5033f9f 	dsb	sy
    40a4:	8b02014a 	add	x10, x10, x2
    40a8:	d61f0140 	br	x10
    40ac:	d5033f9f 	dsb	sy
    40b0:	8b02014a 	add	x10, x10, x2
    40b4:	d61f0140 	br	x10
    40b8:	d5033f9f 	dsb	sy
    40bc:	8b02014a 	add	x10, x10, x2
    40c0:	d61f0140 	br	x10
    40c4:	d5033f9f 	dsb	sy
    40c8:	8b02014a 	add	x10, x10, x2
    40cc:	d61f0140 	br	x10
    40d0:	d5033f9f 	dsb	sy
    40d4:	8b02014a 	add	x10, x10, x2
    40d8:	d61f0140 	br	x10
    40dc:	d5033f9f 	dsb	sy
    40e0:	8b02014a 	add	x10, x10, x2
    40e4:	d61f0140 	br	x10
    40e8:	d5033f9f 	dsb	sy
    40ec:	8b02014a 	add	x10, x10, x2
    40f0:	d61f0140 	br	x10
    40f4:	d5033f9f 	dsb	sy
    40f8:	8b02014a 	add	x10, x10, x2
    40fc:	d61f0140 	br	x10
    4100:	d5033f9f 	dsb	sy
    4104:	8b02014a 	add	x10, x10, x2
    4108:	d61f0140 	br	x10
    410c:	d5033f9f 	dsb	sy
    4110:	8b02014a 	add	x10, x10, x2
    4114:	d61f0140 	br	x10
    4118:	d5033f9f 	dsb	sy
    411c:	8b02014a 	add	x10, x10, x2
    4120:	d61f0140 	br	x10
    4124:	d5033f9f 	dsb	sy
    4128:	8b02014a 	add	x10, x10, x2
    412c:	d61f0140 	br	x10
    4130:	d5033f9f 	dsb	sy
    4134:	8b02014a 	add	x10, x10, x2
    4138:	d61f0140 	br	x10
    413c:	d5033f9f 	dsb	sy
    4140:	8b02014a 	add	x10, x10, x2
    4144:	d61f0140 	br	x10
    4148:	d5033f9f 	dsb	sy
    414c:	8b02014a 	add	x10, x10, x2
    4150:	d61f0140 	br	x10
    4154:	d5033f9f 	dsb	sy
    4158:	8b02014a 	add	x10, x10, x2
    415c:	d61f0140 	br	x10
    4160:	d5033f9f 	dsb	sy
    4164:	8b02014a 	add	x10, x10, x2
    4168:	d61f0140 	br	x10
    416c:	d5033f9f 	dsb	sy
    4170:	8b02014a 	add	x10, x10, x2
    4174:	d61f0140 	br	x10
    4178:	d5033f9f 	dsb	sy
    417c:	8b02014a 	add	x10, x10, x2
    4180:	d61f0140 	br	x10
    4184:	d5033f9f 	dsb	sy
    4188:	8b02014a 	add	x10, x10, x2
    418c:	d61f0140 	br	x10
    4190:	d5033f9f 	dsb	sy
    4194:	8b02014a 	add	x10, x10, x2
    4198:	d61f0140 	br	x10
    419c:	d5033f9f 	dsb	sy
    41a0:	8b02014a 	add	x10, x10, x2
    41a4:	d61f0140 	br	x10
    41a8:	d5033f9f 	dsb	sy
    41ac:	8b02014a 	add	x10, x10, x2
    41b0:	d61f0140 	br	x10
    41b4:	d5033f9f 	dsb	sy
    41b8:	8b02014a 	add	x10, x10, x2
    41bc:	d61f0140 	br	x10
    41c0:	d5033f9f 	dsb	sy
    41c4:	8b02014a 	add	x10, x10, x2
    41c8:	d61f0140 	br	x10
    41cc:	d5033f9f 	dsb	sy
    41d0:	8b02014a 	add	x10, x10, x2
    41d4:	d61f0140 	br	x10
    41d8:	d5033f9f 	dsb	sy
    41dc:	8b02014a 	add	x10, x10, x2
    41e0:	d61f0140 	br	x10
    41e4:	d5033f9f 	dsb	sy
    41e8:	8b02014a 	add	x10, x10, x2
    41ec:	d61f0140 	br	x10
    41f0:	d5033f9f 	dsb	sy
    41f4:	8b02014a 	add	x10, x10, x2
    41f8:	d61f0140 	br	x10
    41fc:	d5033f9f 	dsb	sy
    4200:	8b02014a 	add	x10, x10, x2
    4204:	d61f0140 	br	x10
    4208:	d5033f9f 	dsb	sy
    420c:	8b02014a 	add	x10, x10, x2
    4210:	d61f0140 	br	x10
    4214:	d5033f9f 	dsb	sy
    4218:	8b02014a 	add	x10, x10, x2
    421c:	d61f0140 	br	x10
    4220:	d5033f9f 	dsb	sy
    4224:	8b02014a 	add	x10, x10, x2
    4228:	d61f0140 	br	x10
    422c:	d5033f9f 	dsb	sy
    4230:	8b02014a 	add	x10, x10, x2
    4234:	d61f0140 	br	x10
    4238:	d5033f9f 	dsb	sy
    423c:	8b02014a 	add	x10, x10, x2
    4240:	d61f0140 	br	x10
    4244:	d5033f9f 	dsb	sy
    4248:	8b02014a 	add	x10, x10, x2
    424c:	d61f0140 	br	x10
    4250:	d5033f9f 	dsb	sy
    4254:	8b02014a 	add	x10, x10, x2
    4258:	d61f0140 	br	x10
    425c:	d5033f9f 	dsb	sy
    4260:	8b02014a 	add	x10, x10, x2
    4264:	d61f0140 	br	x10
    4268:	d5033f9f 	dsb	sy
    426c:	8b02014a 	add	x10, x10, x2
    4270:	d61f0140 	br	x10
    4274:	d5033f9f 	dsb	sy
    4278:	8b02014a 	add	x10, x10, x2
    427c:	d61f0140 	br	x10
    4280:	d5033f9f 	dsb	sy
    4284:	8b02014a 	add	x10, x10, x2
    4288:	d61f0140 	br	x10
    428c:	d5033f9f 	dsb	sy
    4290:	8b02014a 	add	x10, x10, x2
    4294:	d61f0140 	br	x10
    4298:	d5033f9f 	dsb	sy
    429c:	8b02014a 	add	x10, x10, x2
    42a0:	d61f0140 	br	x10
    42a4:	d5033f9f 	dsb	sy
    42a8:	8b02014a 	add	x10, x10, x2
    42ac:	d61f0140 	br	x10
    42b0:	d5033f9f 	dsb	sy
    42b4:	8b02014a 	add	x10, x10, x2
    42b8:	d61f0140 	br	x10
    42bc:	d5033f9f 	dsb	sy
    42c0:	8b02014a 	add	x10, x10, x2
    42c4:	d61f0140 	br	x10
    42c8:	d5033f9f 	dsb	sy
    42cc:	8b02014a 	add	x10, x10, x2
    42d0:	d61f0140 	br	x10
    42d4:	d5033f9f 	dsb	sy
    42d8:	8b02014a 	add	x10, x10, x2
    42dc:	d61f0140 	br	x10
    42e0:	d5033f9f 	dsb	sy
    42e4:	8b02014a 	add	x10, x10, x2
    42e8:	d61f0140 	br	x10
    42ec:	d5033f9f 	dsb	sy
    42f0:	8b02014a 	add	x10, x10, x2
    42f4:	d61f0140 	br	x10
    42f8:	d5033f9f 	dsb	sy
    42fc:	8b02014a 	add	x10, x10, x2
    4300:	d61f0140 	br	x10
    4304:	d5033f9f 	dsb	sy
    4308:	8b02014a 	add	x10, x10, x2
    430c:	d61f0140 	br	x10
    4310:	d5033f9f 	dsb	sy
    4314:	8b02014a 	add	x10, x10, x2
    4318:	d61f0140 	br	x10
    431c:	d5033f9f 	dsb	sy
    4320:	8b02014a 	add	x10, x10, x2
    4324:	d61f0140 	br	x10
    4328:	d5033f9f 	dsb	sy
    432c:	8b02014a 	add	x10, x10, x2
    4330:	d61f0140 	br	x10
    4334:	d5033f9f 	dsb	sy
    4338:	8b02014a 	add	x10, x10, x2
    433c:	d61f0140 	br	x10
    4340:	d5033f9f 	dsb	sy
    4344:	8b02014a 	add	x10, x10, x2
    4348:	d61f0140 	br	x10
    434c:	d5033f9f 	dsb	sy
    4350:	8b02014a 	add	x10, x10, x2
    4354:	d61f0140 	br	x10
    4358:	d5033f9f 	dsb	sy
    435c:	8b02014a 	add	x10, x10, x2
    4360:	d61f0140 	br	x10
    4364:	d5033f9f 	dsb	sy
    4368:	8b02014a 	add	x10, x10, x2
    436c:	d61f0140 	br	x10
    4370:	d5033f9f 	dsb	sy
    4374:	8b02014a 	add	x10, x10, x2
    4378:	d61f0140 	br	x10
    437c:	d5033f9f 	dsb	sy
    4380:	8b02014a 	add	x10, x10, x2
    4384:	d61f0140 	br	x10
    4388:	d5033f9f 	dsb	sy
    438c:	8b02014a 	add	x10, x10, x2
    4390:	d61f0140 	br	x10
    4394:	d5033f9f 	dsb	sy
    4398:	8b02014a 	add	x10, x10, x2
    439c:	d61f0140 	br	x10
    43a0:	d5033f9f 	dsb	sy
    43a4:	8b02014a 	add	x10, x10, x2
    43a8:	d61f0140 	br	x10
    43ac:	d5033f9f 	dsb	sy
    43b0:	8b02014a 	add	x10, x10, x2
    43b4:	d61f0140 	br	x10
    43b8:	d5033f9f 	dsb	sy
    43bc:	8b02014a 	add	x10, x10, x2
    43c0:	d61f0140 	br	x10
    43c4:	d5033f9f 	dsb	sy
    43c8:	8b02014a 	add	x10, x10, x2
    43cc:	d61f0140 	br	x10
    43d0:	d5033f9f 	dsb	sy
    43d4:	8b02014a 	add	x10, x10, x2
    43d8:	d61f0140 	br	x10
    43dc:	d5033f9f 	dsb	sy
    43e0:	8b02014a 	add	x10, x10, x2
    43e4:	d61f0140 	br	x10
    43e8:	d5033f9f 	dsb	sy
    43ec:	8b02014a 	add	x10, x10, x2
    43f0:	d61f0140 	br	x10
    43f4:	d5033f9f 	dsb	sy
    43f8:	8b02014a 	add	x10, x10, x2
    43fc:	d61f0140 	br	x10
    4400:	d5033f9f 	dsb	sy
    4404:	8b02014a 	add	x10, x10, x2
    4408:	d61f0140 	br	x10
    440c:	d5033f9f 	dsb	sy
    4410:	8b02014a 	add	x10, x10, x2
    4414:	d61f0140 	br	x10
    4418:	d5033f9f 	dsb	sy
    441c:	8b02014a 	add	x10, x10, x2
    4420:	d61f0140 	br	x10
    4424:	d5033f9f 	dsb	sy
    4428:	8b02014a 	add	x10, x10, x2
    442c:	d61f0140 	br	x10
    4430:	d5033f9f 	dsb	sy
    4434:	8b02014a 	add	x10, x10, x2
    4438:	d61f0140 	br	x10
    443c:	d5033f9f 	dsb	sy
    4440:	8b02014a 	add	x10, x10, x2
    4444:	d61f0140 	br	x10
    4448:	d5033f9f 	dsb	sy
    444c:	8b02014a 	add	x10, x10, x2
    4450:	d61f0140 	br	x10
    4454:	d5033f9f 	dsb	sy
    4458:	8b02014a 	add	x10, x10, x2
    445c:	d61f0140 	br	x10
    4460:	d5033f9f 	dsb	sy
    4464:	8b02014a 	add	x10, x10, x2
    4468:	d61f0140 	br	x10
    446c:	d5033f9f 	dsb	sy
    4470:	8b02014a 	add	x10, x10, x2
    4474:	d61f0140 	br	x10
    4478:	d5033f9f 	dsb	sy
    447c:	8b02014a 	add	x10, x10, x2
    4480:	d61f0140 	br	x10
    4484:	d5033f9f 	dsb	sy
    4488:	8b02014a 	add	x10, x10, x2
    448c:	d61f0140 	br	x10
    4490:	d5033f9f 	dsb	sy
    4494:	8b02014a 	add	x10, x10, x2
    4498:	d61f0140 	br	x10
    449c:	d5033f9f 	dsb	sy
    44a0:	8b02014a 	add	x10, x10, x2
    44a4:	d61f0140 	br	x10
    44a8:	d5033f9f 	dsb	sy
    44ac:	8b02014a 	add	x10, x10, x2
    44b0:	d61f0140 	br	x10
    44b4:	d5033f9f 	dsb	sy
    44b8:	8b02014a 	add	x10, x10, x2
    44bc:	d61f0140 	br	x10
    44c0:	d5033f9f 	dsb	sy
    44c4:	8b02014a 	add	x10, x10, x2
    44c8:	d61f0140 	br	x10
    44cc:	d5033f9f 	dsb	sy
    44d0:	8b02014a 	add	x10, x10, x2
    44d4:	d61f0140 	br	x10
    44d8:	d5033f9f 	dsb	sy
    44dc:	8b02014a 	add	x10, x10, x2
    44e0:	d61f0140 	br	x10
    44e4:	d5033f9f 	dsb	sy
    44e8:	8b02014a 	add	x10, x10, x2
    44ec:	d61f0140 	br	x10
    44f0:	d5033f9f 	dsb	sy
    44f4:	8b02014a 	add	x10, x10, x2
    44f8:	d61f0140 	br	x10
    44fc:	d5033f9f 	dsb	sy
    4500:	8b02014a 	add	x10, x10, x2
    4504:	d61f0140 	br	x10
    4508:	d5033f9f 	dsb	sy
    450c:	8b02014a 	add	x10, x10, x2
    4510:	d61f0140 	br	x10
    4514:	d5033f9f 	dsb	sy
    4518:	8b02014a 	add	x10, x10, x2
    451c:	d61f0140 	br	x10
    4520:	d5033f9f 	dsb	sy
    4524:	8b02014a 	add	x10, x10, x2
    4528:	d61f0140 	br	x10
    452c:	d5033f9f 	dsb	sy
    4530:	8b02014a 	add	x10, x10, x2
    4534:	d61f0140 	br	x10
    4538:	d5033f9f 	dsb	sy
    453c:	8b02014a 	add	x10, x10, x2
    4540:	d61f0140 	br	x10
    4544:	d5033f9f 	dsb	sy
    4548:	8b02014a 	add	x10, x10, x2
    454c:	d61f0140 	br	x10
    4550:	d5033f9f 	dsb	sy
    4554:	8b02014a 	add	x10, x10, x2
    4558:	d61f0140 	br	x10
    455c:	d5033f9f 	dsb	sy
    4560:	8b02014a 	add	x10, x10, x2
    4564:	d61f0140 	br	x10
    4568:	d5033f9f 	dsb	sy
    456c:	8b02014a 	add	x10, x10, x2
    4570:	d61f0140 	br	x10
    4574:	d5033f9f 	dsb	sy
    4578:	8b02014a 	add	x10, x10, x2
    457c:	d61f0140 	br	x10
    4580:	d5033f9f 	dsb	sy
    4584:	8b02014a 	add	x10, x10, x2
    4588:	d61f0140 	br	x10
    458c:	d5033f9f 	dsb	sy
    4590:	8b02014a 	add	x10, x10, x2
    4594:	d61f0140 	br	x10
    4598:	d5033f9f 	dsb	sy
    459c:	8b02014a 	add	x10, x10, x2
    45a0:	d61f0140 	br	x10
    45a4:	d5033f9f 	dsb	sy
    45a8:	8b02014a 	add	x10, x10, x2
    45ac:	d61f0140 	br	x10
    45b0:	d5033f9f 	dsb	sy
    45b4:	8b02014a 	add	x10, x10, x2
    45b8:	d61f0140 	br	x10
    45bc:	d5033f9f 	dsb	sy
    45c0:	8b02014a 	add	x10, x10, x2
    45c4:	d61f0140 	br	x10
    45c8:	d5033f9f 	dsb	sy
    45cc:	8b02014a 	add	x10, x10, x2
    45d0:	d61f0140 	br	x10
    45d4:	d5033f9f 	dsb	sy
    45d8:	8b02014a 	add	x10, x10, x2
    45dc:	d61f0140 	br	x10
    45e0:	d5033f9f 	dsb	sy
    45e4:	8b02014a 	add	x10, x10, x2
    45e8:	d61f0140 	br	x10
    45ec:	d5033f9f 	dsb	sy
    45f0:	8b02014a 	add	x10, x10, x2
    45f4:	d61f0140 	br	x10
    45f8:	d5033f9f 	dsb	sy
    45fc:	8b02014a 	add	x10, x10, x2
    4600:	d61f0140 	br	x10
    4604:	d5033f9f 	dsb	sy
    4608:	8b02014a 	add	x10, x10, x2
    460c:	d61f0140 	br	x10
    4610:	d5033f9f 	dsb	sy
    4614:	8b02014a 	add	x10, x10, x2
    4618:	d61f0140 	br	x10
    461c:	d5033f9f 	dsb	sy
    4620:	8b02014a 	add	x10, x10, x2
    4624:	d61f0140 	br	x10
    4628:	d5033f9f 	dsb	sy
    462c:	8b02014a 	add	x10, x10, x2
    4630:	d61f0140 	br	x10
    4634:	d5033f9f 	dsb	sy
    4638:	8b02014a 	add	x10, x10, x2
    463c:	d61f0140 	br	x10
    4640:	d5033f9f 	dsb	sy
    4644:	8b02014a 	add	x10, x10, x2
    4648:	d61f0140 	br	x10
    464c:	d5033f9f 	dsb	sy
    4650:	8b02014a 	add	x10, x10, x2
    4654:	d61f0140 	br	x10
    4658:	d5033f9f 	dsb	sy
    465c:	8b02014a 	add	x10, x10, x2
    4660:	d61f0140 	br	x10
    4664:	d5033f9f 	dsb	sy
    4668:	8b02014a 	add	x10, x10, x2
    466c:	d61f0140 	br	x10
    4670:	d5033f9f 	dsb	sy
    4674:	8b02014a 	add	x10, x10, x2
    4678:	d61f0140 	br	x10
    467c:	d5033f9f 	dsb	sy
    4680:	8b02014a 	add	x10, x10, x2
    4684:	d61f0140 	br	x10
    4688:	d5033f9f 	dsb	sy
    468c:	8b02014a 	add	x10, x10, x2
    4690:	d61f0140 	br	x10
    4694:	d5033f9f 	dsb	sy
    4698:	8b02014a 	add	x10, x10, x2
    469c:	d61f0140 	br	x10
    46a0:	d5033f9f 	dsb	sy
    46a4:	8b02014a 	add	x10, x10, x2
    46a8:	d61f0140 	br	x10
    46ac:	d5033f9f 	dsb	sy
    46b0:	8b02014a 	add	x10, x10, x2
    46b4:	d61f0140 	br	x10
    46b8:	d5033f9f 	dsb	sy
    46bc:	8b02014a 	add	x10, x10, x2
    46c0:	d61f0140 	br	x10
    46c4:	d5033f9f 	dsb	sy
    46c8:	8b02014a 	add	x10, x10, x2
    46cc:	d61f0140 	br	x10
    46d0:	d5033f9f 	dsb	sy
    46d4:	8b02014a 	add	x10, x10, x2
    46d8:	d61f0140 	br	x10
    46dc:	d5033f9f 	dsb	sy
    46e0:	8b02014a 	add	x10, x10, x2
    46e4:	d61f0140 	br	x10
    46e8:	d5033f9f 	dsb	sy
    46ec:	8b02014a 	add	x10, x10, x2
    46f0:	d61f0140 	br	x10
    46f4:	d5033f9f 	dsb	sy
    46f8:	8b02014a 	add	x10, x10, x2
    46fc:	d61f0140 	br	x10
    4700:	d5033f9f 	dsb	sy
    4704:	8b02014a 	add	x10, x10, x2
    4708:	d61f0140 	br	x10
    470c:	d5033f9f 	dsb	sy
    4710:	8b02014a 	add	x10, x10, x2
    4714:	d61f0140 	br	x10
    4718:	d5033f9f 	dsb	sy
    471c:	8b02014a 	add	x10, x10, x2
    4720:	d61f0140 	br	x10
    4724:	d5033f9f 	dsb	sy
    4728:	8b02014a 	add	x10, x10, x2
    472c:	d61f0140 	br	x10
    4730:	d5033f9f 	dsb	sy
    4734:	8b02014a 	add	x10, x10, x2
    4738:	d61f0140 	br	x10
    473c:	d5033f9f 	dsb	sy
    4740:	8b02014a 	add	x10, x10, x2
    4744:	d61f0140 	br	x10
    4748:	d5033f9f 	dsb	sy
    474c:	8b02014a 	add	x10, x10, x2
    4750:	d61f0140 	br	x10
    4754:	d5033f9f 	dsb	sy
    4758:	8b02014a 	add	x10, x10, x2
    475c:	d61f0140 	br	x10
    4760:	d5033f9f 	dsb	sy
    4764:	8b02014a 	add	x10, x10, x2
    4768:	d61f0140 	br	x10
    476c:	d5033f9f 	dsb	sy
    4770:	8b02014a 	add	x10, x10, x2
    4774:	d61f0140 	br	x10
    4778:	d5033f9f 	dsb	sy
    477c:	8b02014a 	add	x10, x10, x2
    4780:	d61f0140 	br	x10
    4784:	d5033f9f 	dsb	sy
    4788:	8b02014a 	add	x10, x10, x2
    478c:	d61f0140 	br	x10
    4790:	d5033f9f 	dsb	sy
    4794:	8b02014a 	add	x10, x10, x2
    4798:	d61f0140 	br	x10
    479c:	d5033f9f 	dsb	sy
    47a0:	8b02014a 	add	x10, x10, x2
    47a4:	d61f0140 	br	x10
    47a8:	d5033f9f 	dsb	sy
    47ac:	8b02014a 	add	x10, x10, x2
    47b0:	d61f0140 	br	x10
    47b4:	d5033f9f 	dsb	sy
    47b8:	8b02014a 	add	x10, x10, x2
    47bc:	d61f0140 	br	x10
    47c0:	d5033f9f 	dsb	sy
    47c4:	8b02014a 	add	x10, x10, x2
    47c8:	d61f0140 	br	x10
    47cc:	d5033f9f 	dsb	sy
    47d0:	8b02014a 	add	x10, x10, x2
    47d4:	d61f0140 	br	x10
    47d8:	d5033f9f 	dsb	sy
    47dc:	8b02014a 	add	x10, x10, x2
    47e0:	d61f0140 	br	x10
    47e4:	d5033f9f 	dsb	sy
    47e8:	8b02014a 	add	x10, x10, x2
    47ec:	d61f0140 	br	x10
    47f0:	d5033f9f 	dsb	sy
    47f4:	8b02014a 	add	x10, x10, x2
    47f8:	d61f0140 	br	x10
    47fc:	d5033f9f 	dsb	sy
    4800:	8b02014a 	add	x10, x10, x2
    4804:	d61f0140 	br	x10
    4808:	d5033f9f 	dsb	sy
    480c:	8b02014a 	add	x10, x10, x2
    4810:	d61f0140 	br	x10
    4814:	d5033f9f 	dsb	sy
    4818:	8b02014a 	add	x10, x10, x2
    481c:	d61f0140 	br	x10
    4820:	d5033f9f 	dsb	sy
    4824:	8b02014a 	add	x10, x10, x2
    4828:	d61f0140 	br	x10
    482c:	d5033f9f 	dsb	sy
    4830:	8b02014a 	add	x10, x10, x2
    4834:	d61f0140 	br	x10
    4838:	d5033f9f 	dsb	sy
    483c:	8b02014a 	add	x10, x10, x2
    4840:	d61f0140 	br	x10
    4844:	d5033f9f 	dsb	sy
    4848:	8b02014a 	add	x10, x10, x2
    484c:	d61f0140 	br	x10
    4850:	d5033f9f 	dsb	sy
    4854:	8b02014a 	add	x10, x10, x2
    4858:	d61f0140 	br	x10
    485c:	d5033f9f 	dsb	sy
    4860:	8b02014a 	add	x10, x10, x2
    4864:	d61f0140 	br	x10
    4868:	d5033f9f 	dsb	sy
    486c:	8b02014a 	add	x10, x10, x2
    4870:	d61f0140 	br	x10
    4874:	d5033f9f 	dsb	sy
    4878:	8b02014a 	add	x10, x10, x2
    487c:	d61f0140 	br	x10
    4880:	d5033f9f 	dsb	sy
    4884:	8b02014a 	add	x10, x10, x2
    4888:	d61f0140 	br	x10
    488c:	d5033f9f 	dsb	sy
    4890:	8b02014a 	add	x10, x10, x2
    4894:	d61f0140 	br	x10
    4898:	d5033f9f 	dsb	sy
    489c:	8b02014a 	add	x10, x10, x2
    48a0:	d61f0140 	br	x10
    48a4:	d5033f9f 	dsb	sy
    48a8:	8b02014a 	add	x10, x10, x2
    48ac:	d61f0140 	br	x10
    48b0:	d5033f9f 	dsb	sy
    48b4:	8b02014a 	add	x10, x10, x2
    48b8:	d61f0140 	br	x10
    48bc:	d5033f9f 	dsb	sy
    48c0:	8b02014a 	add	x10, x10, x2
    48c4:	d61f0140 	br	x10
    48c8:	d5033f9f 	dsb	sy
    48cc:	8b02014a 	add	x10, x10, x2
    48d0:	d61f0140 	br	x10
    48d4:	d5033f9f 	dsb	sy
    48d8:	8b02014a 	add	x10, x10, x2
    48dc:	d61f0140 	br	x10
    48e0:	d5033f9f 	dsb	sy
    48e4:	8b02014a 	add	x10, x10, x2
    48e8:	d61f0140 	br	x10
    48ec:	d5033f9f 	dsb	sy
    48f0:	8b02014a 	add	x10, x10, x2
    48f4:	d61f0140 	br	x10
    48f8:	d5033f9f 	dsb	sy
    48fc:	8b02014a 	add	x10, x10, x2
    4900:	d61f0140 	br	x10
    4904:	d5033f9f 	dsb	sy
    4908:	8b02014a 	add	x10, x10, x2
    490c:	d61f0140 	br	x10
    4910:	d5033f9f 	dsb	sy
    4914:	8b02014a 	add	x10, x10, x2
    4918:	d61f0140 	br	x10
    491c:	d5033f9f 	dsb	sy
    4920:	8b02014a 	add	x10, x10, x2
    4924:	d61f0140 	br	x10
    4928:	d5033f9f 	dsb	sy
    492c:	8b02014a 	add	x10, x10, x2
    4930:	d61f0140 	br	x10
    4934:	d5033f9f 	dsb	sy
    4938:	8b02014a 	add	x10, x10, x2
    493c:	d61f0140 	br	x10
    4940:	d5033f9f 	dsb	sy
    4944:	8b02014a 	add	x10, x10, x2
    4948:	d61f0140 	br	x10
    494c:	d5033f9f 	dsb	sy
    4950:	8b02014a 	add	x10, x10, x2
    4954:	d61f0140 	br	x10
    4958:	d5033f9f 	dsb	sy
    495c:	8b02014a 	add	x10, x10, x2
    4960:	d61f0140 	br	x10
    4964:	d5033f9f 	dsb	sy
    4968:	8b02014a 	add	x10, x10, x2
    496c:	d61f0140 	br	x10
    4970:	d5033f9f 	dsb	sy
    4974:	8b02014a 	add	x10, x10, x2
    4978:	d61f0140 	br	x10
    497c:	d5033f9f 	dsb	sy
    4980:	8b02014a 	add	x10, x10, x2
    4984:	d61f0140 	br	x10
    4988:	d5033f9f 	dsb	sy
    498c:	8b02014a 	add	x10, x10, x2
    4990:	d61f0140 	br	x10
    4994:	d5033f9f 	dsb	sy
    4998:	8b02014a 	add	x10, x10, x2
    499c:	d61f0140 	br	x10
    49a0:	d5033f9f 	dsb	sy
    49a4:	8b02014a 	add	x10, x10, x2
    49a8:	d61f0140 	br	x10
    49ac:	d5033f9f 	dsb	sy
    49b0:	8b02014a 	add	x10, x10, x2
    49b4:	d61f0140 	br	x10
    49b8:	d5033f9f 	dsb	sy
    49bc:	8b02014a 	add	x10, x10, x2
    49c0:	d61f0140 	br	x10
    49c4:	d5033f9f 	dsb	sy
    49c8:	8b02014a 	add	x10, x10, x2
    49cc:	d61f0140 	br	x10
    49d0:	d5033f9f 	dsb	sy
    49d4:	8b02014a 	add	x10, x10, x2
    49d8:	d61f0140 	br	x10
    49dc:	d5033f9f 	dsb	sy
    49e0:	8b02014a 	add	x10, x10, x2
    49e4:	d61f0140 	br	x10
    49e8:	d5033f9f 	dsb	sy
    49ec:	8b02014a 	add	x10, x10, x2
    49f0:	d61f0140 	br	x10
    49f4:	d5033f9f 	dsb	sy
    49f8:	8b02014a 	add	x10, x10, x2
    49fc:	d61f0140 	br	x10
    4a00:	d5033f9f 	dsb	sy
    4a04:	8b02014a 	add	x10, x10, x2
    4a08:	d61f0140 	br	x10
    4a0c:	d5033f9f 	dsb	sy
    4a10:	8b02014a 	add	x10, x10, x2
    4a14:	d61f0140 	br	x10
    4a18:	d5033f9f 	dsb	sy
    4a1c:	8b02014a 	add	x10, x10, x2
    4a20:	d61f0140 	br	x10
    4a24:	d5033f9f 	dsb	sy
    4a28:	8b02014a 	add	x10, x10, x2
    4a2c:	d61f0140 	br	x10
    4a30:	d5033f9f 	dsb	sy
    4a34:	8b02014a 	add	x10, x10, x2
    4a38:	d61f0140 	br	x10
    4a3c:	d5033f9f 	dsb	sy
    4a40:	8b02014a 	add	x10, x10, x2
    4a44:	d61f0140 	br	x10
    4a48:	d5033f9f 	dsb	sy
    4a4c:	8b02014a 	add	x10, x10, x2
    4a50:	d61f0140 	br	x10
    4a54:	d5033f9f 	dsb	sy
    4a58:	8b02014a 	add	x10, x10, x2
    4a5c:	d61f0140 	br	x10
    4a60:	d5033f9f 	dsb	sy
    4a64:	8b02014a 	add	x10, x10, x2
    4a68:	d61f0140 	br	x10
    4a6c:	d5033f9f 	dsb	sy
    4a70:	8b02014a 	add	x10, x10, x2
    4a74:	d61f0140 	br	x10
    4a78:	d5033f9f 	dsb	sy
    4a7c:	8b02014a 	add	x10, x10, x2
    4a80:	d61f0140 	br	x10
    4a84:	d5033f9f 	dsb	sy
    4a88:	8b02014a 	add	x10, x10, x2
    4a8c:	d61f0140 	br	x10
    4a90:	d5033f9f 	dsb	sy
    4a94:	8b02014a 	add	x10, x10, x2
    4a98:	d61f0140 	br	x10
    4a9c:	d5033f9f 	dsb	sy
    4aa0:	8b02014a 	add	x10, x10, x2
    4aa4:	d61f0140 	br	x10
    4aa8:	d5033f9f 	dsb	sy
    4aac:	8b02014a 	add	x10, x10, x2
    4ab0:	d61f0140 	br	x10
    4ab4:	d5033f9f 	dsb	sy
    4ab8:	8b02014a 	add	x10, x10, x2
    4abc:	d61f0140 	br	x10
    4ac0:	d5033f9f 	dsb	sy
    4ac4:	8b02014a 	add	x10, x10, x2
    4ac8:	d61f0140 	br	x10
    4acc:	d5033f9f 	dsb	sy
    4ad0:	8b02014a 	add	x10, x10, x2
    4ad4:	d61f0140 	br	x10
    4ad8:	d5033f9f 	dsb	sy
    4adc:	8b02014a 	add	x10, x10, x2
    4ae0:	d61f0140 	br	x10
    4ae4:	d5033f9f 	dsb	sy
    4ae8:	8b02014a 	add	x10, x10, x2
    4aec:	d61f0140 	br	x10
    4af0:	d5033f9f 	dsb	sy
    4af4:	8b02014a 	add	x10, x10, x2
    4af8:	d61f0140 	br	x10
    4afc:	d5033f9f 	dsb	sy
    4b00:	8b02014a 	add	x10, x10, x2
    4b04:	d61f0140 	br	x10
    4b08:	d5033f9f 	dsb	sy
    4b0c:	8b02014a 	add	x10, x10, x2
    4b10:	d61f0140 	br	x10
    4b14:	d5033f9f 	dsb	sy
    4b18:	8b02014a 	add	x10, x10, x2
    4b1c:	d61f0140 	br	x10
    4b20:	d5033f9f 	dsb	sy
    4b24:	8b02014a 	add	x10, x10, x2
    4b28:	d61f0140 	br	x10
    4b2c:	d5033f9f 	dsb	sy
    4b30:	8b02014a 	add	x10, x10, x2
    4b34:	d61f0140 	br	x10
    4b38:	d5033f9f 	dsb	sy
    4b3c:	8b02014a 	add	x10, x10, x2
    4b40:	d61f0140 	br	x10
    4b44:	d5033f9f 	dsb	sy
    4b48:	8b02014a 	add	x10, x10, x2
    4b4c:	d61f0140 	br	x10
    4b50:	d5033f9f 	dsb	sy
    4b54:	8b02014a 	add	x10, x10, x2
    4b58:	d61f0140 	br	x10
    4b5c:	d5033f9f 	dsb	sy
    4b60:	8b02014a 	add	x10, x10, x2
    4b64:	d61f0140 	br	x10
    4b68:	d5033f9f 	dsb	sy
    4b6c:	8b02014a 	add	x10, x10, x2
    4b70:	d61f0140 	br	x10
    4b74:	d5033f9f 	dsb	sy
    4b78:	8b02014a 	add	x10, x10, x2
    4b7c:	d61f0140 	br	x10
    4b80:	d5033f9f 	dsb	sy
    4b84:	8b02014a 	add	x10, x10, x2
    4b88:	d61f0140 	br	x10
    4b8c:	d5033f9f 	dsb	sy
    4b90:	8b02014a 	add	x10, x10, x2
    4b94:	d61f0140 	br	x10
    4b98:	d5033f9f 	dsb	sy
    4b9c:	8b02014a 	add	x10, x10, x2
    4ba0:	d61f0140 	br	x10
    4ba4:	d5033f9f 	dsb	sy
    4ba8:	8b02014a 	add	x10, x10, x2
    4bac:	d61f0140 	br	x10
    4bb0:	d5033f9f 	dsb	sy
    4bb4:	8b02014a 	add	x10, x10, x2
    4bb8:	d61f0140 	br	x10
    4bbc:	d5033f9f 	dsb	sy
    4bc0:	8b02014a 	add	x10, x10, x2
    4bc4:	d61f0140 	br	x10
    4bc8:	d5033f9f 	dsb	sy
    4bcc:	8b02014a 	add	x10, x10, x2
    4bd0:	d61f0140 	br	x10
    4bd4:	d5033f9f 	dsb	sy
    4bd8:	8b02014a 	add	x10, x10, x2
    4bdc:	d61f0140 	br	x10
    4be0:	d5033f9f 	dsb	sy
    4be4:	8b02014a 	add	x10, x10, x2
    4be8:	d61f0140 	br	x10
    4bec:	d5033f9f 	dsb	sy
    4bf0:	8b02014a 	add	x10, x10, x2
    4bf4:	d61f0140 	br	x10
    4bf8:	d5033f9f 	dsb	sy
    4bfc:	8b02014a 	add	x10, x10, x2
    4c00:	d61f0140 	br	x10
    4c04:	d5033f9f 	dsb	sy
    4c08:	8b02014a 	add	x10, x10, x2
    4c0c:	d61f0140 	br	x10
    4c10:	d5033f9f 	dsb	sy
    4c14:	8b02014a 	add	x10, x10, x2
    4c18:	d61f0140 	br	x10
    4c1c:	d5033f9f 	dsb	sy
    4c20:	8b02014a 	add	x10, x10, x2
    4c24:	d61f0140 	br	x10
    4c28:	d5033f9f 	dsb	sy
    4c2c:	8b02014a 	add	x10, x10, x2
    4c30:	d61f0140 	br	x10
    4c34:	d5033f9f 	dsb	sy
    4c38:	8b02014a 	add	x10, x10, x2
    4c3c:	d61f0140 	br	x10
    4c40:	d5033f9f 	dsb	sy
    4c44:	8b02014a 	add	x10, x10, x2
    4c48:	d61f0140 	br	x10
    4c4c:	d5033f9f 	dsb	sy
    4c50:	8b02014a 	add	x10, x10, x2
    4c54:	d61f0140 	br	x10
    4c58:	d5033f9f 	dsb	sy
    4c5c:	8b02014a 	add	x10, x10, x2
    4c60:	d61f0140 	br	x10
    4c64:	d5033f9f 	dsb	sy
    4c68:	8b02014a 	add	x10, x10, x2
    4c6c:	d61f0140 	br	x10
    4c70:	d5033f9f 	dsb	sy
    4c74:	8b02014a 	add	x10, x10, x2
    4c78:	d61f0140 	br	x10
    4c7c:	d5033f9f 	dsb	sy
    4c80:	8b02014a 	add	x10, x10, x2
    4c84:	d61f0140 	br	x10
    4c88:	d5033f9f 	dsb	sy
    4c8c:	8b02014a 	add	x10, x10, x2
    4c90:	d61f0140 	br	x10
    4c94:	d5033f9f 	dsb	sy
    4c98:	8b02014a 	add	x10, x10, x2
    4c9c:	d61f0140 	br	x10
    4ca0:	d5033f9f 	dsb	sy
    4ca4:	8b02014a 	add	x10, x10, x2
    4ca8:	d61f0140 	br	x10
    4cac:	d5033f9f 	dsb	sy
    4cb0:	8b02014a 	add	x10, x10, x2
    4cb4:	d61f0140 	br	x10
    4cb8:	d5033f9f 	dsb	sy
    4cbc:	8b02014a 	add	x10, x10, x2
    4cc0:	d61f0140 	br	x10
    4cc4:	d5033f9f 	dsb	sy
    4cc8:	8b02014a 	add	x10, x10, x2
    4ccc:	d61f0140 	br	x10
    4cd0:	d5033f9f 	dsb	sy
    4cd4:	8b02014a 	add	x10, x10, x2
    4cd8:	d61f0140 	br	x10
    4cdc:	d5033f9f 	dsb	sy
    4ce0:	8b02014a 	add	x10, x10, x2
    4ce4:	d61f0140 	br	x10
    4ce8:	d5033f9f 	dsb	sy
    4cec:	8b02014a 	add	x10, x10, x2
    4cf0:	d61f0140 	br	x10
    4cf4:	d5033f9f 	dsb	sy
    4cf8:	8b02014a 	add	x10, x10, x2
    4cfc:	d61f0140 	br	x10
    4d00:	d5033f9f 	dsb	sy
    4d04:	8b02014a 	add	x10, x10, x2
    4d08:	d61f0140 	br	x10
    4d0c:	d5033f9f 	dsb	sy
    4d10:	8b02014a 	add	x10, x10, x2
    4d14:	d61f0140 	br	x10
    4d18:	d5033f9f 	dsb	sy
    4d1c:	8b02014a 	add	x10, x10, x2
    4d20:	d61f0140 	br	x10
    4d24:	d5033f9f 	dsb	sy
    4d28:	8b02014a 	add	x10, x10, x2
    4d2c:	d61f0140 	br	x10
    4d30:	d5033f9f 	dsb	sy
    4d34:	8b02014a 	add	x10, x10, x2
    4d38:	d61f0140 	br	x10
    4d3c:	d5033f9f 	dsb	sy
    4d40:	8b02014a 	add	x10, x10, x2
    4d44:	d61f0140 	br	x10
    4d48:	d5033f9f 	dsb	sy
    4d4c:	8b02014a 	add	x10, x10, x2
    4d50:	d61f0140 	br	x10
    4d54:	d5033f9f 	dsb	sy
    4d58:	8b02014a 	add	x10, x10, x2
    4d5c:	d61f0140 	br	x10
    4d60:	d5033f9f 	dsb	sy
    4d64:	8b02014a 	add	x10, x10, x2
    4d68:	d61f0140 	br	x10
    4d6c:	d5033f9f 	dsb	sy
    4d70:	8b02014a 	add	x10, x10, x2
    4d74:	d61f0140 	br	x10
    4d78:	d5033f9f 	dsb	sy
    4d7c:	8b02014a 	add	x10, x10, x2
    4d80:	d61f0140 	br	x10
    4d84:	d5033f9f 	dsb	sy
    4d88:	8b02014a 	add	x10, x10, x2
    4d8c:	d61f0140 	br	x10
    4d90:	d5033f9f 	dsb	sy
    4d94:	8b02014a 	add	x10, x10, x2
    4d98:	d61f0140 	br	x10
    4d9c:	d5033f9f 	dsb	sy
    4da0:	8b02014a 	add	x10, x10, x2
    4da4:	d61f0140 	br	x10
    4da8:	d5033f9f 	dsb	sy
    4dac:	8b02014a 	add	x10, x10, x2
    4db0:	d61f0140 	br	x10
    4db4:	d5033f9f 	dsb	sy
    4db8:	8b02014a 	add	x10, x10, x2
    4dbc:	d61f0140 	br	x10
    4dc0:	d5033f9f 	dsb	sy
    4dc4:	8b02014a 	add	x10, x10, x2
    4dc8:	d61f0140 	br	x10
    4dcc:	d5033f9f 	dsb	sy
    4dd0:	8b02014a 	add	x10, x10, x2
    4dd4:	d61f0140 	br	x10
    4dd8:	d5033f9f 	dsb	sy
    4ddc:	8b02014a 	add	x10, x10, x2
    4de0:	d61f0140 	br	x10
    4de4:	d5033f9f 	dsb	sy
    4de8:	8b02014a 	add	x10, x10, x2
    4dec:	d61f0140 	br	x10
    4df0:	d5033f9f 	dsb	sy
    4df4:	8b02014a 	add	x10, x10, x2
    4df8:	d61f0140 	br	x10
    4dfc:	d5033f9f 	dsb	sy
    4e00:	8b02014a 	add	x10, x10, x2
    4e04:	d61f0140 	br	x10
    4e08:	d5033f9f 	dsb	sy
    4e0c:	8b02014a 	add	x10, x10, x2
    4e10:	d61f0140 	br	x10
    4e14:	d5033f9f 	dsb	sy
    4e18:	8b02014a 	add	x10, x10, x2
    4e1c:	d61f0140 	br	x10
    4e20:	d5033f9f 	dsb	sy
    4e24:	8b02014a 	add	x10, x10, x2
    4e28:	d61f0140 	br	x10
    4e2c:	d5033f9f 	dsb	sy
    4e30:	8b02014a 	add	x10, x10, x2
    4e34:	d61f0140 	br	x10
    4e38:	d5033f9f 	dsb	sy
    4e3c:	8b02014a 	add	x10, x10, x2
    4e40:	d61f0140 	br	x10
    4e44:	d5033f9f 	dsb	sy
    4e48:	8b02014a 	add	x10, x10, x2
    4e4c:	d61f0140 	br	x10
    4e50:	d5033f9f 	dsb	sy
    4e54:	8b02014a 	add	x10, x10, x2
    4e58:	d61f0140 	br	x10
    4e5c:	d5033f9f 	dsb	sy
    4e60:	8b02014a 	add	x10, x10, x2
    4e64:	d61f0140 	br	x10
    4e68:	d5033f9f 	dsb	sy
    4e6c:	8b02014a 	add	x10, x10, x2
    4e70:	d61f0140 	br	x10
    4e74:	d5033f9f 	dsb	sy
    4e78:	8b02014a 	add	x10, x10, x2
    4e7c:	d61f0140 	br	x10
    4e80:	d5033f9f 	dsb	sy
    4e84:	8b02014a 	add	x10, x10, x2
    4e88:	d61f0140 	br	x10
    4e8c:	d5033f9f 	dsb	sy
    4e90:	8b02014a 	add	x10, x10, x2
    4e94:	d61f0140 	br	x10
    4e98:	d5033f9f 	dsb	sy
    4e9c:	8b02014a 	add	x10, x10, x2
    4ea0:	d61f0140 	br	x10
    4ea4:	d5033f9f 	dsb	sy
    4ea8:	8b02014a 	add	x10, x10, x2
    4eac:	d61f0140 	br	x10
    4eb0:	d5033f9f 	dsb	sy
    4eb4:	8b02014a 	add	x10, x10, x2
    4eb8:	d61f0140 	br	x10
    4ebc:	d5033f9f 	dsb	sy
    4ec0:	8b02014a 	add	x10, x10, x2
    4ec4:	d61f0140 	br	x10
    4ec8:	d5033f9f 	dsb	sy
    4ecc:	8b02014a 	add	x10, x10, x2
    4ed0:	d61f0140 	br	x10
    4ed4:	d5033f9f 	dsb	sy
    4ed8:	8b02014a 	add	x10, x10, x2
    4edc:	d61f0140 	br	x10
    4ee0:	d5033f9f 	dsb	sy
    4ee4:	8b02014a 	add	x10, x10, x2
    4ee8:	d61f0140 	br	x10
    4eec:	d5033f9f 	dsb	sy
    4ef0:	8b02014a 	add	x10, x10, x2
    4ef4:	d61f0140 	br	x10
    4ef8:	d5033f9f 	dsb	sy
    4efc:	8b02014a 	add	x10, x10, x2
    4f00:	d61f0140 	br	x10
    4f04:	d5033f9f 	dsb	sy
    4f08:	8b02014a 	add	x10, x10, x2
    4f0c:	d61f0140 	br	x10
    4f10:	d5033f9f 	dsb	sy
    4f14:	8b02014a 	add	x10, x10, x2
    4f18:	d61f0140 	br	x10
    4f1c:	d5033f9f 	dsb	sy
    4f20:	8b02014a 	add	x10, x10, x2
    4f24:	d61f0140 	br	x10
    4f28:	d5033f9f 	dsb	sy
    4f2c:	8b02014a 	add	x10, x10, x2
    4f30:	d61f0140 	br	x10
    4f34:	d5033f9f 	dsb	sy
    4f38:	8b02014a 	add	x10, x10, x2
    4f3c:	d61f0140 	br	x10
    4f40:	d5033f9f 	dsb	sy
    4f44:	8b02014a 	add	x10, x10, x2
    4f48:	d61f0140 	br	x10
    4f4c:	d5033f9f 	dsb	sy
    4f50:	8b02014a 	add	x10, x10, x2
    4f54:	d61f0140 	br	x10
    4f58:	d5033f9f 	dsb	sy
    4f5c:	8b02014a 	add	x10, x10, x2
    4f60:	d61f0140 	br	x10
    4f64:	d5033f9f 	dsb	sy
    4f68:	8b02014a 	add	x10, x10, x2
    4f6c:	d61f0140 	br	x10
    4f70:	d5033f9f 	dsb	sy
    4f74:	8b02014a 	add	x10, x10, x2
    4f78:	d61f0140 	br	x10
    4f7c:	d5033f9f 	dsb	sy
    4f80:	8b02014a 	add	x10, x10, x2
    4f84:	d61f0140 	br	x10
    4f88:	d5033f9f 	dsb	sy
    4f8c:	8b02014a 	add	x10, x10, x2
    4f90:	d61f0140 	br	x10
    4f94:	d5033f9f 	dsb	sy
    4f98:	8b02014a 	add	x10, x10, x2
    4f9c:	d61f0140 	br	x10
    4fa0:	d5033f9f 	dsb	sy
    4fa4:	8b02014a 	add	x10, x10, x2
    4fa8:	d61f0140 	br	x10
    4fac:	d5033f9f 	dsb	sy
    4fb0:	8b02014a 	add	x10, x10, x2
    4fb4:	d61f0140 	br	x10
    4fb8:	d5033f9f 	dsb	sy
    4fbc:	8b02014a 	add	x10, x10, x2
    4fc0:	d61f0140 	br	x10
    4fc4:	d5033f9f 	dsb	sy
    4fc8:	8b02014a 	add	x10, x10, x2
    4fcc:	d61f0140 	br	x10
    4fd0:	d5033f9f 	dsb	sy
    4fd4:	8b02014a 	add	x10, x10, x2
    4fd8:	d61f0140 	br	x10
    4fdc:	d5033f9f 	dsb	sy
    4fe0:	8b02014a 	add	x10, x10, x2
    4fe4:	d61f0140 	br	x10
    4fe8:	d5033f9f 	dsb	sy
    4fec:	8b02014a 	add	x10, x10, x2
    4ff0:	d61f0140 	br	x10
    4ff4:	d5033f9f 	dsb	sy
    4ff8:	8b02014a 	add	x10, x10, x2
    4ffc:	d61f0140 	br	x10
    5000:	d5033f9f 	dsb	sy
    5004:	8b02014a 	add	x10, x10, x2
    5008:	d61f0140 	br	x10
    500c:	d5033f9f 	dsb	sy
    5010:	8b02014a 	add	x10, x10, x2
    5014:	d61f0140 	br	x10
    5018:	d5033f9f 	dsb	sy
    501c:	8b02014a 	add	x10, x10, x2
    5020:	d61f0140 	br	x10
    5024:	d5033f9f 	dsb	sy
    5028:	8b02014a 	add	x10, x10, x2
    502c:	d61f0140 	br	x10
    5030:	d5033f9f 	dsb	sy
    5034:	8b02014a 	add	x10, x10, x2
    5038:	d61f0140 	br	x10
    503c:	d5033f9f 	dsb	sy
    5040:	8b02014a 	add	x10, x10, x2
    5044:	d61f0140 	br	x10
    5048:	d5033f9f 	dsb	sy
    504c:	8b02014a 	add	x10, x10, x2
    5050:	d61f0140 	br	x10
    5054:	d5033f9f 	dsb	sy
    5058:	8b02014a 	add	x10, x10, x2
    505c:	d61f0140 	br	x10
    5060:	d5033f9f 	dsb	sy
    5064:	8b02014a 	add	x10, x10, x2
    5068:	d61f0140 	br	x10
    506c:	d5033f9f 	dsb	sy
    5070:	8b02014a 	add	x10, x10, x2
    5074:	d61f0140 	br	x10
    5078:	d5033f9f 	dsb	sy
    507c:	8b02014a 	add	x10, x10, x2
    5080:	d61f0140 	br	x10
    5084:	d5033f9f 	dsb	sy
    5088:	8b02014a 	add	x10, x10, x2
    508c:	d61f0140 	br	x10
    5090:	d5033f9f 	dsb	sy
    5094:	8b02014a 	add	x10, x10, x2
    5098:	d61f0140 	br	x10
    509c:	d5033f9f 	dsb	sy
    50a0:	8b02014a 	add	x10, x10, x2
    50a4:	d61f0140 	br	x10
    50a8:	d5033f9f 	dsb	sy
    50ac:	8b02014a 	add	x10, x10, x2
    50b0:	d61f0140 	br	x10
    50b4:	d5033f9f 	dsb	sy
    50b8:	8b02014a 	add	x10, x10, x2
    50bc:	d61f0140 	br	x10
    50c0:	d5033f9f 	dsb	sy
    50c4:	8b02014a 	add	x10, x10, x2
    50c8:	d61f0140 	br	x10
    50cc:	d5033f9f 	dsb	sy
    50d0:	8b02014a 	add	x10, x10, x2
    50d4:	d61f0140 	br	x10
    50d8:	d5033f9f 	dsb	sy
    50dc:	8b02014a 	add	x10, x10, x2
    50e0:	d61f0140 	br	x10
    50e4:	d5033f9f 	dsb	sy
    50e8:	8b02014a 	add	x10, x10, x2
    50ec:	d61f0140 	br	x10
    50f0:	d5033f9f 	dsb	sy
    50f4:	8b02014a 	add	x10, x10, x2
    50f8:	d61f0140 	br	x10
    50fc:	d5033f9f 	dsb	sy
    5100:	8b02014a 	add	x10, x10, x2
    5104:	d61f0140 	br	x10
    5108:	d5033f9f 	dsb	sy
    510c:	8b02014a 	add	x10, x10, x2
    5110:	d61f0140 	br	x10
    5114:	d5033f9f 	dsb	sy
    5118:	8b02014a 	add	x10, x10, x2
    511c:	d61f0140 	br	x10
    5120:	d5033f9f 	dsb	sy
    5124:	8b02014a 	add	x10, x10, x2
    5128:	d61f0140 	br	x10
    512c:	d5033f9f 	dsb	sy
    5130:	8b02014a 	add	x10, x10, x2
    5134:	d61f0140 	br	x10
    5138:	d5033f9f 	dsb	sy
    513c:	8b02014a 	add	x10, x10, x2
    5140:	d61f0140 	br	x10
    5144:	d5033f9f 	dsb	sy
    5148:	8b02014a 	add	x10, x10, x2
    514c:	d61f0140 	br	x10
    5150:	d5033f9f 	dsb	sy
    5154:	8b02014a 	add	x10, x10, x2
    5158:	d61f0140 	br	x10
    515c:	d5033f9f 	dsb	sy
    5160:	8b02014a 	add	x10, x10, x2
    5164:	d61f0140 	br	x10
    5168:	d5033f9f 	dsb	sy
    516c:	8b02014a 	add	x10, x10, x2
    5170:	d61f0140 	br	x10
    5174:	d5033f9f 	dsb	sy
    5178:	8b02014a 	add	x10, x10, x2
    517c:	d61f0140 	br	x10
    5180:	d5033f9f 	dsb	sy
    5184:	8b02014a 	add	x10, x10, x2
    5188:	d61f0140 	br	x10
    518c:	d5033f9f 	dsb	sy
    5190:	8b02014a 	add	x10, x10, x2
    5194:	d61f0140 	br	x10
    5198:	d5033f9f 	dsb	sy
    519c:	8b02014a 	add	x10, x10, x2
    51a0:	d61f0140 	br	x10
    51a4:	d5033f9f 	dsb	sy
    51a8:	8b02014a 	add	x10, x10, x2
    51ac:	d61f0140 	br	x10
    51b0:	d5033f9f 	dsb	sy
    51b4:	8b02014a 	add	x10, x10, x2
    51b8:	d61f0140 	br	x10
    51bc:	d5033f9f 	dsb	sy
    51c0:	8b02014a 	add	x10, x10, x2
    51c4:	d61f0140 	br	x10
    51c8:	d5033f9f 	dsb	sy
    51cc:	8b02014a 	add	x10, x10, x2
    51d0:	d61f0140 	br	x10
    51d4:	d5033f9f 	dsb	sy
    51d8:	8b02014a 	add	x10, x10, x2
    51dc:	d61f0140 	br	x10
    51e0:	d5033f9f 	dsb	sy
    51e4:	8b02014a 	add	x10, x10, x2
    51e8:	d61f0140 	br	x10
    51ec:	d5033f9f 	dsb	sy
    51f0:	8b02014a 	add	x10, x10, x2
    51f4:	d61f0140 	br	x10
    51f8:	d5033f9f 	dsb	sy
    51fc:	8b02014a 	add	x10, x10, x2
    5200:	d61f0140 	br	x10
    5204:	d5033f9f 	dsb	sy
    5208:	8b02014a 	add	x10, x10, x2
    520c:	d61f0140 	br	x10
    5210:	d5033f9f 	dsb	sy
    5214:	8b02014a 	add	x10, x10, x2
    5218:	d61f0140 	br	x10
    521c:	d5033f9f 	dsb	sy
    5220:	8b02014a 	add	x10, x10, x2
    5224:	d61f0140 	br	x10
    5228:	d5033f9f 	dsb	sy
    522c:	8b02014a 	add	x10, x10, x2
    5230:	d61f0140 	br	x10
    5234:	d5033f9f 	dsb	sy
    5238:	8b02014a 	add	x10, x10, x2
    523c:	d61f0140 	br	x10
    5240:	d5033f9f 	dsb	sy
    5244:	8b02014a 	add	x10, x10, x2
    5248:	d61f0140 	br	x10
    524c:	d5033f9f 	dsb	sy
    5250:	8b02014a 	add	x10, x10, x2
    5254:	d61f0140 	br	x10
    5258:	d5033f9f 	dsb	sy
    525c:	8b02014a 	add	x10, x10, x2
    5260:	d61f0140 	br	x10
    5264:	d5033f9f 	dsb	sy
    5268:	8b02014a 	add	x10, x10, x2
    526c:	d61f0140 	br	x10
    5270:	d5033f9f 	dsb	sy
    5274:	8b02014a 	add	x10, x10, x2
    5278:	d61f0140 	br	x10
    527c:	d5033f9f 	dsb	sy
    5280:	8b02014a 	add	x10, x10, x2
    5284:	d61f0140 	br	x10
    5288:	d5033f9f 	dsb	sy
    528c:	8b02014a 	add	x10, x10, x2
    5290:	d61f0140 	br	x10
    5294:	d5033f9f 	dsb	sy
    5298:	8b02014a 	add	x10, x10, x2
    529c:	d61f0140 	br	x10
    52a0:	d5033f9f 	dsb	sy
    52a4:	8b02014a 	add	x10, x10, x2
    52a8:	d61f0140 	br	x10
    52ac:	d5033f9f 	dsb	sy
    52b0:	8b02014a 	add	x10, x10, x2
    52b4:	d61f0140 	br	x10
    52b8:	d5033f9f 	dsb	sy
    52bc:	8b02014a 	add	x10, x10, x2
    52c0:	d61f0140 	br	x10
    52c4:	d5033f9f 	dsb	sy
    52c8:	8b02014a 	add	x10, x10, x2
    52cc:	d61f0140 	br	x10
    52d0:	d5033f9f 	dsb	sy
    52d4:	8b02014a 	add	x10, x10, x2
    52d8:	d61f0140 	br	x10
    52dc:	d5033f9f 	dsb	sy
    52e0:	8b02014a 	add	x10, x10, x2
    52e4:	d61f0140 	br	x10
    52e8:	d5033f9f 	dsb	sy
    52ec:	8b02014a 	add	x10, x10, x2
    52f0:	d61f0140 	br	x10
    52f4:	d5033f9f 	dsb	sy
    52f8:	8b02014a 	add	x10, x10, x2
    52fc:	d61f0140 	br	x10
    5300:	d5033f9f 	dsb	sy
    5304:	8b02014a 	add	x10, x10, x2
    5308:	d61f0140 	br	x10
    530c:	d5033f9f 	dsb	sy
    5310:	8b02014a 	add	x10, x10, x2
    5314:	d61f0140 	br	x10
    5318:	d5033f9f 	dsb	sy
    531c:	8b02014a 	add	x10, x10, x2
    5320:	d61f0140 	br	x10
    5324:	d5033f9f 	dsb	sy
    5328:	8b02014a 	add	x10, x10, x2
    532c:	d61f0140 	br	x10
    5330:	d5033f9f 	dsb	sy
    5334:	8b02014a 	add	x10, x10, x2
    5338:	d61f0140 	br	x10
    533c:	d5033f9f 	dsb	sy
    5340:	8b02014a 	add	x10, x10, x2
    5344:	d61f0140 	br	x10
    5348:	d5033f9f 	dsb	sy
    534c:	8b02014a 	add	x10, x10, x2
    5350:	d61f0140 	br	x10
    5354:	d5033f9f 	dsb	sy
    5358:	8b02014a 	add	x10, x10, x2
    535c:	d61f0140 	br	x10
    5360:	d5033f9f 	dsb	sy
    5364:	8b02014a 	add	x10, x10, x2
    5368:	d61f0140 	br	x10
    536c:	d5033f9f 	dsb	sy
    5370:	8b02014a 	add	x10, x10, x2
    5374:	d61f0140 	br	x10
    5378:	d5033f9f 	dsb	sy
    537c:	8b02014a 	add	x10, x10, x2
    5380:	d61f0140 	br	x10
    5384:	d5033f9f 	dsb	sy
    5388:	8b02014a 	add	x10, x10, x2
    538c:	d61f0140 	br	x10
    5390:	d5033f9f 	dsb	sy
    5394:	8b02014a 	add	x10, x10, x2
    5398:	d61f0140 	br	x10
    539c:	d5033f9f 	dsb	sy
    53a0:	8b02014a 	add	x10, x10, x2
    53a4:	d61f0140 	br	x10
    53a8:	d5033f9f 	dsb	sy
    53ac:	8b02014a 	add	x10, x10, x2
    53b0:	d61f0140 	br	x10
    53b4:	d5033f9f 	dsb	sy
    53b8:	8b02014a 	add	x10, x10, x2
    53bc:	d61f0140 	br	x10
    53c0:	d5033f9f 	dsb	sy
    53c4:	8b02014a 	add	x10, x10, x2
    53c8:	d61f0140 	br	x10
    53cc:	d5033f9f 	dsb	sy
    53d0:	8b02014a 	add	x10, x10, x2
    53d4:	d61f0140 	br	x10
    53d8:	d5033f9f 	dsb	sy
    53dc:	8b02014a 	add	x10, x10, x2
    53e0:	d61f0140 	br	x10
    53e4:	d5033f9f 	dsb	sy
    53e8:	8b02014a 	add	x10, x10, x2
    53ec:	d61f0140 	br	x10
    53f0:	d5033f9f 	dsb	sy
    53f4:	8b02014a 	add	x10, x10, x2
    53f8:	d61f0140 	br	x10
    53fc:	d5033f9f 	dsb	sy
    5400:	8b02014a 	add	x10, x10, x2
    5404:	d61f0140 	br	x10
    5408:	d5033f9f 	dsb	sy
    540c:	8b02014a 	add	x10, x10, x2
    5410:	d61f0140 	br	x10
    5414:	d5033f9f 	dsb	sy
    5418:	8b02014a 	add	x10, x10, x2
    541c:	d61f0140 	br	x10
    5420:	d5033f9f 	dsb	sy
    5424:	8b02014a 	add	x10, x10, x2
    5428:	d61f0140 	br	x10
    542c:	d5033f9f 	dsb	sy
    5430:	8b02014a 	add	x10, x10, x2
    5434:	d61f0140 	br	x10
    5438:	d5033f9f 	dsb	sy
    543c:	8b02014a 	add	x10, x10, x2
    5440:	d61f0140 	br	x10
    5444:	d5033f9f 	dsb	sy
    5448:	8b02014a 	add	x10, x10, x2
    544c:	d61f0140 	br	x10
    5450:	d5033f9f 	dsb	sy
    5454:	8b02014a 	add	x10, x10, x2
    5458:	d61f0140 	br	x10
    545c:	d5033f9f 	dsb	sy
    5460:	8b02014a 	add	x10, x10, x2
    5464:	d61f0140 	br	x10
    5468:	d5033f9f 	dsb	sy
    546c:	8b02014a 	add	x10, x10, x2
    5470:	d61f0140 	br	x10
    5474:	d5033f9f 	dsb	sy
    5478:	8b02014a 	add	x10, x10, x2
    547c:	d61f0140 	br	x10
    5480:	d5033f9f 	dsb	sy
    5484:	8b02014a 	add	x10, x10, x2
    5488:	d61f0140 	br	x10
    548c:	d5033f9f 	dsb	sy
    5490:	8b02014a 	add	x10, x10, x2
    5494:	d61f0140 	br	x10
    5498:	d5033f9f 	dsb	sy
    549c:	8b02014a 	add	x10, x10, x2
    54a0:	d61f0140 	br	x10
    54a4:	d5033f9f 	dsb	sy
    54a8:	8b02014a 	add	x10, x10, x2
    54ac:	d61f0140 	br	x10
    54b0:	d5033f9f 	dsb	sy
    54b4:	8b02014a 	add	x10, x10, x2
    54b8:	d61f0140 	br	x10
    54bc:	d5033f9f 	dsb	sy
    54c0:	8b02014a 	add	x10, x10, x2
    54c4:	d61f0140 	br	x10
    54c8:	d5033f9f 	dsb	sy
    54cc:	8b02014a 	add	x10, x10, x2
    54d0:	d61f0140 	br	x10
    54d4:	d5033f9f 	dsb	sy
    54d8:	8b02014a 	add	x10, x10, x2
    54dc:	d61f0140 	br	x10
    54e0:	d5033f9f 	dsb	sy
    54e4:	8b02014a 	add	x10, x10, x2
    54e8:	d61f0140 	br	x10
    54ec:	d5033f9f 	dsb	sy
    54f0:	8b02014a 	add	x10, x10, x2
    54f4:	d61f0140 	br	x10
    54f8:	d5033f9f 	dsb	sy
    54fc:	8b02014a 	add	x10, x10, x2
    5500:	d61f0140 	br	x10
    5504:	d5033f9f 	dsb	sy
    5508:	8b02014a 	add	x10, x10, x2
    550c:	d61f0140 	br	x10
    5510:	d5033f9f 	dsb	sy
    5514:	8b02014a 	add	x10, x10, x2
    5518:	d61f0140 	br	x10
    551c:	d5033f9f 	dsb	sy
    5520:	8b02014a 	add	x10, x10, x2
    5524:	d61f0140 	br	x10
    5528:	d5033f9f 	dsb	sy
    552c:	8b02014a 	add	x10, x10, x2
    5530:	d61f0140 	br	x10
    5534:	d5033f9f 	dsb	sy
    5538:	8b02014a 	add	x10, x10, x2
    553c:	d61f0140 	br	x10
    5540:	d5033f9f 	dsb	sy
    5544:	8b02014a 	add	x10, x10, x2
    5548:	d61f0140 	br	x10
    554c:	d5033f9f 	dsb	sy
    5550:	8b02014a 	add	x10, x10, x2
    5554:	d61f0140 	br	x10
    5558:	d5033f9f 	dsb	sy
    555c:	8b02014a 	add	x10, x10, x2
    5560:	d61f0140 	br	x10
    5564:	d5033f9f 	dsb	sy
    5568:	8b02014a 	add	x10, x10, x2
    556c:	d61f0140 	br	x10
    5570:	d5033f9f 	dsb	sy
    5574:	8b02014a 	add	x10, x10, x2
    5578:	d61f0140 	br	x10
    557c:	d5033f9f 	dsb	sy
    5580:	8b02014a 	add	x10, x10, x2
    5584:	d61f0140 	br	x10
    5588:	d5033f9f 	dsb	sy
    558c:	8b02014a 	add	x10, x10, x2
    5590:	d61f0140 	br	x10
    5594:	d5033f9f 	dsb	sy
    5598:	8b02014a 	add	x10, x10, x2
    559c:	d61f0140 	br	x10
    55a0:	d5033f9f 	dsb	sy
    55a4:	8b02014a 	add	x10, x10, x2
    55a8:	d61f0140 	br	x10
    55ac:	d5033f9f 	dsb	sy
    55b0:	8b02014a 	add	x10, x10, x2
    55b4:	d61f0140 	br	x10
    55b8:	d5033f9f 	dsb	sy
    55bc:	8b02014a 	add	x10, x10, x2
    55c0:	d61f0140 	br	x10
    55c4:	d5033f9f 	dsb	sy
    55c8:	8b02014a 	add	x10, x10, x2
    55cc:	d61f0140 	br	x10
    55d0:	d5033f9f 	dsb	sy
    55d4:	8b02014a 	add	x10, x10, x2
    55d8:	d61f0140 	br	x10
    55dc:	d5033f9f 	dsb	sy
    55e0:	8b02014a 	add	x10, x10, x2
    55e4:	d61f0140 	br	x10
    55e8:	d5033f9f 	dsb	sy
    55ec:	8b02014a 	add	x10, x10, x2
    55f0:	d61f0140 	br	x10
    55f4:	d5033f9f 	dsb	sy
    55f8:	8b02014a 	add	x10, x10, x2
    55fc:	d61f0140 	br	x10
    5600:	d5033f9f 	dsb	sy
    5604:	8b02014a 	add	x10, x10, x2
    5608:	d61f0140 	br	x10
    560c:	d5033f9f 	dsb	sy
    5610:	8b02014a 	add	x10, x10, x2
    5614:	d61f0140 	br	x10
    5618:	d5033f9f 	dsb	sy
    561c:	8b02014a 	add	x10, x10, x2
    5620:	d61f0140 	br	x10
    5624:	d5033f9f 	dsb	sy
    5628:	8b02014a 	add	x10, x10, x2
    562c:	d61f0140 	br	x10
    5630:	d5033f9f 	dsb	sy
    5634:	8b02014a 	add	x10, x10, x2
    5638:	d61f0140 	br	x10
    563c:	d5033f9f 	dsb	sy
    5640:	8b02014a 	add	x10, x10, x2
    5644:	d61f0140 	br	x10
    5648:	d5033f9f 	dsb	sy
    564c:	8b02014a 	add	x10, x10, x2
    5650:	d61f0140 	br	x10
    5654:	d5033f9f 	dsb	sy
    5658:	8b02014a 	add	x10, x10, x2
    565c:	d61f0140 	br	x10
    5660:	d5033f9f 	dsb	sy
    5664:	8b02014a 	add	x10, x10, x2
    5668:	d61f0140 	br	x10
    566c:	d5033f9f 	dsb	sy
    5670:	8b02014a 	add	x10, x10, x2
    5674:	d61f0140 	br	x10
    5678:	d5033f9f 	dsb	sy
    567c:	8b02014a 	add	x10, x10, x2
    5680:	d61f0140 	br	x10
    5684:	d5033f9f 	dsb	sy
    5688:	8b02014a 	add	x10, x10, x2
    568c:	d61f0140 	br	x10
    5690:	d5033f9f 	dsb	sy
    5694:	8b02014a 	add	x10, x10, x2
    5698:	d61f0140 	br	x10
    569c:	d5033f9f 	dsb	sy
    56a0:	8b02014a 	add	x10, x10, x2
    56a4:	d61f0140 	br	x10
    56a8:	d5033f9f 	dsb	sy
    56ac:	8b02014a 	add	x10, x10, x2
    56b0:	d61f0140 	br	x10
    56b4:	d5033f9f 	dsb	sy
    56b8:	8b02014a 	add	x10, x10, x2
    56bc:	d61f0140 	br	x10
    56c0:	d5033f9f 	dsb	sy
    56c4:	8b02014a 	add	x10, x10, x2
    56c8:	d61f0140 	br	x10
    56cc:	d5033f9f 	dsb	sy
    56d0:	8b02014a 	add	x10, x10, x2
    56d4:	d61f0140 	br	x10
    56d8:	d5033f9f 	dsb	sy
    56dc:	8b02014a 	add	x10, x10, x2
    56e0:	d61f0140 	br	x10
    56e4:	d5033f9f 	dsb	sy
    56e8:	8b02014a 	add	x10, x10, x2
    56ec:	d61f0140 	br	x10
    56f0:	d5033f9f 	dsb	sy
    56f4:	8b02014a 	add	x10, x10, x2
    56f8:	d61f0140 	br	x10
    56fc:	d5033f9f 	dsb	sy
    5700:	8b02014a 	add	x10, x10, x2
    5704:	d61f0140 	br	x10
    5708:	d5033f9f 	dsb	sy
    570c:	8b02014a 	add	x10, x10, x2
    5710:	d61f0140 	br	x10
    5714:	d5033f9f 	dsb	sy
    5718:	8b02014a 	add	x10, x10, x2
    571c:	d61f0140 	br	x10
    5720:	d5033f9f 	dsb	sy
    5724:	8b02014a 	add	x10, x10, x2
    5728:	d61f0140 	br	x10
    572c:	d5033f9f 	dsb	sy
    5730:	8b02014a 	add	x10, x10, x2
    5734:	d61f0140 	br	x10
    5738:	d5033f9f 	dsb	sy
    573c:	8b02014a 	add	x10, x10, x2
    5740:	d61f0140 	br	x10
    5744:	d5033f9f 	dsb	sy
    5748:	8b02014a 	add	x10, x10, x2
    574c:	d61f0140 	br	x10
    5750:	d5033f9f 	dsb	sy
    5754:	8b02014a 	add	x10, x10, x2
    5758:	d61f0140 	br	x10
    575c:	d5033f9f 	dsb	sy
    5760:	8b02014a 	add	x10, x10, x2
    5764:	d61f0140 	br	x10
    5768:	d5033f9f 	dsb	sy
    576c:	8b02014a 	add	x10, x10, x2
    5770:	d61f0140 	br	x10
    5774:	d5033f9f 	dsb	sy
    5778:	8b02014a 	add	x10, x10, x2
    577c:	d61f0140 	br	x10
    5780:	d5033f9f 	dsb	sy
    5784:	8b02014a 	add	x10, x10, x2
    5788:	d61f0140 	br	x10
    578c:	d5033f9f 	dsb	sy
    5790:	8b02014a 	add	x10, x10, x2
    5794:	d61f0140 	br	x10
    5798:	d5033f9f 	dsb	sy
    579c:	8b02014a 	add	x10, x10, x2
    57a0:	d61f0140 	br	x10
    57a4:	d5033f9f 	dsb	sy
    57a8:	8b02014a 	add	x10, x10, x2
    57ac:	d61f0140 	br	x10
    57b0:	d5033f9f 	dsb	sy
    57b4:	8b02014a 	add	x10, x10, x2
    57b8:	d61f0140 	br	x10
    57bc:	d5033f9f 	dsb	sy
    57c0:	8b02014a 	add	x10, x10, x2
    57c4:	d61f0140 	br	x10
    57c8:	d5033f9f 	dsb	sy
    57cc:	8b02014a 	add	x10, x10, x2
    57d0:	d61f0140 	br	x10
    57d4:	d5033f9f 	dsb	sy
    57d8:	8b02014a 	add	x10, x10, x2
    57dc:	d61f0140 	br	x10
    57e0:	d5033f9f 	dsb	sy
    57e4:	8b02014a 	add	x10, x10, x2
    57e8:	d61f0140 	br	x10
    57ec:	d5033f9f 	dsb	sy
    57f0:	8b02014a 	add	x10, x10, x2
    57f4:	d61f0140 	br	x10
    57f8:	d5033f9f 	dsb	sy
    57fc:	8b02014a 	add	x10, x10, x2
    5800:	d61f0140 	br	x10
    5804:	d5033f9f 	dsb	sy
    5808:	8b02014a 	add	x10, x10, x2
    580c:	d61f0140 	br	x10
    5810:	d5033f9f 	dsb	sy
    5814:	8b02014a 	add	x10, x10, x2
    5818:	d61f0140 	br	x10
    581c:	d5033f9f 	dsb	sy
    5820:	8b02014a 	add	x10, x10, x2
    5824:	d61f0140 	br	x10
    5828:	d5033f9f 	dsb	sy
    582c:	8b02014a 	add	x10, x10, x2
    5830:	d61f0140 	br	x10
    5834:	d5033f9f 	dsb	sy
    5838:	8b02014a 	add	x10, x10, x2
    583c:	d61f0140 	br	x10
    5840:	d5033f9f 	dsb	sy
    5844:	8b02014a 	add	x10, x10, x2
    5848:	d61f0140 	br	x10
    584c:	d5033f9f 	dsb	sy
    5850:	8b02014a 	add	x10, x10, x2
    5854:	d61f0140 	br	x10
    5858:	d5033f9f 	dsb	sy
    585c:	8b02014a 	add	x10, x10, x2
    5860:	d61f0140 	br	x10
    5864:	d5033f9f 	dsb	sy
    5868:	8b02014a 	add	x10, x10, x2
    586c:	d61f0140 	br	x10
    5870:	d5033f9f 	dsb	sy
    5874:	8b02014a 	add	x10, x10, x2
    5878:	d61f0140 	br	x10
    587c:	d5033f9f 	dsb	sy
    5880:	8b02014a 	add	x10, x10, x2
    5884:	d61f0140 	br	x10
    5888:	d5033f9f 	dsb	sy
    588c:	8b02014a 	add	x10, x10, x2
    5890:	d61f0140 	br	x10
    5894:	d5033f9f 	dsb	sy
    5898:	8b02014a 	add	x10, x10, x2
    589c:	d61f0140 	br	x10
    58a0:	d5033f9f 	dsb	sy
    58a4:	8b02014a 	add	x10, x10, x2
    58a8:	d61f0140 	br	x10
    58ac:	d5033f9f 	dsb	sy
    58b0:	8b02014a 	add	x10, x10, x2
    58b4:	d61f0140 	br	x10
    58b8:	d5033f9f 	dsb	sy
    58bc:	8b02014a 	add	x10, x10, x2
    58c0:	d61f0140 	br	x10
    58c4:	d5033f9f 	dsb	sy
    58c8:	8b02014a 	add	x10, x10, x2
    58cc:	d61f0140 	br	x10
    58d0:	d5033f9f 	dsb	sy
    58d4:	8b02014a 	add	x10, x10, x2
    58d8:	d61f0140 	br	x10
    58dc:	d5033f9f 	dsb	sy
    58e0:	8b02014a 	add	x10, x10, x2
    58e4:	d61f0140 	br	x10
    58e8:	d5033f9f 	dsb	sy
    58ec:	8b02014a 	add	x10, x10, x2
    58f0:	d61f0140 	br	x10
    58f4:	d5033f9f 	dsb	sy
    58f8:	8b02014a 	add	x10, x10, x2
    58fc:	d61f0140 	br	x10
    5900:	d5033f9f 	dsb	sy
    5904:	8b02014a 	add	x10, x10, x2
    5908:	d61f0140 	br	x10
    590c:	d5033f9f 	dsb	sy
    5910:	8b02014a 	add	x10, x10, x2
    5914:	d61f0140 	br	x10
    5918:	d5033f9f 	dsb	sy
    591c:	8b02014a 	add	x10, x10, x2
    5920:	d61f0140 	br	x10
    5924:	d5033f9f 	dsb	sy
    5928:	8b02014a 	add	x10, x10, x2
    592c:	d61f0140 	br	x10
    5930:	d5033f9f 	dsb	sy
    5934:	8b02014a 	add	x10, x10, x2
    5938:	d61f0140 	br	x10
    593c:	d5033f9f 	dsb	sy
    5940:	8b02014a 	add	x10, x10, x2
    5944:	d61f0140 	br	x10
    5948:	d5033f9f 	dsb	sy
    594c:	8b02014a 	add	x10, x10, x2
    5950:	d61f0140 	br	x10
    5954:	d5033f9f 	dsb	sy
    5958:	8b02014a 	add	x10, x10, x2
    595c:	d61f0140 	br	x10
    5960:	d5033f9f 	dsb	sy
    5964:	8b02014a 	add	x10, x10, x2
    5968:	d61f0140 	br	x10
    596c:	d5033f9f 	dsb	sy
    5970:	8b02014a 	add	x10, x10, x2
    5974:	d61f0140 	br	x10
    5978:	d5033f9f 	dsb	sy
    597c:	8b02014a 	add	x10, x10, x2
    5980:	d61f0140 	br	x10
    5984:	d5033f9f 	dsb	sy
    5988:	8b02014a 	add	x10, x10, x2
    598c:	d61f0140 	br	x10
    5990:	d5033f9f 	dsb	sy
    5994:	8b02014a 	add	x10, x10, x2
    5998:	d61f0140 	br	x10
    599c:	d5033f9f 	dsb	sy
    59a0:	8b02014a 	add	x10, x10, x2
    59a4:	d61f0140 	br	x10
    59a8:	d5033f9f 	dsb	sy
    59ac:	8b02014a 	add	x10, x10, x2
    59b0:	d61f0140 	br	x10
    59b4:	d5033f9f 	dsb	sy
    59b8:	8b02014a 	add	x10, x10, x2
    59bc:	d61f0140 	br	x10
    59c0:	d5033f9f 	dsb	sy
    59c4:	8b02014a 	add	x10, x10, x2
    59c8:	d61f0140 	br	x10
    59cc:	d5033f9f 	dsb	sy
    59d0:	8b02014a 	add	x10, x10, x2
    59d4:	d61f0140 	br	x10
    59d8:	d5033f9f 	dsb	sy
    59dc:	8b02014a 	add	x10, x10, x2
    59e0:	d61f0140 	br	x10
    59e4:	d5033f9f 	dsb	sy
    59e8:	8b02014a 	add	x10, x10, x2
    59ec:	d61f0140 	br	x10
    59f0:	d5033f9f 	dsb	sy
    59f4:	8b02014a 	add	x10, x10, x2
    59f8:	d61f0140 	br	x10
    59fc:	d5033f9f 	dsb	sy
    5a00:	8b02014a 	add	x10, x10, x2
    5a04:	d61f0140 	br	x10
    5a08:	d5033f9f 	dsb	sy
    5a0c:	8b02014a 	add	x10, x10, x2
    5a10:	d61f0140 	br	x10
    5a14:	d5033f9f 	dsb	sy
    5a18:	8b02014a 	add	x10, x10, x2
    5a1c:	d61f0140 	br	x10
    5a20:	d5033f9f 	dsb	sy
    5a24:	8b02014a 	add	x10, x10, x2
    5a28:	d61f0140 	br	x10
    5a2c:	d5033f9f 	dsb	sy
    5a30:	8b02014a 	add	x10, x10, x2
    5a34:	d61f0140 	br	x10
    5a38:	d5033f9f 	dsb	sy
    5a3c:	8b02014a 	add	x10, x10, x2
    5a40:	d61f0140 	br	x10
    5a44:	d5033f9f 	dsb	sy
    5a48:	8b02014a 	add	x10, x10, x2
    5a4c:	d61f0140 	br	x10
    5a50:	d5033f9f 	dsb	sy
    5a54:	8b02014a 	add	x10, x10, x2
    5a58:	d61f0140 	br	x10
    5a5c:	d5033f9f 	dsb	sy
    5a60:	8b02014a 	add	x10, x10, x2
    5a64:	d61f0140 	br	x10
    5a68:	d5033f9f 	dsb	sy
    5a6c:	8b02014a 	add	x10, x10, x2
    5a70:	d61f0140 	br	x10
    5a74:	d5033f9f 	dsb	sy
    5a78:	8b02014a 	add	x10, x10, x2
    5a7c:	d61f0140 	br	x10
    5a80:	d5033f9f 	dsb	sy
    5a84:	8b02014a 	add	x10, x10, x2
    5a88:	d61f0140 	br	x10
    5a8c:	d5033f9f 	dsb	sy
    5a90:	8b02014a 	add	x10, x10, x2
    5a94:	d61f0140 	br	x10
    5a98:	d5033f9f 	dsb	sy
    5a9c:	8b02014a 	add	x10, x10, x2
    5aa0:	d61f0140 	br	x10
    5aa4:	d5033f9f 	dsb	sy
    5aa8:	8b02014a 	add	x10, x10, x2
    5aac:	d61f0140 	br	x10
    5ab0:	d5033f9f 	dsb	sy
    5ab4:	8b02014a 	add	x10, x10, x2
    5ab8:	d61f0140 	br	x10
    5abc:	d5033f9f 	dsb	sy
    5ac0:	8b02014a 	add	x10, x10, x2
    5ac4:	d61f0140 	br	x10
    5ac8:	d5033f9f 	dsb	sy
    5acc:	8b02014a 	add	x10, x10, x2
    5ad0:	d61f0140 	br	x10
    5ad4:	d5033f9f 	dsb	sy
    5ad8:	8b02014a 	add	x10, x10, x2
    5adc:	d61f0140 	br	x10
    5ae0:	d5033f9f 	dsb	sy
    5ae4:	8b02014a 	add	x10, x10, x2
    5ae8:	d61f0140 	br	x10
    5aec:	d5033f9f 	dsb	sy
    5af0:	8b02014a 	add	x10, x10, x2
    5af4:	d61f0140 	br	x10
    5af8:	d5033f9f 	dsb	sy
    5afc:	8b02014a 	add	x10, x10, x2
    5b00:	d61f0140 	br	x10
    5b04:	d5033f9f 	dsb	sy
    5b08:	8b02014a 	add	x10, x10, x2
    5b0c:	d61f0140 	br	x10
    5b10:	d5033f9f 	dsb	sy
    5b14:	8b02014a 	add	x10, x10, x2
    5b18:	d61f0140 	br	x10
    5b1c:	d5033f9f 	dsb	sy
    5b20:	8b02014a 	add	x10, x10, x2
    5b24:	d61f0140 	br	x10
    5b28:	d5033f9f 	dsb	sy
    5b2c:	8b02014a 	add	x10, x10, x2
    5b30:	d61f0140 	br	x10
    5b34:	d5033f9f 	dsb	sy
    5b38:	8b02014a 	add	x10, x10, x2
    5b3c:	d61f0140 	br	x10
    5b40:	d5033f9f 	dsb	sy
    5b44:	8b02014a 	add	x10, x10, x2
    5b48:	d61f0140 	br	x10
    5b4c:	d5033f9f 	dsb	sy
    5b50:	8b02014a 	add	x10, x10, x2
    5b54:	d61f0140 	br	x10
    5b58:	d5033f9f 	dsb	sy
    5b5c:	8b02014a 	add	x10, x10, x2
    5b60:	d61f0140 	br	x10
    5b64:	d5033f9f 	dsb	sy
    5b68:	8b02014a 	add	x10, x10, x2
    5b6c:	d61f0140 	br	x10
    5b70:	d5033f9f 	dsb	sy
    5b74:	8b02014a 	add	x10, x10, x2
    5b78:	d61f0140 	br	x10
    5b7c:	d5033f9f 	dsb	sy
    5b80:	8b02014a 	add	x10, x10, x2
    5b84:	d61f0140 	br	x10
    5b88:	d5033f9f 	dsb	sy
    5b8c:	8b02014a 	add	x10, x10, x2
    5b90:	d61f0140 	br	x10
    5b94:	d5033f9f 	dsb	sy
    5b98:	8b02014a 	add	x10, x10, x2
    5b9c:	d61f0140 	br	x10
    5ba0:	d5033f9f 	dsb	sy
    5ba4:	8b02014a 	add	x10, x10, x2
    5ba8:	d61f0140 	br	x10
    5bac:	d5033f9f 	dsb	sy
    5bb0:	8b02014a 	add	x10, x10, x2
    5bb4:	d61f0140 	br	x10
    5bb8:	d5033f9f 	dsb	sy
    5bbc:	8b02014a 	add	x10, x10, x2
    5bc0:	d61f0140 	br	x10
    5bc4:	d5033f9f 	dsb	sy
    5bc8:	8b02014a 	add	x10, x10, x2
    5bcc:	d61f0140 	br	x10
    5bd0:	d5033f9f 	dsb	sy
    5bd4:	8b02014a 	add	x10, x10, x2
    5bd8:	d61f0140 	br	x10
    5bdc:	d5033f9f 	dsb	sy
    5be0:	8b02014a 	add	x10, x10, x2
    5be4:	d61f0140 	br	x10
    5be8:	d5033f9f 	dsb	sy
    5bec:	8b02014a 	add	x10, x10, x2
    5bf0:	d61f0140 	br	x10
    5bf4:	d5033f9f 	dsb	sy
    5bf8:	8b02014a 	add	x10, x10, x2
    5bfc:	d61f0140 	br	x10
    5c00:	d5033f9f 	dsb	sy
    5c04:	8b02014a 	add	x10, x10, x2
    5c08:	d61f0140 	br	x10
    5c0c:	d5033f9f 	dsb	sy
    5c10:	8b02014a 	add	x10, x10, x2
    5c14:	d61f0140 	br	x10
    5c18:	d5033f9f 	dsb	sy
    5c1c:	8b02014a 	add	x10, x10, x2
    5c20:	d61f0140 	br	x10
    5c24:	d5033f9f 	dsb	sy
    5c28:	8b02014a 	add	x10, x10, x2
    5c2c:	d61f0140 	br	x10
    5c30:	d5033f9f 	dsb	sy
    5c34:	8b02014a 	add	x10, x10, x2
    5c38:	d61f0140 	br	x10
    5c3c:	d5033f9f 	dsb	sy
    5c40:	8b02014a 	add	x10, x10, x2
    5c44:	d61f0140 	br	x10
    5c48:	d5033f9f 	dsb	sy
    5c4c:	8b02014a 	add	x10, x10, x2
    5c50:	d61f0140 	br	x10
    5c54:	d5033f9f 	dsb	sy
    5c58:	8b02014a 	add	x10, x10, x2
    5c5c:	d61f0140 	br	x10
    5c60:	d5033f9f 	dsb	sy
    5c64:	8b02014a 	add	x10, x10, x2
    5c68:	d61f0140 	br	x10
    5c6c:	d5033f9f 	dsb	sy
    5c70:	8b02014a 	add	x10, x10, x2
    5c74:	d61f0140 	br	x10
    5c78:	d5033f9f 	dsb	sy
    5c7c:	8b02014a 	add	x10, x10, x2
    5c80:	d61f0140 	br	x10
    5c84:	d5033f9f 	dsb	sy
    5c88:	8b02014a 	add	x10, x10, x2
    5c8c:	d61f0140 	br	x10
    5c90:	d5033f9f 	dsb	sy
    5c94:	8b02014a 	add	x10, x10, x2
    5c98:	d61f0140 	br	x10
    5c9c:	d5033f9f 	dsb	sy
    5ca0:	8b02014a 	add	x10, x10, x2
    5ca4:	d61f0140 	br	x10
    5ca8:	d5033f9f 	dsb	sy
    5cac:	8b02014a 	add	x10, x10, x2
    5cb0:	d61f0140 	br	x10
    5cb4:	d5033f9f 	dsb	sy
    5cb8:	8b02014a 	add	x10, x10, x2
    5cbc:	d61f0140 	br	x10
    5cc0:	d5033f9f 	dsb	sy
    5cc4:	8b02014a 	add	x10, x10, x2
    5cc8:	d61f0140 	br	x10
    5ccc:	d5033f9f 	dsb	sy
    5cd0:	8b02014a 	add	x10, x10, x2
    5cd4:	d61f0140 	br	x10
    5cd8:	d5033f9f 	dsb	sy
    5cdc:	8b02014a 	add	x10, x10, x2
    5ce0:	d61f0140 	br	x10
    5ce4:	d5033f9f 	dsb	sy
    5ce8:	8b02014a 	add	x10, x10, x2
    5cec:	d61f0140 	br	x10
    5cf0:	d5033f9f 	dsb	sy
    5cf4:	8b02014a 	add	x10, x10, x2
    5cf8:	d61f0140 	br	x10
    5cfc:	d5033f9f 	dsb	sy
    5d00:	8b02014a 	add	x10, x10, x2
    5d04:	d61f0140 	br	x10
    5d08:	d5033f9f 	dsb	sy
    5d0c:	8b02014a 	add	x10, x10, x2
    5d10:	d61f0140 	br	x10
    5d14:	d5033f9f 	dsb	sy
    5d18:	8b02014a 	add	x10, x10, x2
    5d1c:	d61f0140 	br	x10
    5d20:	d5033f9f 	dsb	sy
    5d24:	8b02014a 	add	x10, x10, x2
    5d28:	d61f0140 	br	x10
    5d2c:	d5033f9f 	dsb	sy
    5d30:	8b02014a 	add	x10, x10, x2
    5d34:	d61f0140 	br	x10
    5d38:	d5033f9f 	dsb	sy
    5d3c:	8b02014a 	add	x10, x10, x2
    5d40:	d61f0140 	br	x10
    5d44:	d5033f9f 	dsb	sy
    5d48:	8b02014a 	add	x10, x10, x2
    5d4c:	d61f0140 	br	x10
    5d50:	d5033f9f 	dsb	sy
    5d54:	8b02014a 	add	x10, x10, x2
    5d58:	d61f0140 	br	x10
    5d5c:	d5033f9f 	dsb	sy
    5d60:	8b02014a 	add	x10, x10, x2
    5d64:	d61f0140 	br	x10
    5d68:	d5033f9f 	dsb	sy
    5d6c:	8b02014a 	add	x10, x10, x2
    5d70:	d61f0140 	br	x10
    5d74:	d5033f9f 	dsb	sy
    5d78:	8b02014a 	add	x10, x10, x2
    5d7c:	d61f0140 	br	x10
    5d80:	d5033f9f 	dsb	sy
    5d84:	8b02014a 	add	x10, x10, x2
    5d88:	d61f0140 	br	x10
    5d8c:	d5033f9f 	dsb	sy
    5d90:	8b02014a 	add	x10, x10, x2
    5d94:	d61f0140 	br	x10
    5d98:	d5033f9f 	dsb	sy
    5d9c:	8b02014a 	add	x10, x10, x2
    5da0:	d61f0140 	br	x10
    5da4:	d5033f9f 	dsb	sy
    5da8:	8b02014a 	add	x10, x10, x2
    5dac:	d61f0140 	br	x10
    5db0:	d5033f9f 	dsb	sy
    5db4:	8b02014a 	add	x10, x10, x2
    5db8:	d61f0140 	br	x10
    5dbc:	d5033f9f 	dsb	sy
    5dc0:	8b02014a 	add	x10, x10, x2
    5dc4:	d61f0140 	br	x10
    5dc8:	d5033f9f 	dsb	sy
    5dcc:	8b02014a 	add	x10, x10, x2
    5dd0:	d61f0140 	br	x10
    5dd4:	d5033f9f 	dsb	sy
    5dd8:	8b02014a 	add	x10, x10, x2
    5ddc:	d61f0140 	br	x10
    5de0:	d5033f9f 	dsb	sy
    5de4:	8b02014a 	add	x10, x10, x2
    5de8:	d61f0140 	br	x10
    5dec:	d5033f9f 	dsb	sy
    5df0:	8b02014a 	add	x10, x10, x2
    5df4:	d61f0140 	br	x10
    5df8:	d5033f9f 	dsb	sy
    5dfc:	8b02014a 	add	x10, x10, x2
    5e00:	d61f0140 	br	x10
    5e04:	d5033f9f 	dsb	sy
    5e08:	8b02014a 	add	x10, x10, x2
    5e0c:	d61f0140 	br	x10
    5e10:	d5033f9f 	dsb	sy
    5e14:	8b02014a 	add	x10, x10, x2
    5e18:	d61f0140 	br	x10
    5e1c:	d5033f9f 	dsb	sy
    5e20:	8b02014a 	add	x10, x10, x2
    5e24:	d61f0140 	br	x10
    5e28:	d5033f9f 	dsb	sy
    5e2c:	8b02014a 	add	x10, x10, x2
    5e30:	d61f0140 	br	x10
    5e34:	d5033f9f 	dsb	sy
    5e38:	8b02014a 	add	x10, x10, x2
    5e3c:	d61f0140 	br	x10
    5e40:	d5033f9f 	dsb	sy
    5e44:	8b02014a 	add	x10, x10, x2
    5e48:	d61f0140 	br	x10
    5e4c:	d5033f9f 	dsb	sy
    5e50:	8b02014a 	add	x10, x10, x2
    5e54:	d61f0140 	br	x10
    5e58:	d5033f9f 	dsb	sy
    5e5c:	8b02014a 	add	x10, x10, x2
    5e60:	d61f0140 	br	x10
    5e64:	d5033f9f 	dsb	sy
    5e68:	8b02014a 	add	x10, x10, x2
    5e6c:	d61f0140 	br	x10
    5e70:	d5033f9f 	dsb	sy
    5e74:	8b02014a 	add	x10, x10, x2
    5e78:	d61f0140 	br	x10
    5e7c:	d5033f9f 	dsb	sy
    5e80:	8b02014a 	add	x10, x10, x2
    5e84:	d61f0140 	br	x10
    5e88:	d5033f9f 	dsb	sy
    5e8c:	8b02014a 	add	x10, x10, x2
    5e90:	d61f0140 	br	x10
    5e94:	d5033f9f 	dsb	sy
    5e98:	8b02014a 	add	x10, x10, x2
    5e9c:	d61f0140 	br	x10
    5ea0:	d5033f9f 	dsb	sy
    5ea4:	8b02014a 	add	x10, x10, x2
    5ea8:	d61f0140 	br	x10
    5eac:	d5033f9f 	dsb	sy
    5eb0:	8b02014a 	add	x10, x10, x2
    5eb4:	d61f0140 	br	x10
    5eb8:	d5033f9f 	dsb	sy
    5ebc:	8b02014a 	add	x10, x10, x2
    5ec0:	d61f0140 	br	x10
    5ec4:	d5033f9f 	dsb	sy
    5ec8:	8b02014a 	add	x10, x10, x2
    5ecc:	d61f0140 	br	x10
    5ed0:	d5033f9f 	dsb	sy
    5ed4:	8b02014a 	add	x10, x10, x2
    5ed8:	d61f0140 	br	x10
    5edc:	d5033f9f 	dsb	sy
    5ee0:	8b02014a 	add	x10, x10, x2
    5ee4:	d61f0140 	br	x10
    5ee8:	d5033f9f 	dsb	sy
    5eec:	8b02014a 	add	x10, x10, x2
    5ef0:	d61f0140 	br	x10
    5ef4:	d5033f9f 	dsb	sy
    5ef8:	8b02014a 	add	x10, x10, x2
    5efc:	d61f0140 	br	x10
    5f00:	d5033f9f 	dsb	sy
    5f04:	8b02014a 	add	x10, x10, x2
    5f08:	d61f0140 	br	x10
    5f0c:	d5033f9f 	dsb	sy
    5f10:	8b02014a 	add	x10, x10, x2
    5f14:	d61f0140 	br	x10
    5f18:	d5033f9f 	dsb	sy
    5f1c:	8b02014a 	add	x10, x10, x2
    5f20:	d61f0140 	br	x10
    5f24:	d5033f9f 	dsb	sy
    5f28:	8b02014a 	add	x10, x10, x2
    5f2c:	d61f0140 	br	x10
    5f30:	d5033f9f 	dsb	sy
    5f34:	8b02014a 	add	x10, x10, x2
    5f38:	d61f0140 	br	x10
    5f3c:	d5033f9f 	dsb	sy
    5f40:	8b02014a 	add	x10, x10, x2
    5f44:	d61f0140 	br	x10
    5f48:	d5033f9f 	dsb	sy
    5f4c:	8b02014a 	add	x10, x10, x2
    5f50:	d61f0140 	br	x10
    5f54:	d5033f9f 	dsb	sy
    5f58:	8b02014a 	add	x10, x10, x2
    5f5c:	d61f0140 	br	x10
    5f60:	d5033f9f 	dsb	sy
    5f64:	8b02014a 	add	x10, x10, x2
    5f68:	d61f0140 	br	x10
    5f6c:	d5033f9f 	dsb	sy
    5f70:	8b02014a 	add	x10, x10, x2
    5f74:	d61f0140 	br	x10
    5f78:	d5033f9f 	dsb	sy
    5f7c:	8b02014a 	add	x10, x10, x2
    5f80:	d61f0140 	br	x10
    5f84:	d5033f9f 	dsb	sy
    5f88:	8b02014a 	add	x10, x10, x2
    5f8c:	d61f0140 	br	x10
    5f90:	d5033f9f 	dsb	sy
    5f94:	8b02014a 	add	x10, x10, x2
    5f98:	d61f0140 	br	x10
    5f9c:	d5033f9f 	dsb	sy
    5fa0:	8b02014a 	add	x10, x10, x2
    5fa4:	d61f0140 	br	x10
    5fa8:	d5033f9f 	dsb	sy
    5fac:	8b02014a 	add	x10, x10, x2
    5fb0:	d61f0140 	br	x10
    5fb4:	d5033f9f 	dsb	sy
    5fb8:	8b02014a 	add	x10, x10, x2
    5fbc:	d61f0140 	br	x10
    5fc0:	d5033f9f 	dsb	sy
    5fc4:	8b02014a 	add	x10, x10, x2
    5fc8:	d61f0140 	br	x10
    5fcc:	d5033f9f 	dsb	sy
    5fd0:	8b02014a 	add	x10, x10, x2
    5fd4:	d61f0140 	br	x10
    5fd8:	d5033f9f 	dsb	sy
    5fdc:	8b02014a 	add	x10, x10, x2
    5fe0:	d61f0140 	br	x10
    5fe4:	d5033f9f 	dsb	sy
    5fe8:	8b02014a 	add	x10, x10, x2
    5fec:	d61f0140 	br	x10
    5ff0:	d5033f9f 	dsb	sy
    5ff4:	8b02014a 	add	x10, x10, x2
    5ff8:	d61f0140 	br	x10
    5ffc:	d5033f9f 	dsb	sy
    6000:	8b02014a 	add	x10, x10, x2
    6004:	d61f0140 	br	x10
    6008:	d5033f9f 	dsb	sy
    600c:	8b02014a 	add	x10, x10, x2
    6010:	d61f0140 	br	x10
    6014:	d5033f9f 	dsb	sy
    6018:	8b02014a 	add	x10, x10, x2
    601c:	d61f0140 	br	x10
    6020:	d5033f9f 	dsb	sy
    6024:	8b02014a 	add	x10, x10, x2
    6028:	d61f0140 	br	x10
    602c:	d5033f9f 	dsb	sy
    6030:	8b02014a 	add	x10, x10, x2
    6034:	d61f0140 	br	x10
    6038:	d5033f9f 	dsb	sy
    603c:	8b02014a 	add	x10, x10, x2
    6040:	d61f0140 	br	x10
    6044:	d5033f9f 	dsb	sy
    6048:	8b02014a 	add	x10, x10, x2
    604c:	d61f0140 	br	x10
    6050:	d5033f9f 	dsb	sy
    6054:	8b02014a 	add	x10, x10, x2
    6058:	d61f0140 	br	x10
    605c:	d5033f9f 	dsb	sy
    6060:	8b02014a 	add	x10, x10, x2
    6064:	d61f0140 	br	x10
    6068:	d5033f9f 	dsb	sy
    606c:	8b02014a 	add	x10, x10, x2
    6070:	d61f0140 	br	x10
    6074:	d5033f9f 	dsb	sy
    6078:	8b02014a 	add	x10, x10, x2
    607c:	d61f0140 	br	x10
    6080:	d5033f9f 	dsb	sy
    6084:	8b02014a 	add	x10, x10, x2
    6088:	d61f0140 	br	x10
    608c:	d5033f9f 	dsb	sy
    6090:	8b02014a 	add	x10, x10, x2
    6094:	d61f0140 	br	x10
    6098:	d5033f9f 	dsb	sy
    609c:	8b02014a 	add	x10, x10, x2
    60a0:	d61f0140 	br	x10
    60a4:	d5033f9f 	dsb	sy
    60a8:	8b02014a 	add	x10, x10, x2
    60ac:	d61f0140 	br	x10
    60b0:	d5033f9f 	dsb	sy
    60b4:	8b02014a 	add	x10, x10, x2
    60b8:	d61f0140 	br	x10
    60bc:	d5033f9f 	dsb	sy
    60c0:	8b02014a 	add	x10, x10, x2
    60c4:	d61f0140 	br	x10
    60c8:	d5033f9f 	dsb	sy
    60cc:	8b02014a 	add	x10, x10, x2
    60d0:	d61f0140 	br	x10
    60d4:	d5033f9f 	dsb	sy
    60d8:	8b02014a 	add	x10, x10, x2
    60dc:	d61f0140 	br	x10
    60e0:	d5033f9f 	dsb	sy
    60e4:	8b02014a 	add	x10, x10, x2
    60e8:	d61f0140 	br	x10
    60ec:	d5033f9f 	dsb	sy
    60f0:	8b02014a 	add	x10, x10, x2
    60f4:	d61f0140 	br	x10
    60f8:	d5033f9f 	dsb	sy
    60fc:	8b02014a 	add	x10, x10, x2
    6100:	d61f0140 	br	x10
    6104:	d5033f9f 	dsb	sy
    6108:	8b02014a 	add	x10, x10, x2
    610c:	d61f0140 	br	x10
    6110:	d5033f9f 	dsb	sy
    6114:	8b02014a 	add	x10, x10, x2
    6118:	d61f0140 	br	x10
    611c:	d5033f9f 	dsb	sy
    6120:	8b02014a 	add	x10, x10, x2
    6124:	d61f0140 	br	x10
    6128:	d5033f9f 	dsb	sy
    612c:	8b02014a 	add	x10, x10, x2
    6130:	d61f0140 	br	x10
    6134:	d5033f9f 	dsb	sy
    6138:	8b02014a 	add	x10, x10, x2
    613c:	d61f0140 	br	x10
    6140:	d5033f9f 	dsb	sy
    6144:	8b02014a 	add	x10, x10, x2
    6148:	d61f0140 	br	x10
    614c:	d5033f9f 	dsb	sy
    6150:	8b02014a 	add	x10, x10, x2
    6154:	d61f0140 	br	x10
    6158:	d5033f9f 	dsb	sy
    615c:	8b02014a 	add	x10, x10, x2
    6160:	d61f0140 	br	x10
    6164:	d5033f9f 	dsb	sy
    6168:	8b02014a 	add	x10, x10, x2
    616c:	d61f0140 	br	x10
    6170:	d5033f9f 	dsb	sy
    6174:	8b02014a 	add	x10, x10, x2
    6178:	d61f0140 	br	x10
    617c:	d5033f9f 	dsb	sy
    6180:	8b02014a 	add	x10, x10, x2
    6184:	d61f0140 	br	x10
    6188:	d5033f9f 	dsb	sy
    618c:	8b02014a 	add	x10, x10, x2
    6190:	d61f0140 	br	x10
    6194:	d5033f9f 	dsb	sy
    6198:	8b02014a 	add	x10, x10, x2
    619c:	d61f0140 	br	x10
    61a0:	d5033f9f 	dsb	sy
    61a4:	8b02014a 	add	x10, x10, x2
    61a8:	d61f0140 	br	x10
    61ac:	d5033f9f 	dsb	sy
    61b0:	8b02014a 	add	x10, x10, x2
    61b4:	d61f0140 	br	x10
    61b8:	d5033f9f 	dsb	sy
    61bc:	8b02014a 	add	x10, x10, x2
    61c0:	d61f0140 	br	x10
    61c4:	d5033f9f 	dsb	sy
    61c8:	8b02014a 	add	x10, x10, x2
    61cc:	d61f0140 	br	x10
    61d0:	d5033f9f 	dsb	sy
    61d4:	8b02014a 	add	x10, x10, x2
    61d8:	d61f0140 	br	x10
    61dc:	d5033f9f 	dsb	sy
    61e0:	8b02014a 	add	x10, x10, x2
    61e4:	d61f0140 	br	x10
    61e8:	d5033f9f 	dsb	sy
    61ec:	8b02014a 	add	x10, x10, x2
    61f0:	d61f0140 	br	x10
    61f4:	d5033f9f 	dsb	sy
    61f8:	8b02014a 	add	x10, x10, x2
    61fc:	d61f0140 	br	x10
    6200:	d5033f9f 	dsb	sy
    6204:	8b02014a 	add	x10, x10, x2
    6208:	d61f0140 	br	x10
    620c:	d5033f9f 	dsb	sy
    6210:	8b02014a 	add	x10, x10, x2
    6214:	d61f0140 	br	x10
    6218:	d5033f9f 	dsb	sy
    621c:	8b02014a 	add	x10, x10, x2
    6220:	d61f0140 	br	x10
    6224:	d5033f9f 	dsb	sy
    6228:	8b02014a 	add	x10, x10, x2
    622c:	d61f0140 	br	x10
    6230:	d5033f9f 	dsb	sy
    6234:	8b02014a 	add	x10, x10, x2
    6238:	d61f0140 	br	x10
    623c:	d5033f9f 	dsb	sy
    6240:	8b02014a 	add	x10, x10, x2
    6244:	d61f0140 	br	x10
    6248:	d5033f9f 	dsb	sy
    624c:	8b02014a 	add	x10, x10, x2
    6250:	d61f0140 	br	x10
    6254:	d5033f9f 	dsb	sy
    6258:	8b02014a 	add	x10, x10, x2
    625c:	d61f0140 	br	x10
    6260:	d5033f9f 	dsb	sy
    6264:	8b02014a 	add	x10, x10, x2
    6268:	d61f0140 	br	x10
    626c:	d5033f9f 	dsb	sy
    6270:	8b02014a 	add	x10, x10, x2
    6274:	d61f0140 	br	x10
    6278:	d5033f9f 	dsb	sy
    627c:	8b02014a 	add	x10, x10, x2
    6280:	d61f0140 	br	x10
    6284:	d5033f9f 	dsb	sy
    6288:	8b02014a 	add	x10, x10, x2
    628c:	d61f0140 	br	x10
    6290:	d5033f9f 	dsb	sy
    6294:	8b02014a 	add	x10, x10, x2
    6298:	d61f0140 	br	x10
    629c:	d5033f9f 	dsb	sy
    62a0:	8b02014a 	add	x10, x10, x2
    62a4:	d61f0140 	br	x10
    62a8:	d5033f9f 	dsb	sy
    62ac:	8b02014a 	add	x10, x10, x2
    62b0:	d61f0140 	br	x10
    62b4:	d5033f9f 	dsb	sy
    62b8:	8b02014a 	add	x10, x10, x2
    62bc:	d61f0140 	br	x10
    62c0:	d5033f9f 	dsb	sy
    62c4:	8b02014a 	add	x10, x10, x2
    62c8:	d61f0140 	br	x10
    62cc:	d5033f9f 	dsb	sy
    62d0:	8b02014a 	add	x10, x10, x2
    62d4:	d61f0140 	br	x10
    62d8:	d5033f9f 	dsb	sy
    62dc:	8b02014a 	add	x10, x10, x2
    62e0:	d61f0140 	br	x10
    62e4:	d5033f9f 	dsb	sy
    62e8:	8b02014a 	add	x10, x10, x2
    62ec:	d61f0140 	br	x10
    62f0:	d5033f9f 	dsb	sy
    62f4:	8b02014a 	add	x10, x10, x2
    62f8:	d61f0140 	br	x10
    62fc:	d5033f9f 	dsb	sy
    6300:	8b02014a 	add	x10, x10, x2
    6304:	d61f0140 	br	x10
    6308:	d5033f9f 	dsb	sy
    630c:	8b02014a 	add	x10, x10, x2
    6310:	d61f0140 	br	x10
    6314:	d5033f9f 	dsb	sy
    6318:	8b02014a 	add	x10, x10, x2
    631c:	d61f0140 	br	x10
    6320:	d5033f9f 	dsb	sy
    6324:	8b02014a 	add	x10, x10, x2
    6328:	d61f0140 	br	x10
    632c:	d5033f9f 	dsb	sy
    6330:	8b02014a 	add	x10, x10, x2
    6334:	d61f0140 	br	x10
    6338:	d5033f9f 	dsb	sy
    633c:	8b02014a 	add	x10, x10, x2
    6340:	d61f0140 	br	x10
    6344:	d5033f9f 	dsb	sy
    6348:	8b02014a 	add	x10, x10, x2
    634c:	d61f0140 	br	x10
    6350:	d5033f9f 	dsb	sy
    6354:	8b02014a 	add	x10, x10, x2
    6358:	d61f0140 	br	x10
    635c:	d5033f9f 	dsb	sy
    6360:	8b02014a 	add	x10, x10, x2
    6364:	d61f0140 	br	x10
    6368:	d5033f9f 	dsb	sy
    636c:	8b02014a 	add	x10, x10, x2
    6370:	d61f0140 	br	x10
    6374:	d5033f9f 	dsb	sy
    6378:	8b02014a 	add	x10, x10, x2
    637c:	d61f0140 	br	x10
    6380:	d5033f9f 	dsb	sy
    6384:	8b02014a 	add	x10, x10, x2
    6388:	d61f0140 	br	x10
    638c:	d5033f9f 	dsb	sy
    6390:	8b02014a 	add	x10, x10, x2
    6394:	d61f0140 	br	x10
    6398:	d5033f9f 	dsb	sy
    639c:	8b02014a 	add	x10, x10, x2
    63a0:	d61f0140 	br	x10
    63a4:	d5033f9f 	dsb	sy
    63a8:	8b02014a 	add	x10, x10, x2
    63ac:	d61f0140 	br	x10
    63b0:	d5033f9f 	dsb	sy
    63b4:	8b02014a 	add	x10, x10, x2
    63b8:	d61f0140 	br	x10
    63bc:	d5033f9f 	dsb	sy
    63c0:	8b02014a 	add	x10, x10, x2
    63c4:	d61f0140 	br	x10
    63c8:	d5033f9f 	dsb	sy
    63cc:	8b02014a 	add	x10, x10, x2
    63d0:	d61f0140 	br	x10
    63d4:	d5033f9f 	dsb	sy
    63d8:	8b02014a 	add	x10, x10, x2
    63dc:	d61f0140 	br	x10
    63e0:	d5033f9f 	dsb	sy
    63e4:	8b02014a 	add	x10, x10, x2
    63e8:	d61f0140 	br	x10
    63ec:	d5033f9f 	dsb	sy
    63f0:	8b02014a 	add	x10, x10, x2
    63f4:	d61f0140 	br	x10
    63f8:	d5033f9f 	dsb	sy
    63fc:	8b02014a 	add	x10, x10, x2
    6400:	d61f0140 	br	x10
    6404:	d5033f9f 	dsb	sy
    6408:	8b02014a 	add	x10, x10, x2
    640c:	d61f0140 	br	x10
    6410:	d5033f9f 	dsb	sy
    6414:	8b02014a 	add	x10, x10, x2
    6418:	d61f0140 	br	x10
    641c:	d5033f9f 	dsb	sy
    6420:	8b02014a 	add	x10, x10, x2
    6424:	d61f0140 	br	x10
    6428:	d5033f9f 	dsb	sy
    642c:	8b02014a 	add	x10, x10, x2
    6430:	d61f0140 	br	x10
    6434:	d5033f9f 	dsb	sy
    6438:	8b02014a 	add	x10, x10, x2
    643c:	d61f0140 	br	x10
    6440:	d5033f9f 	dsb	sy
    6444:	8b02014a 	add	x10, x10, x2
    6448:	d61f0140 	br	x10
    644c:	d5033f9f 	dsb	sy
    6450:	8b02014a 	add	x10, x10, x2
    6454:	d61f0140 	br	x10
    6458:	d5033f9f 	dsb	sy
    645c:	8b02014a 	add	x10, x10, x2
    6460:	d61f0140 	br	x10
    6464:	d5033f9f 	dsb	sy
    6468:	8b02014a 	add	x10, x10, x2
    646c:	d61f0140 	br	x10
    6470:	d5033f9f 	dsb	sy
    6474:	8b02014a 	add	x10, x10, x2
    6478:	d61f0140 	br	x10
    647c:	d5033f9f 	dsb	sy
    6480:	8b02014a 	add	x10, x10, x2
    6484:	d61f0140 	br	x10
    6488:	d5033f9f 	dsb	sy
    648c:	8b02014a 	add	x10, x10, x2
    6490:	d61f0140 	br	x10
    6494:	d5033f9f 	dsb	sy
    6498:	8b02014a 	add	x10, x10, x2
    649c:	d61f0140 	br	x10
    64a0:	d5033f9f 	dsb	sy
    64a4:	8b02014a 	add	x10, x10, x2
    64a8:	d61f0140 	br	x10
    64ac:	d5033f9f 	dsb	sy
    64b0:	8b02014a 	add	x10, x10, x2
    64b4:	d61f0140 	br	x10
    64b8:	d5033f9f 	dsb	sy
    64bc:	8b02014a 	add	x10, x10, x2
    64c0:	d61f0140 	br	x10
    64c4:	d5033f9f 	dsb	sy
    64c8:	8b02014a 	add	x10, x10, x2
    64cc:	d61f0140 	br	x10
    64d0:	d5033f9f 	dsb	sy
    64d4:	8b02014a 	add	x10, x10, x2
    64d8:	d61f0140 	br	x10
    64dc:	d5033f9f 	dsb	sy
    64e0:	8b02014a 	add	x10, x10, x2
    64e4:	d61f0140 	br	x10
    64e8:	d5033f9f 	dsb	sy
    64ec:	8b02014a 	add	x10, x10, x2
    64f0:	d61f0140 	br	x10
    64f4:	d5033f9f 	dsb	sy
    64f8:	8b02014a 	add	x10, x10, x2
    64fc:	d61f0140 	br	x10
    6500:	d5033f9f 	dsb	sy
    6504:	8b02014a 	add	x10, x10, x2
    6508:	d61f0140 	br	x10
    650c:	d5033f9f 	dsb	sy
    6510:	8b02014a 	add	x10, x10, x2
    6514:	d61f0140 	br	x10
    6518:	d5033f9f 	dsb	sy
    651c:	8b02014a 	add	x10, x10, x2
    6520:	d61f0140 	br	x10
    6524:	d5033f9f 	dsb	sy
    6528:	8b02014a 	add	x10, x10, x2
    652c:	d61f0140 	br	x10
    6530:	d5033f9f 	dsb	sy
    6534:	8b02014a 	add	x10, x10, x2
    6538:	d61f0140 	br	x10
    653c:	d5033f9f 	dsb	sy
    6540:	8b02014a 	add	x10, x10, x2
    6544:	d61f0140 	br	x10
    6548:	d5033f9f 	dsb	sy
    654c:	8b02014a 	add	x10, x10, x2
    6550:	d61f0140 	br	x10
    6554:	d5033f9f 	dsb	sy
    6558:	8b02014a 	add	x10, x10, x2
    655c:	d61f0140 	br	x10
    6560:	d5033f9f 	dsb	sy
    6564:	8b02014a 	add	x10, x10, x2
    6568:	d61f0140 	br	x10
    656c:	d5033f9f 	dsb	sy
    6570:	8b02014a 	add	x10, x10, x2
    6574:	d61f0140 	br	x10
    6578:	d5033f9f 	dsb	sy
    657c:	8b02014a 	add	x10, x10, x2
    6580:	d61f0140 	br	x10
    6584:	d5033f9f 	dsb	sy
    6588:	8b02014a 	add	x10, x10, x2
    658c:	d61f0140 	br	x10
    6590:	d5033f9f 	dsb	sy
    6594:	8b02014a 	add	x10, x10, x2
    6598:	d61f0140 	br	x10
    659c:	d5033f9f 	dsb	sy
    65a0:	8b02014a 	add	x10, x10, x2
    65a4:	d61f0140 	br	x10
    65a8:	d5033f9f 	dsb	sy
    65ac:	8b02014a 	add	x10, x10, x2
    65b0:	d61f0140 	br	x10
    65b4:	d5033f9f 	dsb	sy
    65b8:	8b02014a 	add	x10, x10, x2
    65bc:	d61f0140 	br	x10
    65c0:	d5033f9f 	dsb	sy
    65c4:	8b02014a 	add	x10, x10, x2
    65c8:	d61f0140 	br	x10
    65cc:	d5033f9f 	dsb	sy
    65d0:	8b02014a 	add	x10, x10, x2
    65d4:	d61f0140 	br	x10
    65d8:	d5033f9f 	dsb	sy
    65dc:	8b02014a 	add	x10, x10, x2
    65e0:	d61f0140 	br	x10
    65e4:	d5033f9f 	dsb	sy
    65e8:	8b02014a 	add	x10, x10, x2
    65ec:	d61f0140 	br	x10
    65f0:	d5033f9f 	dsb	sy
    65f4:	8b02014a 	add	x10, x10, x2
    65f8:	d61f0140 	br	x10
    65fc:	d5033f9f 	dsb	sy
    6600:	8b02014a 	add	x10, x10, x2
    6604:	d61f0140 	br	x10
    6608:	d5033f9f 	dsb	sy
    660c:	8b02014a 	add	x10, x10, x2
    6610:	d61f0140 	br	x10
    6614:	d5033f9f 	dsb	sy
    6618:	8b02014a 	add	x10, x10, x2
    661c:	d61f0140 	br	x10
    6620:	d5033f9f 	dsb	sy
    6624:	8b02014a 	add	x10, x10, x2
    6628:	d61f0140 	br	x10
    662c:	d5033f9f 	dsb	sy
    6630:	8b02014a 	add	x10, x10, x2
    6634:	d61f0140 	br	x10
    6638:	d5033f9f 	dsb	sy
    663c:	8b02014a 	add	x10, x10, x2
    6640:	d61f0140 	br	x10
    6644:	d5033f9f 	dsb	sy
    6648:	8b02014a 	add	x10, x10, x2
    664c:	d61f0140 	br	x10
    6650:	d5033f9f 	dsb	sy
    6654:	8b02014a 	add	x10, x10, x2
    6658:	d61f0140 	br	x10
    665c:	d5033f9f 	dsb	sy
    6660:	8b02014a 	add	x10, x10, x2
    6664:	d61f0140 	br	x10
    6668:	d5033f9f 	dsb	sy
    666c:	8b02014a 	add	x10, x10, x2
    6670:	d61f0140 	br	x10
    6674:	d5033f9f 	dsb	sy
    6678:	8b02014a 	add	x10, x10, x2
    667c:	d61f0140 	br	x10
    6680:	d5033f9f 	dsb	sy
    6684:	8b02014a 	add	x10, x10, x2
    6688:	d61f0140 	br	x10
    668c:	d5033f9f 	dsb	sy
    6690:	8b02014a 	add	x10, x10, x2
    6694:	d61f0140 	br	x10
    6698:	d5033f9f 	dsb	sy
    669c:	8b02014a 	add	x10, x10, x2
    66a0:	d61f0140 	br	x10
    66a4:	d5033f9f 	dsb	sy
    66a8:	8b02014a 	add	x10, x10, x2
    66ac:	d61f0140 	br	x10
    66b0:	d5033f9f 	dsb	sy
    66b4:	8b02014a 	add	x10, x10, x2
    66b8:	d61f0140 	br	x10
    66bc:	d5033f9f 	dsb	sy
    66c0:	8b02014a 	add	x10, x10, x2
    66c4:	d61f0140 	br	x10
    66c8:	d5033f9f 	dsb	sy
    66cc:	8b02014a 	add	x10, x10, x2
    66d0:	d61f0140 	br	x10
    66d4:	d5033f9f 	dsb	sy
    66d8:	8b02014a 	add	x10, x10, x2
    66dc:	d61f0140 	br	x10
    66e0:	d5033f9f 	dsb	sy
    66e4:	8b02014a 	add	x10, x10, x2
    66e8:	d61f0140 	br	x10
    66ec:	d5033f9f 	dsb	sy
    66f0:	8b02014a 	add	x10, x10, x2
    66f4:	d61f0140 	br	x10
    66f8:	d5033f9f 	dsb	sy
    66fc:	8b02014a 	add	x10, x10, x2
    6700:	d61f0140 	br	x10
    6704:	d5033f9f 	dsb	sy
    6708:	8b02014a 	add	x10, x10, x2
    670c:	d61f0140 	br	x10
    6710:	d5033f9f 	dsb	sy
    6714:	8b02014a 	add	x10, x10, x2
    6718:	d61f0140 	br	x10
    671c:	d5033f9f 	dsb	sy
    6720:	8b02014a 	add	x10, x10, x2
    6724:	d61f0140 	br	x10
    6728:	d5033f9f 	dsb	sy
    672c:	8b02014a 	add	x10, x10, x2
    6730:	d61f0140 	br	x10
    6734:	d5033f9f 	dsb	sy
    6738:	8b02014a 	add	x10, x10, x2
    673c:	d61f0140 	br	x10
    6740:	d5033f9f 	dsb	sy
    6744:	8b02014a 	add	x10, x10, x2
    6748:	d61f0140 	br	x10
    674c:	d5033f9f 	dsb	sy
    6750:	8b02014a 	add	x10, x10, x2
    6754:	d61f0140 	br	x10
    6758:	d5033f9f 	dsb	sy
    675c:	8b02014a 	add	x10, x10, x2
    6760:	d61f0140 	br	x10
    6764:	d5033f9f 	dsb	sy
    6768:	8b02014a 	add	x10, x10, x2
    676c:	d61f0140 	br	x10
    6770:	d5033f9f 	dsb	sy
    6774:	8b02014a 	add	x10, x10, x2
    6778:	d61f0140 	br	x10
    677c:	d5033f9f 	dsb	sy
    6780:	8b02014a 	add	x10, x10, x2
    6784:	d61f0140 	br	x10
    6788:	d5033f9f 	dsb	sy
    678c:	8b02014a 	add	x10, x10, x2
    6790:	d61f0140 	br	x10
    6794:	d5033f9f 	dsb	sy
    6798:	8b02014a 	add	x10, x10, x2
    679c:	d61f0140 	br	x10
    67a0:	d5033f9f 	dsb	sy
    67a4:	8b02014a 	add	x10, x10, x2
    67a8:	d61f0140 	br	x10
    67ac:	d5033f9f 	dsb	sy
    67b0:	8b02014a 	add	x10, x10, x2
    67b4:	d61f0140 	br	x10
    67b8:	d5033f9f 	dsb	sy
    67bc:	8b02014a 	add	x10, x10, x2
    67c0:	d61f0140 	br	x10
    67c4:	d5033f9f 	dsb	sy
    67c8:	8b02014a 	add	x10, x10, x2
    67cc:	d61f0140 	br	x10
    67d0:	d5033f9f 	dsb	sy
    67d4:	8b02014a 	add	x10, x10, x2
    67d8:	d61f0140 	br	x10
    67dc:	d5033f9f 	dsb	sy
    67e0:	8b02014a 	add	x10, x10, x2
    67e4:	d61f0140 	br	x10
    67e8:	d5033f9f 	dsb	sy
    67ec:	8b02014a 	add	x10, x10, x2
    67f0:	d61f0140 	br	x10
    67f4:	d5033f9f 	dsb	sy
    67f8:	8b02014a 	add	x10, x10, x2
    67fc:	d61f0140 	br	x10
    6800:	d5033f9f 	dsb	sy
    6804:	8b02014a 	add	x10, x10, x2
    6808:	d61f0140 	br	x10
    680c:	d5033f9f 	dsb	sy
    6810:	8b02014a 	add	x10, x10, x2
    6814:	d61f0140 	br	x10
    6818:	d5033f9f 	dsb	sy
    681c:	8b02014a 	add	x10, x10, x2
    6820:	d61f0140 	br	x10
    6824:	d5033f9f 	dsb	sy
    6828:	8b02014a 	add	x10, x10, x2
    682c:	d61f0140 	br	x10
    6830:	d5033f9f 	dsb	sy
    6834:	8b02014a 	add	x10, x10, x2
    6838:	d61f0140 	br	x10
    683c:	d5033f9f 	dsb	sy
    6840:	8b02014a 	add	x10, x10, x2
    6844:	d61f0140 	br	x10
    6848:	d5033f9f 	dsb	sy
    684c:	8b02014a 	add	x10, x10, x2
    6850:	d61f0140 	br	x10
    6854:	d5033f9f 	dsb	sy
    6858:	8b02014a 	add	x10, x10, x2
    685c:	d61f0140 	br	x10
    6860:	d5033f9f 	dsb	sy
    6864:	8b02014a 	add	x10, x10, x2
    6868:	d61f0140 	br	x10
    686c:	d5033f9f 	dsb	sy
    6870:	8b02014a 	add	x10, x10, x2
    6874:	d61f0140 	br	x10
    6878:	d5033f9f 	dsb	sy
    687c:	8b02014a 	add	x10, x10, x2
    6880:	d61f0140 	br	x10
    6884:	d5033f9f 	dsb	sy
    6888:	8b02014a 	add	x10, x10, x2
    688c:	d61f0140 	br	x10
    6890:	d5033f9f 	dsb	sy
    6894:	8b02014a 	add	x10, x10, x2
    6898:	d61f0140 	br	x10
    689c:	d5033f9f 	dsb	sy
    68a0:	8b02014a 	add	x10, x10, x2
    68a4:	d61f0140 	br	x10
    68a8:	d5033f9f 	dsb	sy
    68ac:	8b02014a 	add	x10, x10, x2
    68b0:	d61f0140 	br	x10
    68b4:	d5033f9f 	dsb	sy
    68b8:	8b02014a 	add	x10, x10, x2
    68bc:	d61f0140 	br	x10
    68c0:	d5033f9f 	dsb	sy
    68c4:	8b02014a 	add	x10, x10, x2
    68c8:	d61f0140 	br	x10
    68cc:	d5033f9f 	dsb	sy
    68d0:	8b02014a 	add	x10, x10, x2
    68d4:	d61f0140 	br	x10
    68d8:	d5033f9f 	dsb	sy
    68dc:	8b02014a 	add	x10, x10, x2
    68e0:	d61f0140 	br	x10
    68e4:	d5033f9f 	dsb	sy
    68e8:	8b02014a 	add	x10, x10, x2
    68ec:	d61f0140 	br	x10
    68f0:	d5033f9f 	dsb	sy
    68f4:	8b02014a 	add	x10, x10, x2
    68f8:	d61f0140 	br	x10
    68fc:	d5033f9f 	dsb	sy
    6900:	8b02014a 	add	x10, x10, x2
    6904:	d61f0140 	br	x10
    6908:	d5033f9f 	dsb	sy
    690c:	8b02014a 	add	x10, x10, x2
    6910:	d61f0140 	br	x10
    6914:	d5033f9f 	dsb	sy
    6918:	8b02014a 	add	x10, x10, x2
    691c:	d61f0140 	br	x10
    6920:	d5033f9f 	dsb	sy
    6924:	8b02014a 	add	x10, x10, x2
    6928:	d61f0140 	br	x10
    692c:	d5033f9f 	dsb	sy
    6930:	8b02014a 	add	x10, x10, x2
    6934:	d61f0140 	br	x10
    6938:	d5033f9f 	dsb	sy
    693c:	8b02014a 	add	x10, x10, x2
    6940:	d61f0140 	br	x10
    6944:	d5033f9f 	dsb	sy
    6948:	8b02014a 	add	x10, x10, x2
    694c:	d61f0140 	br	x10
    6950:	d5033f9f 	dsb	sy
    6954:	8b02014a 	add	x10, x10, x2
    6958:	d61f0140 	br	x10
    695c:	d5033f9f 	dsb	sy
    6960:	8b02014a 	add	x10, x10, x2
    6964:	d61f0140 	br	x10
    6968:	d5033f9f 	dsb	sy
    696c:	8b02014a 	add	x10, x10, x2
    6970:	d61f0140 	br	x10
    6974:	d5033f9f 	dsb	sy
    6978:	8b02014a 	add	x10, x10, x2
    697c:	d61f0140 	br	x10
    6980:	d5033f9f 	dsb	sy
    6984:	8b02014a 	add	x10, x10, x2
    6988:	d61f0140 	br	x10
    698c:	d5033f9f 	dsb	sy
    6990:	8b02014a 	add	x10, x10, x2
    6994:	d61f0140 	br	x10
    6998:	d5033f9f 	dsb	sy
    699c:	8b02014a 	add	x10, x10, x2
    69a0:	d61f0140 	br	x10
    69a4:	d5033f9f 	dsb	sy
    69a8:	8b02014a 	add	x10, x10, x2
    69ac:	d61f0140 	br	x10
    69b0:	d5033f9f 	dsb	sy
    69b4:	8b02014a 	add	x10, x10, x2
    69b8:	d61f0140 	br	x10
    69bc:	d5033f9f 	dsb	sy
    69c0:	8b02014a 	add	x10, x10, x2
    69c4:	d61f0140 	br	x10
    69c8:	d5033f9f 	dsb	sy
    69cc:	8b02014a 	add	x10, x10, x2
    69d0:	d61f0140 	br	x10
    69d4:	d5033f9f 	dsb	sy
    69d8:	8b02014a 	add	x10, x10, x2
    69dc:	d61f0140 	br	x10
    69e0:	d5033f9f 	dsb	sy
    69e4:	8b02014a 	add	x10, x10, x2
    69e8:	d61f0140 	br	x10
    69ec:	d5033f9f 	dsb	sy
    69f0:	8b02014a 	add	x10, x10, x2
    69f4:	d61f0140 	br	x10
    69f8:	d5033f9f 	dsb	sy
    69fc:	8b02014a 	add	x10, x10, x2
    6a00:	d61f0140 	br	x10
    6a04:	d5033f9f 	dsb	sy
    6a08:	8b02014a 	add	x10, x10, x2
    6a0c:	d61f0140 	br	x10
    6a10:	d5033f9f 	dsb	sy
    6a14:	8b02014a 	add	x10, x10, x2
    6a18:	d61f0140 	br	x10
    6a1c:	d5033f9f 	dsb	sy
    6a20:	8b02014a 	add	x10, x10, x2
    6a24:	d61f0140 	br	x10
    6a28:	d5033f9f 	dsb	sy
    6a2c:	8b02014a 	add	x10, x10, x2
    6a30:	d61f0140 	br	x10
    6a34:	d5033f9f 	dsb	sy
    6a38:	8b02014a 	add	x10, x10, x2
    6a3c:	d61f0140 	br	x10
    6a40:	d5033f9f 	dsb	sy
    6a44:	8b02014a 	add	x10, x10, x2
    6a48:	d61f0140 	br	x10
    6a4c:	d5033f9f 	dsb	sy
    6a50:	8b02014a 	add	x10, x10, x2
    6a54:	d61f0140 	br	x10
    6a58:	d5033f9f 	dsb	sy
    6a5c:	8b02014a 	add	x10, x10, x2
    6a60:	d61f0140 	br	x10
    6a64:	d5033f9f 	dsb	sy
    6a68:	8b02014a 	add	x10, x10, x2
    6a6c:	d61f0140 	br	x10
    6a70:	d5033f9f 	dsb	sy
    6a74:	8b02014a 	add	x10, x10, x2
    6a78:	d61f0140 	br	x10
    6a7c:	d5033f9f 	dsb	sy
    6a80:	8b02014a 	add	x10, x10, x2
    6a84:	d61f0140 	br	x10
    6a88:	d5033f9f 	dsb	sy
    6a8c:	8b02014a 	add	x10, x10, x2
    6a90:	d61f0140 	br	x10
    6a94:	d5033f9f 	dsb	sy
    6a98:	8b02014a 	add	x10, x10, x2
    6a9c:	d61f0140 	br	x10
    6aa0:	d5033f9f 	dsb	sy
    6aa4:	8b02014a 	add	x10, x10, x2
    6aa8:	d61f0140 	br	x10
    6aac:	d5033f9f 	dsb	sy
    6ab0:	8b02014a 	add	x10, x10, x2
    6ab4:	d61f0140 	br	x10
    6ab8:	d5033f9f 	dsb	sy
    6abc:	8b02014a 	add	x10, x10, x2
    6ac0:	d61f0140 	br	x10
    6ac4:	d5033f9f 	dsb	sy
    6ac8:	8b02014a 	add	x10, x10, x2
    6acc:	d61f0140 	br	x10
    6ad0:	d5033f9f 	dsb	sy
    6ad4:	8b02014a 	add	x10, x10, x2
    6ad8:	d61f0140 	br	x10
    6adc:	d5033f9f 	dsb	sy
    6ae0:	8b02014a 	add	x10, x10, x2
    6ae4:	d61f0140 	br	x10
    6ae8:	d5033f9f 	dsb	sy
    6aec:	8b02014a 	add	x10, x10, x2
    6af0:	d61f0140 	br	x10
    6af4:	d5033f9f 	dsb	sy
    6af8:	8b02014a 	add	x10, x10, x2
    6afc:	d61f0140 	br	x10
    6b00:	d5033f9f 	dsb	sy
    6b04:	8b02014a 	add	x10, x10, x2
    6b08:	d61f0140 	br	x10
    6b0c:	d5033f9f 	dsb	sy
    6b10:	8b02014a 	add	x10, x10, x2
    6b14:	d61f0140 	br	x10
    6b18:	d5033f9f 	dsb	sy
    6b1c:	8b02014a 	add	x10, x10, x2
    6b20:	d61f0140 	br	x10
    6b24:	d5033f9f 	dsb	sy
    6b28:	8b02014a 	add	x10, x10, x2
    6b2c:	d61f0140 	br	x10
    6b30:	d5033f9f 	dsb	sy
    6b34:	8b02014a 	add	x10, x10, x2
    6b38:	d61f0140 	br	x10
    6b3c:	d5033f9f 	dsb	sy
    6b40:	8b02014a 	add	x10, x10, x2
    6b44:	d61f0140 	br	x10
    6b48:	d5033f9f 	dsb	sy
    6b4c:	8b02014a 	add	x10, x10, x2
    6b50:	d61f0140 	br	x10
    6b54:	d5033f9f 	dsb	sy
    6b58:	8b02014a 	add	x10, x10, x2
    6b5c:	d61f0140 	br	x10
    6b60:	d5033f9f 	dsb	sy
    6b64:	8b02014a 	add	x10, x10, x2
    6b68:	d61f0140 	br	x10
    6b6c:	d5033f9f 	dsb	sy
    6b70:	8b02014a 	add	x10, x10, x2
    6b74:	d61f0140 	br	x10
    6b78:	d5033f9f 	dsb	sy
    6b7c:	8b02014a 	add	x10, x10, x2
    6b80:	d61f0140 	br	x10
    6b84:	d5033f9f 	dsb	sy
    6b88:	8b02014a 	add	x10, x10, x2
    6b8c:	d61f0140 	br	x10
    6b90:	d5033f9f 	dsb	sy
    6b94:	8b02014a 	add	x10, x10, x2
    6b98:	d61f0140 	br	x10
    6b9c:	d5033f9f 	dsb	sy
    6ba0:	8b02014a 	add	x10, x10, x2
    6ba4:	d61f0140 	br	x10
    6ba8:	d5033f9f 	dsb	sy
    6bac:	8b02014a 	add	x10, x10, x2
    6bb0:	d61f0140 	br	x10
    6bb4:	d5033f9f 	dsb	sy
    6bb8:	8b02014a 	add	x10, x10, x2
    6bbc:	d61f0140 	br	x10
    6bc0:	d5033f9f 	dsb	sy
    6bc4:	8b02014a 	add	x10, x10, x2
    6bc8:	d61f0140 	br	x10
    6bcc:	d5033f9f 	dsb	sy
    6bd0:	8b02014a 	add	x10, x10, x2
    6bd4:	d61f0140 	br	x10
    6bd8:	d5033f9f 	dsb	sy
    6bdc:	8b02014a 	add	x10, x10, x2
    6be0:	d61f0140 	br	x10
    6be4:	d5033f9f 	dsb	sy
    6be8:	8b02014a 	add	x10, x10, x2
    6bec:	d61f0140 	br	x10
    6bf0:	d5033f9f 	dsb	sy
    6bf4:	8b02014a 	add	x10, x10, x2
    6bf8:	d61f0140 	br	x10
    6bfc:	d5033f9f 	dsb	sy
    6c00:	8b02014a 	add	x10, x10, x2
    6c04:	d61f0140 	br	x10
    6c08:	d5033f9f 	dsb	sy
    6c0c:	8b02014a 	add	x10, x10, x2
    6c10:	d61f0140 	br	x10
    6c14:	d5033f9f 	dsb	sy
    6c18:	8b02014a 	add	x10, x10, x2
    6c1c:	d61f0140 	br	x10
    6c20:	d5033f9f 	dsb	sy
    6c24:	8b02014a 	add	x10, x10, x2
    6c28:	d61f0140 	br	x10
    6c2c:	d5033f9f 	dsb	sy
    6c30:	8b02014a 	add	x10, x10, x2
    6c34:	d61f0140 	br	x10
    6c38:	d5033f9f 	dsb	sy
    6c3c:	8b02014a 	add	x10, x10, x2
    6c40:	d61f0140 	br	x10
    6c44:	d5033f9f 	dsb	sy
    6c48:	8b02014a 	add	x10, x10, x2
    6c4c:	d61f0140 	br	x10
    6c50:	d5033f9f 	dsb	sy
    6c54:	8b02014a 	add	x10, x10, x2
    6c58:	d61f0140 	br	x10
    6c5c:	d5033f9f 	dsb	sy
    6c60:	8b02014a 	add	x10, x10, x2
    6c64:	d61f0140 	br	x10
    6c68:	d5033f9f 	dsb	sy
    6c6c:	8b02014a 	add	x10, x10, x2
    6c70:	d61f0140 	br	x10
    6c74:	d5033f9f 	dsb	sy
    6c78:	8b02014a 	add	x10, x10, x2
    6c7c:	d61f0140 	br	x10
    6c80:	d5033f9f 	dsb	sy
    6c84:	8b02014a 	add	x10, x10, x2
    6c88:	d61f0140 	br	x10
    6c8c:	d5033f9f 	dsb	sy
    6c90:	8b02014a 	add	x10, x10, x2
    6c94:	d61f0140 	br	x10
    6c98:	d5033f9f 	dsb	sy
    6c9c:	8b02014a 	add	x10, x10, x2
    6ca0:	d61f0140 	br	x10
    6ca4:	d5033f9f 	dsb	sy
    6ca8:	8b02014a 	add	x10, x10, x2
    6cac:	d61f0140 	br	x10
    6cb0:	d5033f9f 	dsb	sy
    6cb4:	8b02014a 	add	x10, x10, x2
    6cb8:	d61f0140 	br	x10
    6cbc:	d5033f9f 	dsb	sy
    6cc0:	8b02014a 	add	x10, x10, x2
    6cc4:	d61f0140 	br	x10
    6cc8:	d5033f9f 	dsb	sy
    6ccc:	8b02014a 	add	x10, x10, x2
    6cd0:	d61f0140 	br	x10
    6cd4:	d5033f9f 	dsb	sy
    6cd8:	8b02014a 	add	x10, x10, x2
    6cdc:	d61f0140 	br	x10
    6ce0:	d5033f9f 	dsb	sy
    6ce4:	8b02014a 	add	x10, x10, x2
    6ce8:	d61f0140 	br	x10
    6cec:	d5033f9f 	dsb	sy
    6cf0:	8b02014a 	add	x10, x10, x2
    6cf4:	d61f0140 	br	x10
    6cf8:	d5033f9f 	dsb	sy
    6cfc:	8b02014a 	add	x10, x10, x2
    6d00:	d61f0140 	br	x10
    6d04:	d5033f9f 	dsb	sy
    6d08:	8b02014a 	add	x10, x10, x2
    6d0c:	d61f0140 	br	x10
    6d10:	d5033f9f 	dsb	sy
    6d14:	8b02014a 	add	x10, x10, x2
    6d18:	d61f0140 	br	x10
    6d1c:	d5033f9f 	dsb	sy
    6d20:	8b02014a 	add	x10, x10, x2
    6d24:	d61f0140 	br	x10
    6d28:	d5033f9f 	dsb	sy
    6d2c:	8b02014a 	add	x10, x10, x2
    6d30:	d61f0140 	br	x10
    6d34:	d5033f9f 	dsb	sy
    6d38:	8b02014a 	add	x10, x10, x2
    6d3c:	d61f0140 	br	x10
    6d40:	d5033f9f 	dsb	sy
    6d44:	8b02014a 	add	x10, x10, x2
    6d48:	d61f0140 	br	x10
    6d4c:	d5033f9f 	dsb	sy
    6d50:	8b02014a 	add	x10, x10, x2
    6d54:	d61f0140 	br	x10
    6d58:	d5033f9f 	dsb	sy
    6d5c:	8b02014a 	add	x10, x10, x2
    6d60:	d61f0140 	br	x10
    6d64:	d5033f9f 	dsb	sy
    6d68:	8b02014a 	add	x10, x10, x2
    6d6c:	d61f0140 	br	x10
    6d70:	d5033f9f 	dsb	sy
    6d74:	8b02014a 	add	x10, x10, x2
    6d78:	d61f0140 	br	x10
    6d7c:	d5033f9f 	dsb	sy
    6d80:	8b02014a 	add	x10, x10, x2
    6d84:	d61f0140 	br	x10
    6d88:	d5033f9f 	dsb	sy
    6d8c:	8b02014a 	add	x10, x10, x2
    6d90:	d61f0140 	br	x10
    6d94:	d5033f9f 	dsb	sy
    6d98:	8b02014a 	add	x10, x10, x2
    6d9c:	d61f0140 	br	x10
    6da0:	d5033f9f 	dsb	sy
    6da4:	8b02014a 	add	x10, x10, x2
    6da8:	d61f0140 	br	x10
    6dac:	d5033f9f 	dsb	sy
    6db0:	8b02014a 	add	x10, x10, x2
    6db4:	d61f0140 	br	x10
    6db8:	d5033f9f 	dsb	sy
    6dbc:	8b02014a 	add	x10, x10, x2
    6dc0:	d61f0140 	br	x10
    6dc4:	d5033f9f 	dsb	sy
    6dc8:	8b02014a 	add	x10, x10, x2
    6dcc:	d61f0140 	br	x10
    6dd0:	d5033f9f 	dsb	sy
    6dd4:	8b02014a 	add	x10, x10, x2
    6dd8:	d61f0140 	br	x10
    6ddc:	d5033f9f 	dsb	sy
    6de0:	8b02014a 	add	x10, x10, x2
    6de4:	d61f0140 	br	x10
    6de8:	d5033f9f 	dsb	sy
    6dec:	8b02014a 	add	x10, x10, x2
    6df0:	d61f0140 	br	x10
    6df4:	d5033f9f 	dsb	sy
    6df8:	8b02014a 	add	x10, x10, x2
    6dfc:	d61f0140 	br	x10
    6e00:	d5033f9f 	dsb	sy
    6e04:	8b02014a 	add	x10, x10, x2
    6e08:	d61f0140 	br	x10
    6e0c:	d5033f9f 	dsb	sy
    6e10:	8b02014a 	add	x10, x10, x2
    6e14:	d61f0140 	br	x10
    6e18:	d5033f9f 	dsb	sy
    6e1c:	8b02014a 	add	x10, x10, x2
    6e20:	d61f0140 	br	x10
    6e24:	d5033f9f 	dsb	sy
    6e28:	8b02014a 	add	x10, x10, x2
    6e2c:	d61f0140 	br	x10
    6e30:	d5033f9f 	dsb	sy
    6e34:	8b02014a 	add	x10, x10, x2
    6e38:	d61f0140 	br	x10
    6e3c:	d5033f9f 	dsb	sy
    6e40:	8b02014a 	add	x10, x10, x2
    6e44:	d61f0140 	br	x10
    6e48:	d5033f9f 	dsb	sy
    6e4c:	8b02014a 	add	x10, x10, x2
    6e50:	d61f0140 	br	x10
    6e54:	d5033f9f 	dsb	sy
    6e58:	8b02014a 	add	x10, x10, x2
    6e5c:	d61f0140 	br	x10
    6e60:	d5033f9f 	dsb	sy
    6e64:	8b02014a 	add	x10, x10, x2
    6e68:	d61f0140 	br	x10
    6e6c:	d5033f9f 	dsb	sy
    6e70:	8b02014a 	add	x10, x10, x2
    6e74:	d61f0140 	br	x10
    6e78:	d5033f9f 	dsb	sy
    6e7c:	8b02014a 	add	x10, x10, x2
    6e80:	d61f0140 	br	x10
    6e84:	d5033f9f 	dsb	sy
    6e88:	8b02014a 	add	x10, x10, x2
    6e8c:	d61f0140 	br	x10
    6e90:	d5033f9f 	dsb	sy
    6e94:	8b02014a 	add	x10, x10, x2
    6e98:	d61f0140 	br	x10
    6e9c:	d5033f9f 	dsb	sy
    6ea0:	8b02014a 	add	x10, x10, x2
    6ea4:	d61f0140 	br	x10
    6ea8:	d5033f9f 	dsb	sy
    6eac:	8b02014a 	add	x10, x10, x2
    6eb0:	d61f0140 	br	x10
    6eb4:	d5033f9f 	dsb	sy
    6eb8:	8b02014a 	add	x10, x10, x2
    6ebc:	d61f0140 	br	x10
    6ec0:	d5033f9f 	dsb	sy
    6ec4:	8b02014a 	add	x10, x10, x2
    6ec8:	d61f0140 	br	x10
    6ecc:	d5033f9f 	dsb	sy
    6ed0:	8b02014a 	add	x10, x10, x2
    6ed4:	d61f0140 	br	x10
    6ed8:	d5033f9f 	dsb	sy
    6edc:	8b02014a 	add	x10, x10, x2
    6ee0:	d61f0140 	br	x10
    6ee4:	d5033f9f 	dsb	sy
    6ee8:	8b02014a 	add	x10, x10, x2
    6eec:	d61f0140 	br	x10
    6ef0:	d5033f9f 	dsb	sy
    6ef4:	8b02014a 	add	x10, x10, x2
    6ef8:	d61f0140 	br	x10
    6efc:	d5033f9f 	dsb	sy
    6f00:	8b02014a 	add	x10, x10, x2
    6f04:	d61f0140 	br	x10
    6f08:	d5033f9f 	dsb	sy
    6f0c:	8b02014a 	add	x10, x10, x2
    6f10:	d61f0140 	br	x10
    6f14:	d5033f9f 	dsb	sy
    6f18:	8b02014a 	add	x10, x10, x2
    6f1c:	d61f0140 	br	x10
    6f20:	d5033f9f 	dsb	sy
    6f24:	8b02014a 	add	x10, x10, x2
    6f28:	d61f0140 	br	x10
    6f2c:	d5033f9f 	dsb	sy
    6f30:	8b02014a 	add	x10, x10, x2
    6f34:	d61f0140 	br	x10
    6f38:	d5033f9f 	dsb	sy
    6f3c:	8b02014a 	add	x10, x10, x2
    6f40:	d61f0140 	br	x10
    6f44:	d5033f9f 	dsb	sy
    6f48:	8b02014a 	add	x10, x10, x2
    6f4c:	d61f0140 	br	x10
    6f50:	d5033f9f 	dsb	sy
    6f54:	8b02014a 	add	x10, x10, x2
    6f58:	d61f0140 	br	x10
    6f5c:	d5033f9f 	dsb	sy
    6f60:	8b02014a 	add	x10, x10, x2
    6f64:	d61f0140 	br	x10
    6f68:	d5033f9f 	dsb	sy
    6f6c:	8b02014a 	add	x10, x10, x2
    6f70:	d61f0140 	br	x10
    6f74:	d5033f9f 	dsb	sy
    6f78:	8b02014a 	add	x10, x10, x2
    6f7c:	d61f0140 	br	x10
    6f80:	d5033f9f 	dsb	sy
    6f84:	8b02014a 	add	x10, x10, x2
    6f88:	d61f0140 	br	x10
    6f8c:	d5033f9f 	dsb	sy
    6f90:	8b02014a 	add	x10, x10, x2
    6f94:	d61f0140 	br	x10
    6f98:	d5033f9f 	dsb	sy
    6f9c:	8b02014a 	add	x10, x10, x2
    6fa0:	d61f0140 	br	x10
    6fa4:	d5033f9f 	dsb	sy
    6fa8:	8b02014a 	add	x10, x10, x2
    6fac:	d61f0140 	br	x10
    6fb0:	d5033f9f 	dsb	sy
    6fb4:	8b02014a 	add	x10, x10, x2
    6fb8:	d61f0140 	br	x10
    6fbc:	d5033f9f 	dsb	sy
    6fc0:	8b02014a 	add	x10, x10, x2
    6fc4:	d61f0140 	br	x10
    6fc8:	d5033f9f 	dsb	sy
    6fcc:	8b02014a 	add	x10, x10, x2
    6fd0:	d61f0140 	br	x10
    6fd4:	d5033f9f 	dsb	sy
    6fd8:	8b02014a 	add	x10, x10, x2
    6fdc:	d61f0140 	br	x10
    6fe0:	d5033f9f 	dsb	sy
    6fe4:	8b02014a 	add	x10, x10, x2
    6fe8:	d61f0140 	br	x10
    6fec:	d5033f9f 	dsb	sy
    6ff0:	8b02014a 	add	x10, x10, x2
    6ff4:	d61f0140 	br	x10
    6ff8:	d5033f9f 	dsb	sy
    6ffc:	8b02014a 	add	x10, x10, x2
    7000:	d61f0140 	br	x10
    7004:	d5033f9f 	dsb	sy
    7008:	8b02014a 	add	x10, x10, x2
    700c:	d61f0140 	br	x10
    7010:	d5033f9f 	dsb	sy
    7014:	8b02014a 	add	x10, x10, x2
    7018:	d61f0140 	br	x10
    701c:	d5033f9f 	dsb	sy
    7020:	8b02014a 	add	x10, x10, x2
    7024:	d61f0140 	br	x10
    7028:	d5033f9f 	dsb	sy
    702c:	8b02014a 	add	x10, x10, x2
    7030:	d61f0140 	br	x10
    7034:	d5033f9f 	dsb	sy
    7038:	8b02014a 	add	x10, x10, x2
    703c:	d61f0140 	br	x10
    7040:	d5033f9f 	dsb	sy
    7044:	8b02014a 	add	x10, x10, x2
    7048:	d61f0140 	br	x10
    704c:	d5033f9f 	dsb	sy
    7050:	8b02014a 	add	x10, x10, x2
    7054:	d61f0140 	br	x10
    7058:	d5033f9f 	dsb	sy
    705c:	8b02014a 	add	x10, x10, x2
    7060:	d61f0140 	br	x10
    7064:	d5033f9f 	dsb	sy
    7068:	8b02014a 	add	x10, x10, x2
    706c:	d61f0140 	br	x10
    7070:	d5033f9f 	dsb	sy
    7074:	8b02014a 	add	x10, x10, x2
    7078:	d61f0140 	br	x10
    707c:	d5033f9f 	dsb	sy
    7080:	8b02014a 	add	x10, x10, x2
    7084:	d61f0140 	br	x10
    7088:	d5033f9f 	dsb	sy
    708c:	8b02014a 	add	x10, x10, x2
    7090:	d61f0140 	br	x10
    7094:	d5033f9f 	dsb	sy
    7098:	8b02014a 	add	x10, x10, x2
    709c:	d61f0140 	br	x10
    70a0:	d5033f9f 	dsb	sy
    70a4:	8b02014a 	add	x10, x10, x2
    70a8:	d61f0140 	br	x10
    70ac:	d5033f9f 	dsb	sy
    70b0:	8b02014a 	add	x10, x10, x2
    70b4:	d61f0140 	br	x10
    70b8:	d5033f9f 	dsb	sy
    70bc:	8b02014a 	add	x10, x10, x2
    70c0:	d61f0140 	br	x10
    70c4:	d5033f9f 	dsb	sy
    70c8:	8b02014a 	add	x10, x10, x2
    70cc:	d61f0140 	br	x10
    70d0:	d5033f9f 	dsb	sy
    70d4:	8b02014a 	add	x10, x10, x2
    70d8:	d61f0140 	br	x10
    70dc:	d5033f9f 	dsb	sy
    70e0:	8b02014a 	add	x10, x10, x2
    70e4:	d61f0140 	br	x10
    70e8:	d5033f9f 	dsb	sy
    70ec:	8b02014a 	add	x10, x10, x2
    70f0:	d61f0140 	br	x10
    70f4:	d5033f9f 	dsb	sy
    70f8:	8b02014a 	add	x10, x10, x2
    70fc:	d61f0140 	br	x10
    7100:	d5033f9f 	dsb	sy
    7104:	8b02014a 	add	x10, x10, x2
    7108:	d61f0140 	br	x10
    710c:	d5033f9f 	dsb	sy
    7110:	8b02014a 	add	x10, x10, x2
    7114:	d61f0140 	br	x10
    7118:	d5033f9f 	dsb	sy
    711c:	8b02014a 	add	x10, x10, x2
    7120:	d61f0140 	br	x10
    7124:	d5033f9f 	dsb	sy
    7128:	8b02014a 	add	x10, x10, x2
    712c:	d61f0140 	br	x10
    7130:	d5033f9f 	dsb	sy
    7134:	8b02014a 	add	x10, x10, x2
    7138:	d61f0140 	br	x10
    713c:	d5033f9f 	dsb	sy
    7140:	8b02014a 	add	x10, x10, x2
    7144:	d61f0140 	br	x10
    7148:	d5033f9f 	dsb	sy
    714c:	8b02014a 	add	x10, x10, x2
    7150:	d61f0140 	br	x10
    7154:	d5033f9f 	dsb	sy
    7158:	8b02014a 	add	x10, x10, x2
    715c:	d61f0140 	br	x10
    7160:	d5033f9f 	dsb	sy
    7164:	8b02014a 	add	x10, x10, x2
    7168:	d61f0140 	br	x10
    716c:	d5033f9f 	dsb	sy
    7170:	8b02014a 	add	x10, x10, x2
    7174:	d61f0140 	br	x10
    7178:	d5033f9f 	dsb	sy
    717c:	8b02014a 	add	x10, x10, x2
    7180:	d61f0140 	br	x10
    7184:	d5033f9f 	dsb	sy
    7188:	8b02014a 	add	x10, x10, x2
    718c:	d61f0140 	br	x10
    7190:	d5033f9f 	dsb	sy
    7194:	8b02014a 	add	x10, x10, x2
    7198:	d61f0140 	br	x10
    719c:	d5033f9f 	dsb	sy
    71a0:	8b02014a 	add	x10, x10, x2
    71a4:	d61f0140 	br	x10
    71a8:	d5033f9f 	dsb	sy
    71ac:	8b02014a 	add	x10, x10, x2
    71b0:	d61f0140 	br	x10
    71b4:	d5033f9f 	dsb	sy
    71b8:	8b02014a 	add	x10, x10, x2
    71bc:	d61f0140 	br	x10
    71c0:	d5033f9f 	dsb	sy
    71c4:	8b02014a 	add	x10, x10, x2
    71c8:	d61f0140 	br	x10
    71cc:	d5033f9f 	dsb	sy
    71d0:	8b02014a 	add	x10, x10, x2
    71d4:	d61f0140 	br	x10
    71d8:	d5033f9f 	dsb	sy
    71dc:	8b02014a 	add	x10, x10, x2
    71e0:	d61f0140 	br	x10
    71e4:	d5033f9f 	dsb	sy
    71e8:	8b02014a 	add	x10, x10, x2
    71ec:	d61f0140 	br	x10
    71f0:	d5033f9f 	dsb	sy
    71f4:	8b02014a 	add	x10, x10, x2
    71f8:	d61f0140 	br	x10
    71fc:	d5033f9f 	dsb	sy
    7200:	8b02014a 	add	x10, x10, x2
    7204:	d61f0140 	br	x10
    7208:	d5033f9f 	dsb	sy
    720c:	8b02014a 	add	x10, x10, x2
    7210:	d61f0140 	br	x10
    7214:	d5033f9f 	dsb	sy
    7218:	8b02014a 	add	x10, x10, x2
    721c:	d61f0140 	br	x10
    7220:	d5033f9f 	dsb	sy
    7224:	8b02014a 	add	x10, x10, x2
    7228:	d61f0140 	br	x10
    722c:	d5033f9f 	dsb	sy
    7230:	8b02014a 	add	x10, x10, x2
    7234:	d61f0140 	br	x10
    7238:	d5033f9f 	dsb	sy
    723c:	8b02014a 	add	x10, x10, x2
    7240:	d61f0140 	br	x10
    7244:	d5033f9f 	dsb	sy
    7248:	8b02014a 	add	x10, x10, x2
    724c:	d61f0140 	br	x10
    7250:	d5033f9f 	dsb	sy
    7254:	8b02014a 	add	x10, x10, x2
    7258:	d61f0140 	br	x10
    725c:	d5033f9f 	dsb	sy
    7260:	8b02014a 	add	x10, x10, x2
    7264:	d61f0140 	br	x10
    7268:	d5033f9f 	dsb	sy
    726c:	8b02014a 	add	x10, x10, x2
    7270:	d61f0140 	br	x10
    7274:	d5033f9f 	dsb	sy
    7278:	8b02014a 	add	x10, x10, x2
    727c:	d61f0140 	br	x10
    7280:	d5033f9f 	dsb	sy
    7284:	8b02014a 	add	x10, x10, x2
    7288:	d61f0140 	br	x10
    728c:	d5033f9f 	dsb	sy
    7290:	8b02014a 	add	x10, x10, x2
    7294:	d61f0140 	br	x10
    7298:	d5033f9f 	dsb	sy
    729c:	8b02014a 	add	x10, x10, x2
    72a0:	d61f0140 	br	x10
    72a4:	d5033f9f 	dsb	sy
    72a8:	8b02014a 	add	x10, x10, x2
    72ac:	d61f0140 	br	x10
    72b0:	d5033f9f 	dsb	sy
    72b4:	8b02014a 	add	x10, x10, x2
    72b8:	d61f0140 	br	x10
    72bc:	d5033f9f 	dsb	sy
    72c0:	8b02014a 	add	x10, x10, x2
    72c4:	d61f0140 	br	x10
    72c8:	d5033f9f 	dsb	sy
    72cc:	8b02014a 	add	x10, x10, x2
    72d0:	d61f0140 	br	x10
    72d4:	d5033f9f 	dsb	sy
    72d8:	8b02014a 	add	x10, x10, x2
    72dc:	d61f0140 	br	x10
    72e0:	d5033f9f 	dsb	sy
    72e4:	8b02014a 	add	x10, x10, x2
    72e8:	d61f0140 	br	x10
    72ec:	d5033f9f 	dsb	sy
    72f0:	8b02014a 	add	x10, x10, x2
    72f4:	d61f0140 	br	x10
    72f8:	d5033f9f 	dsb	sy
    72fc:	8b02014a 	add	x10, x10, x2
    7300:	d61f0140 	br	x10
    7304:	d5033f9f 	dsb	sy
    7308:	8b02014a 	add	x10, x10, x2
    730c:	d61f0140 	br	x10
    7310:	d5033f9f 	dsb	sy
    7314:	8b02014a 	add	x10, x10, x2
    7318:	d61f0140 	br	x10
    731c:	d5033f9f 	dsb	sy
    7320:	8b02014a 	add	x10, x10, x2
    7324:	d61f0140 	br	x10
    7328:	d5033f9f 	dsb	sy
    732c:	8b02014a 	add	x10, x10, x2
    7330:	d61f0140 	br	x10
    7334:	d5033f9f 	dsb	sy
    7338:	8b02014a 	add	x10, x10, x2
    733c:	d61f0140 	br	x10
    7340:	d5033f9f 	dsb	sy
    7344:	8b02014a 	add	x10, x10, x2
    7348:	d61f0140 	br	x10
    734c:	d5033f9f 	dsb	sy
    7350:	8b02014a 	add	x10, x10, x2
    7354:	d61f0140 	br	x10
    7358:	d5033f9f 	dsb	sy
    735c:	8b02014a 	add	x10, x10, x2
    7360:	d61f0140 	br	x10
    7364:	d5033f9f 	dsb	sy
    7368:	8b02014a 	add	x10, x10, x2
    736c:	d61f0140 	br	x10
    7370:	d5033f9f 	dsb	sy
    7374:	8b02014a 	add	x10, x10, x2
    7378:	d61f0140 	br	x10
    737c:	d5033f9f 	dsb	sy
    7380:	8b02014a 	add	x10, x10, x2
    7384:	d61f0140 	br	x10
    7388:	d5033f9f 	dsb	sy
    738c:	8b02014a 	add	x10, x10, x2
    7390:	d61f0140 	br	x10
    7394:	d5033f9f 	dsb	sy
    7398:	8b02014a 	add	x10, x10, x2
    739c:	d61f0140 	br	x10
    73a0:	d5033f9f 	dsb	sy
    73a4:	8b02014a 	add	x10, x10, x2
    73a8:	d61f0140 	br	x10
    73ac:	d5033f9f 	dsb	sy
    73b0:	8b02014a 	add	x10, x10, x2
    73b4:	d61f0140 	br	x10
    73b8:	d5033f9f 	dsb	sy
    73bc:	8b02014a 	add	x10, x10, x2
    73c0:	d61f0140 	br	x10
    73c4:	d5033f9f 	dsb	sy
    73c8:	8b02014a 	add	x10, x10, x2
    73cc:	d61f0140 	br	x10
    73d0:	d5033f9f 	dsb	sy
    73d4:	8b02014a 	add	x10, x10, x2
    73d8:	d61f0140 	br	x10
    73dc:	d5033f9f 	dsb	sy
    73e0:	8b02014a 	add	x10, x10, x2
    73e4:	d61f0140 	br	x10
    73e8:	d5033f9f 	dsb	sy
    73ec:	8b02014a 	add	x10, x10, x2
    73f0:	d61f0140 	br	x10
    73f4:	d5033f9f 	dsb	sy
    73f8:	8b02014a 	add	x10, x10, x2
    73fc:	d61f0140 	br	x10
    7400:	d5033f9f 	dsb	sy
    7404:	8b02014a 	add	x10, x10, x2
    7408:	d61f0140 	br	x10
    740c:	d5033f9f 	dsb	sy
    7410:	8b02014a 	add	x10, x10, x2
    7414:	d61f0140 	br	x10
    7418:	d5033f9f 	dsb	sy
    741c:	8b02014a 	add	x10, x10, x2
    7420:	d61f0140 	br	x10
    7424:	d5033f9f 	dsb	sy
    7428:	8b02014a 	add	x10, x10, x2
    742c:	d61f0140 	br	x10
    7430:	d5033f9f 	dsb	sy
    7434:	8b02014a 	add	x10, x10, x2
    7438:	d61f0140 	br	x10
    743c:	d5033f9f 	dsb	sy
    7440:	8b02014a 	add	x10, x10, x2
    7444:	d61f0140 	br	x10
    7448:	d5033f9f 	dsb	sy
    744c:	8b02014a 	add	x10, x10, x2
    7450:	d61f0140 	br	x10
    7454:	d5033f9f 	dsb	sy
    7458:	8b02014a 	add	x10, x10, x2
    745c:	d61f0140 	br	x10
    7460:	d5033f9f 	dsb	sy
    7464:	8b02014a 	add	x10, x10, x2
    7468:	d61f0140 	br	x10
    746c:	d5033f9f 	dsb	sy
    7470:	8b02014a 	add	x10, x10, x2
    7474:	d61f0140 	br	x10
    7478:	d5033f9f 	dsb	sy
    747c:	8b02014a 	add	x10, x10, x2
    7480:	d61f0140 	br	x10
    7484:	d5033f9f 	dsb	sy
    7488:	8b02014a 	add	x10, x10, x2
    748c:	d61f0140 	br	x10
    7490:	d5033f9f 	dsb	sy
    7494:	8b02014a 	add	x10, x10, x2
    7498:	d61f0140 	br	x10
    749c:	d5033f9f 	dsb	sy
    74a0:	8b02014a 	add	x10, x10, x2
    74a4:	d61f0140 	br	x10
    74a8:	d5033f9f 	dsb	sy
    74ac:	8b02014a 	add	x10, x10, x2
    74b0:	d61f0140 	br	x10
    74b4:	d5033f9f 	dsb	sy
    74b8:	8b02014a 	add	x10, x10, x2
    74bc:	d61f0140 	br	x10
    74c0:	d5033f9f 	dsb	sy
    74c4:	8b02014a 	add	x10, x10, x2
    74c8:	d61f0140 	br	x10
    74cc:	d5033f9f 	dsb	sy
    74d0:	8b02014a 	add	x10, x10, x2
    74d4:	d61f0140 	br	x10
    74d8:	d5033f9f 	dsb	sy
    74dc:	8b02014a 	add	x10, x10, x2
    74e0:	d61f0140 	br	x10
    74e4:	d5033f9f 	dsb	sy
    74e8:	8b02014a 	add	x10, x10, x2
    74ec:	d61f0140 	br	x10
    74f0:	d5033f9f 	dsb	sy
    74f4:	8b02014a 	add	x10, x10, x2
    74f8:	d61f0140 	br	x10
    74fc:	d5033f9f 	dsb	sy
    7500:	8b02014a 	add	x10, x10, x2
    7504:	d61f0140 	br	x10
    7508:	d5033f9f 	dsb	sy
    750c:	8b02014a 	add	x10, x10, x2
    7510:	d61f0140 	br	x10
    7514:	d5033f9f 	dsb	sy
    7518:	8b02014a 	add	x10, x10, x2
    751c:	d61f0140 	br	x10
    7520:	d5033f9f 	dsb	sy
    7524:	8b02014a 	add	x10, x10, x2
    7528:	d61f0140 	br	x10
    752c:	d5033f9f 	dsb	sy
    7530:	8b02014a 	add	x10, x10, x2
    7534:	d61f0140 	br	x10
    7538:	d5033f9f 	dsb	sy
    753c:	8b02014a 	add	x10, x10, x2
    7540:	d61f0140 	br	x10
    7544:	d5033f9f 	dsb	sy
    7548:	8b02014a 	add	x10, x10, x2
    754c:	d61f0140 	br	x10
    7550:	d5033f9f 	dsb	sy
    7554:	8b02014a 	add	x10, x10, x2
    7558:	d61f0140 	br	x10
    755c:	d5033f9f 	dsb	sy
    7560:	8b02014a 	add	x10, x10, x2
    7564:	d61f0140 	br	x10
    7568:	d5033f9f 	dsb	sy
    756c:	8b02014a 	add	x10, x10, x2
    7570:	d61f0140 	br	x10
    7574:	d5033f9f 	dsb	sy
    7578:	8b02014a 	add	x10, x10, x2
    757c:	d61f0140 	br	x10
    7580:	d5033f9f 	dsb	sy
    7584:	8b02014a 	add	x10, x10, x2
    7588:	d61f0140 	br	x10
    758c:	d5033f9f 	dsb	sy
    7590:	8b02014a 	add	x10, x10, x2
    7594:	d61f0140 	br	x10
    7598:	d5033f9f 	dsb	sy
    759c:	8b02014a 	add	x10, x10, x2
    75a0:	d61f0140 	br	x10
    75a4:	d5033f9f 	dsb	sy
    75a8:	8b02014a 	add	x10, x10, x2
    75ac:	d61f0140 	br	x10
    75b0:	d5033f9f 	dsb	sy
    75b4:	8b02014a 	add	x10, x10, x2
    75b8:	d61f0140 	br	x10
    75bc:	d5033f9f 	dsb	sy
    75c0:	8b02014a 	add	x10, x10, x2
    75c4:	d61f0140 	br	x10
    75c8:	d5033f9f 	dsb	sy
    75cc:	8b02014a 	add	x10, x10, x2
    75d0:	d61f0140 	br	x10
    75d4:	d5033f9f 	dsb	sy
    75d8:	8b02014a 	add	x10, x10, x2
    75dc:	d61f0140 	br	x10
    75e0:	d5033f9f 	dsb	sy
    75e4:	8b02014a 	add	x10, x10, x2
    75e8:	d61f0140 	br	x10
    75ec:	d5033f9f 	dsb	sy
    75f0:	8b02014a 	add	x10, x10, x2
    75f4:	d61f0140 	br	x10
    75f8:	d5033f9f 	dsb	sy
    75fc:	8b02014a 	add	x10, x10, x2
    7600:	d61f0140 	br	x10
    7604:	d5033f9f 	dsb	sy
    7608:	8b02014a 	add	x10, x10, x2
    760c:	d61f0140 	br	x10
    7610:	d5033f9f 	dsb	sy
    7614:	8b02014a 	add	x10, x10, x2
    7618:	d61f0140 	br	x10
    761c:	d5033f9f 	dsb	sy
    7620:	8b02014a 	add	x10, x10, x2
    7624:	d61f0140 	br	x10
    7628:	d5033f9f 	dsb	sy
    762c:	8b02014a 	add	x10, x10, x2
    7630:	d61f0140 	br	x10
    7634:	d5033f9f 	dsb	sy
    7638:	8b02014a 	add	x10, x10, x2
    763c:	d61f0140 	br	x10
    7640:	d5033f9f 	dsb	sy
    7644:	8b02014a 	add	x10, x10, x2
    7648:	d61f0140 	br	x10
    764c:	d5033f9f 	dsb	sy
    7650:	8b02014a 	add	x10, x10, x2
    7654:	d61f0140 	br	x10
    7658:	d5033f9f 	dsb	sy
    765c:	8b02014a 	add	x10, x10, x2
    7660:	d61f0140 	br	x10
    7664:	d5033f9f 	dsb	sy
    7668:	8b02014a 	add	x10, x10, x2
    766c:	d61f0140 	br	x10
    7670:	d5033f9f 	dsb	sy
    7674:	8b02014a 	add	x10, x10, x2
    7678:	d61f0140 	br	x10
    767c:	d5033f9f 	dsb	sy
    7680:	8b02014a 	add	x10, x10, x2
    7684:	d61f0140 	br	x10
    7688:	d5033f9f 	dsb	sy
    768c:	8b02014a 	add	x10, x10, x2
    7690:	d61f0140 	br	x10
    7694:	d5033f9f 	dsb	sy
    7698:	8b02014a 	add	x10, x10, x2
    769c:	d61f0140 	br	x10
    76a0:	d5033f9f 	dsb	sy
    76a4:	8b02014a 	add	x10, x10, x2
    76a8:	d61f0140 	br	x10
    76ac:	d5033f9f 	dsb	sy
    76b0:	8b02014a 	add	x10, x10, x2
    76b4:	d61f0140 	br	x10
    76b8:	d5033f9f 	dsb	sy
    76bc:	8b02014a 	add	x10, x10, x2
    76c0:	d61f0140 	br	x10
    76c4:	d5033f9f 	dsb	sy
    76c8:	8b02014a 	add	x10, x10, x2
    76cc:	d61f0140 	br	x10
    76d0:	d5033f9f 	dsb	sy
    76d4:	8b02014a 	add	x10, x10, x2
    76d8:	d61f0140 	br	x10
    76dc:	d5033f9f 	dsb	sy
    76e0:	8b02014a 	add	x10, x10, x2
    76e4:	d61f0140 	br	x10
    76e8:	d5033f9f 	dsb	sy
    76ec:	8b02014a 	add	x10, x10, x2
    76f0:	d61f0140 	br	x10
    76f4:	d5033f9f 	dsb	sy
    76f8:	8b02014a 	add	x10, x10, x2
    76fc:	d61f0140 	br	x10
    7700:	d5033f9f 	dsb	sy
    7704:	8b02014a 	add	x10, x10, x2
    7708:	d61f0140 	br	x10
    770c:	d5033f9f 	dsb	sy
    7710:	8b02014a 	add	x10, x10, x2
    7714:	d61f0140 	br	x10
    7718:	d5033f9f 	dsb	sy
    771c:	8b02014a 	add	x10, x10, x2
    7720:	d61f0140 	br	x10
    7724:	d5033f9f 	dsb	sy
    7728:	8b02014a 	add	x10, x10, x2
    772c:	d61f0140 	br	x10
    7730:	d5033f9f 	dsb	sy
    7734:	8b02014a 	add	x10, x10, x2
    7738:	d61f0140 	br	x10
    773c:	d5033f9f 	dsb	sy
    7740:	8b02014a 	add	x10, x10, x2
    7744:	d61f0140 	br	x10
    7748:	d5033f9f 	dsb	sy
    774c:	8b02014a 	add	x10, x10, x2
    7750:	d61f0140 	br	x10
    7754:	d5033f9f 	dsb	sy
    7758:	8b02014a 	add	x10, x10, x2
    775c:	d61f0140 	br	x10
    7760:	d5033f9f 	dsb	sy
    7764:	8b02014a 	add	x10, x10, x2
    7768:	d61f0140 	br	x10
    776c:	d5033f9f 	dsb	sy
    7770:	8b02014a 	add	x10, x10, x2
    7774:	d61f0140 	br	x10
    7778:	d5033f9f 	dsb	sy
    777c:	8b02014a 	add	x10, x10, x2
    7780:	d61f0140 	br	x10
    7784:	d5033f9f 	dsb	sy
    7788:	8b02014a 	add	x10, x10, x2
    778c:	d61f0140 	br	x10
    7790:	d5033f9f 	dsb	sy
    7794:	8b02014a 	add	x10, x10, x2
    7798:	d61f0140 	br	x10
    779c:	d5033f9f 	dsb	sy
    77a0:	8b02014a 	add	x10, x10, x2
    77a4:	d61f0140 	br	x10
    77a8:	d5033f9f 	dsb	sy
    77ac:	8b02014a 	add	x10, x10, x2
    77b0:	d61f0140 	br	x10
    77b4:	d5033f9f 	dsb	sy
    77b8:	8b02014a 	add	x10, x10, x2
    77bc:	d61f0140 	br	x10
    77c0:	d5033f9f 	dsb	sy
    77c4:	8b02014a 	add	x10, x10, x2
    77c8:	d61f0140 	br	x10
    77cc:	d5033f9f 	dsb	sy
    77d0:	8b02014a 	add	x10, x10, x2
    77d4:	d61f0140 	br	x10
    77d8:	d5033f9f 	dsb	sy
    77dc:	8b02014a 	add	x10, x10, x2
    77e0:	d61f0140 	br	x10
    77e4:	d5033f9f 	dsb	sy
    77e8:	8b02014a 	add	x10, x10, x2
    77ec:	d61f0140 	br	x10
    77f0:	d5033f9f 	dsb	sy
    77f4:	8b02014a 	add	x10, x10, x2
    77f8:	d61f0140 	br	x10
    77fc:	d5033f9f 	dsb	sy
    7800:	8b02014a 	add	x10, x10, x2
    7804:	d61f0140 	br	x10
    7808:	d5033f9f 	dsb	sy
    780c:	8b02014a 	add	x10, x10, x2
    7810:	d61f0140 	br	x10
    7814:	d5033f9f 	dsb	sy
    7818:	8b02014a 	add	x10, x10, x2
    781c:	d61f0140 	br	x10
    7820:	d5033f9f 	dsb	sy
    7824:	8b02014a 	add	x10, x10, x2
    7828:	d61f0140 	br	x10
    782c:	d5033f9f 	dsb	sy
    7830:	8b02014a 	add	x10, x10, x2
    7834:	d61f0140 	br	x10
    7838:	d5033f9f 	dsb	sy
    783c:	8b02014a 	add	x10, x10, x2
    7840:	d61f0140 	br	x10
    7844:	d5033f9f 	dsb	sy
    7848:	8b02014a 	add	x10, x10, x2
    784c:	d61f0140 	br	x10
    7850:	d5033f9f 	dsb	sy
    7854:	8b02014a 	add	x10, x10, x2
    7858:	d61f0140 	br	x10
    785c:	d5033f9f 	dsb	sy
    7860:	8b02014a 	add	x10, x10, x2
    7864:	d61f0140 	br	x10
    7868:	d5033f9f 	dsb	sy
    786c:	8b02014a 	add	x10, x10, x2
    7870:	d61f0140 	br	x10
    7874:	d5033f9f 	dsb	sy
    7878:	8b02014a 	add	x10, x10, x2
    787c:	d61f0140 	br	x10
    7880:	d5033f9f 	dsb	sy
    7884:	8b02014a 	add	x10, x10, x2
    7888:	d61f0140 	br	x10
    788c:	d5033f9f 	dsb	sy
    7890:	8b02014a 	add	x10, x10, x2
    7894:	d61f0140 	br	x10
    7898:	d5033f9f 	dsb	sy
    789c:	8b02014a 	add	x10, x10, x2
    78a0:	d61f0140 	br	x10
    78a4:	d5033f9f 	dsb	sy
    78a8:	8b02014a 	add	x10, x10, x2
    78ac:	d61f0140 	br	x10
    78b0:	d5033f9f 	dsb	sy
    78b4:	8b02014a 	add	x10, x10, x2
    78b8:	d61f0140 	br	x10
    78bc:	d5033f9f 	dsb	sy
    78c0:	8b02014a 	add	x10, x10, x2
    78c4:	d61f0140 	br	x10
    78c8:	d5033f9f 	dsb	sy
    78cc:	8b02014a 	add	x10, x10, x2
    78d0:	d61f0140 	br	x10
    78d4:	d5033f9f 	dsb	sy
    78d8:	8b02014a 	add	x10, x10, x2
    78dc:	d61f0140 	br	x10
    78e0:	d5033f9f 	dsb	sy
    78e4:	8b02014a 	add	x10, x10, x2
    78e8:	d61f0140 	br	x10
    78ec:	d5033f9f 	dsb	sy
    78f0:	8b02014a 	add	x10, x10, x2
    78f4:	d61f0140 	br	x10
    78f8:	d5033f9f 	dsb	sy
    78fc:	8b02014a 	add	x10, x10, x2
    7900:	d61f0140 	br	x10
    7904:	d5033f9f 	dsb	sy
    7908:	8b02014a 	add	x10, x10, x2
    790c:	d61f0140 	br	x10
    7910:	d5033f9f 	dsb	sy
    7914:	8b02014a 	add	x10, x10, x2
    7918:	d61f0140 	br	x10
    791c:	d5033f9f 	dsb	sy
    7920:	8b02014a 	add	x10, x10, x2
    7924:	d61f0140 	br	x10
    7928:	d5033f9f 	dsb	sy
    792c:	8b02014a 	add	x10, x10, x2
    7930:	d61f0140 	br	x10
    7934:	d5033f9f 	dsb	sy
    7938:	8b02014a 	add	x10, x10, x2
    793c:	d61f0140 	br	x10
    7940:	d5033f9f 	dsb	sy
    7944:	8b02014a 	add	x10, x10, x2
    7948:	d61f0140 	br	x10
    794c:	d5033f9f 	dsb	sy
    7950:	8b02014a 	add	x10, x10, x2
    7954:	d61f0140 	br	x10
    7958:	d5033f9f 	dsb	sy
    795c:	8b02014a 	add	x10, x10, x2
    7960:	d61f0140 	br	x10
    7964:	d5033f9f 	dsb	sy
    7968:	8b02014a 	add	x10, x10, x2
    796c:	d61f0140 	br	x10
    7970:	d5033f9f 	dsb	sy
    7974:	8b02014a 	add	x10, x10, x2
    7978:	d61f0140 	br	x10
    797c:	d5033f9f 	dsb	sy
    7980:	8b02014a 	add	x10, x10, x2
    7984:	d61f0140 	br	x10
    7988:	d5033f9f 	dsb	sy
    798c:	8b02014a 	add	x10, x10, x2
    7990:	d61f0140 	br	x10
    7994:	d5033f9f 	dsb	sy
    7998:	8b02014a 	add	x10, x10, x2
    799c:	d61f0140 	br	x10
    79a0:	d5033f9f 	dsb	sy
    79a4:	8b02014a 	add	x10, x10, x2
    79a8:	d61f0140 	br	x10
    79ac:	d5033f9f 	dsb	sy
    79b0:	8b02014a 	add	x10, x10, x2
    79b4:	d61f0140 	br	x10
    79b8:	d5033f9f 	dsb	sy
    79bc:	8b02014a 	add	x10, x10, x2
    79c0:	d61f0140 	br	x10
    79c4:	d5033f9f 	dsb	sy
    79c8:	8b02014a 	add	x10, x10, x2
    79cc:	d61f0140 	br	x10
    79d0:	d5033f9f 	dsb	sy
    79d4:	8b02014a 	add	x10, x10, x2
    79d8:	d61f0140 	br	x10
    79dc:	d5033f9f 	dsb	sy
    79e0:	8b02014a 	add	x10, x10, x2
    79e4:	d61f0140 	br	x10
    79e8:	d5033f9f 	dsb	sy
    79ec:	8b02014a 	add	x10, x10, x2
    79f0:	d61f0140 	br	x10
    79f4:	d5033f9f 	dsb	sy
    79f8:	8b02014a 	add	x10, x10, x2
    79fc:	d61f0140 	br	x10
    7a00:	d5033f9f 	dsb	sy
    7a04:	8b02014a 	add	x10, x10, x2
    7a08:	d61f0140 	br	x10
    7a0c:	d5033f9f 	dsb	sy
    7a10:	8b02014a 	add	x10, x10, x2
    7a14:	d61f0140 	br	x10
    7a18:	d5033f9f 	dsb	sy
    7a1c:	8b02014a 	add	x10, x10, x2
    7a20:	d61f0140 	br	x10
    7a24:	d5033f9f 	dsb	sy
    7a28:	8b02014a 	add	x10, x10, x2
    7a2c:	d61f0140 	br	x10
    7a30:	d5033f9f 	dsb	sy
    7a34:	8b02014a 	add	x10, x10, x2
    7a38:	d61f0140 	br	x10
    7a3c:	d5033f9f 	dsb	sy
    7a40:	8b02014a 	add	x10, x10, x2
    7a44:	d61f0140 	br	x10
    7a48:	d5033f9f 	dsb	sy
    7a4c:	8b02014a 	add	x10, x10, x2
    7a50:	d61f0140 	br	x10
    7a54:	d5033f9f 	dsb	sy
    7a58:	8b02014a 	add	x10, x10, x2
    7a5c:	d61f0140 	br	x10
    7a60:	d5033f9f 	dsb	sy
    7a64:	8b02014a 	add	x10, x10, x2
    7a68:	d61f0140 	br	x10
    7a6c:	d5033f9f 	dsb	sy
    7a70:	8b02014a 	add	x10, x10, x2
    7a74:	d61f0140 	br	x10
    7a78:	d5033f9f 	dsb	sy
    7a7c:	8b02014a 	add	x10, x10, x2
    7a80:	d61f0140 	br	x10
    7a84:	d5033f9f 	dsb	sy
    7a88:	8b02014a 	add	x10, x10, x2
    7a8c:	d61f0140 	br	x10
    7a90:	d5033f9f 	dsb	sy
    7a94:	8b02014a 	add	x10, x10, x2
    7a98:	d61f0140 	br	x10
    7a9c:	d5033f9f 	dsb	sy
    7aa0:	8b02014a 	add	x10, x10, x2
    7aa4:	d61f0140 	br	x10
    7aa8:	d5033f9f 	dsb	sy
    7aac:	8b02014a 	add	x10, x10, x2
    7ab0:	d61f0140 	br	x10
    7ab4:	d5033f9f 	dsb	sy
    7ab8:	8b02014a 	add	x10, x10, x2
    7abc:	d61f0140 	br	x10
    7ac0:	d5033f9f 	dsb	sy
    7ac4:	8b02014a 	add	x10, x10, x2
    7ac8:	d61f0140 	br	x10
    7acc:	d5033f9f 	dsb	sy
    7ad0:	8b02014a 	add	x10, x10, x2
    7ad4:	d61f0140 	br	x10
    7ad8:	d5033f9f 	dsb	sy
    7adc:	8b02014a 	add	x10, x10, x2
    7ae0:	d61f0140 	br	x10
    7ae4:	d5033f9f 	dsb	sy
    7ae8:	8b02014a 	add	x10, x10, x2
    7aec:	d61f0140 	br	x10
    7af0:	d5033f9f 	dsb	sy
    7af4:	8b02014a 	add	x10, x10, x2
    7af8:	d61f0140 	br	x10
    7afc:	d5033f9f 	dsb	sy
    7b00:	8b02014a 	add	x10, x10, x2
    7b04:	d61f0140 	br	x10
    7b08:	d5033f9f 	dsb	sy
    7b0c:	8b02014a 	add	x10, x10, x2
    7b10:	d61f0140 	br	x10
    7b14:	d5033f9f 	dsb	sy
    7b18:	8b02014a 	add	x10, x10, x2
    7b1c:	d61f0140 	br	x10
    7b20:	d5033f9f 	dsb	sy
    7b24:	8b02014a 	add	x10, x10, x2
    7b28:	d61f0140 	br	x10
    7b2c:	d5033f9f 	dsb	sy
    7b30:	8b02014a 	add	x10, x10, x2
    7b34:	d61f0140 	br	x10
    7b38:	d5033f9f 	dsb	sy
    7b3c:	8b02014a 	add	x10, x10, x2
    7b40:	d61f0140 	br	x10
    7b44:	d5033f9f 	dsb	sy
    7b48:	8b02014a 	add	x10, x10, x2
    7b4c:	d61f0140 	br	x10
    7b50:	d5033f9f 	dsb	sy
    7b54:	8b02014a 	add	x10, x10, x2
    7b58:	d61f0140 	br	x10
    7b5c:	d5033f9f 	dsb	sy
    7b60:	8b02014a 	add	x10, x10, x2
    7b64:	d61f0140 	br	x10
    7b68:	d5033f9f 	dsb	sy
    7b6c:	8b02014a 	add	x10, x10, x2
    7b70:	d61f0140 	br	x10
    7b74:	d5033f9f 	dsb	sy
    7b78:	8b02014a 	add	x10, x10, x2
    7b7c:	d61f0140 	br	x10
    7b80:	d5033f9f 	dsb	sy
    7b84:	8b02014a 	add	x10, x10, x2
    7b88:	d61f0140 	br	x10
    7b8c:	d5033f9f 	dsb	sy
    7b90:	8b02014a 	add	x10, x10, x2
    7b94:	d61f0140 	br	x10
    7b98:	d5033f9f 	dsb	sy
    7b9c:	8b02014a 	add	x10, x10, x2
    7ba0:	d61f0140 	br	x10
    7ba4:	d5033f9f 	dsb	sy
    7ba8:	8b02014a 	add	x10, x10, x2
    7bac:	d61f0140 	br	x10
    7bb0:	d5033f9f 	dsb	sy
    7bb4:	8b02014a 	add	x10, x10, x2
    7bb8:	d61f0140 	br	x10
    7bbc:	d5033f9f 	dsb	sy
    7bc0:	8b02014a 	add	x10, x10, x2
    7bc4:	d61f0140 	br	x10
    7bc8:	d5033f9f 	dsb	sy
    7bcc:	8b02014a 	add	x10, x10, x2
    7bd0:	d61f0140 	br	x10
    7bd4:	d5033f9f 	dsb	sy
    7bd8:	8b02014a 	add	x10, x10, x2
    7bdc:	d61f0140 	br	x10
    7be0:	d5033f9f 	dsb	sy
    7be4:	8b02014a 	add	x10, x10, x2
    7be8:	d61f0140 	br	x10
    7bec:	d5033f9f 	dsb	sy
    7bf0:	8b02014a 	add	x10, x10, x2
    7bf4:	d61f0140 	br	x10
    7bf8:	d5033f9f 	dsb	sy
    7bfc:	8b02014a 	add	x10, x10, x2
    7c00:	d61f0140 	br	x10
    7c04:	d5033f9f 	dsb	sy
    7c08:	8b02014a 	add	x10, x10, x2
    7c0c:	d61f0140 	br	x10
    7c10:	d5033f9f 	dsb	sy
    7c14:	8b02014a 	add	x10, x10, x2
    7c18:	d61f0140 	br	x10
    7c1c:	d5033f9f 	dsb	sy
    7c20:	8b02014a 	add	x10, x10, x2
    7c24:	d61f0140 	br	x10
    7c28:	d5033f9f 	dsb	sy
    7c2c:	8b02014a 	add	x10, x10, x2
    7c30:	d61f0140 	br	x10
    7c34:	d5033f9f 	dsb	sy
    7c38:	8b02014a 	add	x10, x10, x2
    7c3c:	d61f0140 	br	x10
    7c40:	d5033f9f 	dsb	sy
    7c44:	8b02014a 	add	x10, x10, x2
    7c48:	d61f0140 	br	x10
    7c4c:	d5033f9f 	dsb	sy
    7c50:	8b02014a 	add	x10, x10, x2
    7c54:	d61f0140 	br	x10
    7c58:	d5033f9f 	dsb	sy
    7c5c:	8b02014a 	add	x10, x10, x2
    7c60:	d61f0140 	br	x10
    7c64:	d5033f9f 	dsb	sy
    7c68:	8b02014a 	add	x10, x10, x2
    7c6c:	d61f0140 	br	x10
    7c70:	d5033f9f 	dsb	sy
    7c74:	8b02014a 	add	x10, x10, x2
    7c78:	d61f0140 	br	x10
    7c7c:	d5033f9f 	dsb	sy
    7c80:	8b02014a 	add	x10, x10, x2
    7c84:	d61f0140 	br	x10
    7c88:	d5033f9f 	dsb	sy
    7c8c:	8b02014a 	add	x10, x10, x2
    7c90:	d61f0140 	br	x10
    7c94:	d5033f9f 	dsb	sy
    7c98:	8b02014a 	add	x10, x10, x2
    7c9c:	d61f0140 	br	x10
    7ca0:	d5033f9f 	dsb	sy
    7ca4:	8b02014a 	add	x10, x10, x2
    7ca8:	d61f0140 	br	x10
    7cac:	d5033f9f 	dsb	sy
    7cb0:	8b02014a 	add	x10, x10, x2
    7cb4:	d61f0140 	br	x10
    7cb8:	d5033f9f 	dsb	sy
    7cbc:	8b02014a 	add	x10, x10, x2
    7cc0:	d61f0140 	br	x10
    7cc4:	d5033f9f 	dsb	sy
    7cc8:	8b02014a 	add	x10, x10, x2
    7ccc:	d61f0140 	br	x10
    7cd0:	d5033f9f 	dsb	sy
    7cd4:	8b02014a 	add	x10, x10, x2
    7cd8:	d61f0140 	br	x10
    7cdc:	d5033f9f 	dsb	sy
    7ce0:	8b02014a 	add	x10, x10, x2
    7ce4:	d61f0140 	br	x10
    7ce8:	d5033f9f 	dsb	sy
    7cec:	8b02014a 	add	x10, x10, x2
    7cf0:	d61f0140 	br	x10
    7cf4:	d5033f9f 	dsb	sy
    7cf8:	8b02014a 	add	x10, x10, x2
    7cfc:	d61f0140 	br	x10
    7d00:	d5033f9f 	dsb	sy
    7d04:	8b02014a 	add	x10, x10, x2
    7d08:	d61f0140 	br	x10
    7d0c:	d5033f9f 	dsb	sy
    7d10:	8b02014a 	add	x10, x10, x2
    7d14:	d61f0140 	br	x10
    7d18:	d5033f9f 	dsb	sy
    7d1c:	8b02014a 	add	x10, x10, x2
    7d20:	d61f0140 	br	x10
    7d24:	d5033f9f 	dsb	sy
    7d28:	8b02014a 	add	x10, x10, x2
    7d2c:	d61f0140 	br	x10
    7d30:	d5033f9f 	dsb	sy
    7d34:	8b02014a 	add	x10, x10, x2
    7d38:	d61f0140 	br	x10
    7d3c:	d5033f9f 	dsb	sy
    7d40:	8b02014a 	add	x10, x10, x2
    7d44:	d61f0140 	br	x10
    7d48:	d5033f9f 	dsb	sy
    7d4c:	8b02014a 	add	x10, x10, x2
    7d50:	d61f0140 	br	x10
    7d54:	d5033f9f 	dsb	sy
    7d58:	8b02014a 	add	x10, x10, x2
    7d5c:	d61f0140 	br	x10
    7d60:	d5033f9f 	dsb	sy
    7d64:	8b02014a 	add	x10, x10, x2
    7d68:	d61f0140 	br	x10
    7d6c:	d5033f9f 	dsb	sy
    7d70:	8b02014a 	add	x10, x10, x2
    7d74:	d61f0140 	br	x10
    7d78:	d5033f9f 	dsb	sy
    7d7c:	8b02014a 	add	x10, x10, x2
    7d80:	d61f0140 	br	x10
    7d84:	d5033f9f 	dsb	sy
    7d88:	8b02014a 	add	x10, x10, x2
    7d8c:	d61f0140 	br	x10
    7d90:	d5033f9f 	dsb	sy
    7d94:	8b02014a 	add	x10, x10, x2
    7d98:	d61f0140 	br	x10
    7d9c:	d5033f9f 	dsb	sy
    7da0:	8b02014a 	add	x10, x10, x2
    7da4:	d61f0140 	br	x10
    7da8:	d5033f9f 	dsb	sy
    7dac:	8b02014a 	add	x10, x10, x2
    7db0:	d61f0140 	br	x10
    7db4:	d5033f9f 	dsb	sy
    7db8:	8b02014a 	add	x10, x10, x2
    7dbc:	d61f0140 	br	x10
    7dc0:	d5033f9f 	dsb	sy
    7dc4:	8b02014a 	add	x10, x10, x2
    7dc8:	d61f0140 	br	x10
    7dcc:	d5033f9f 	dsb	sy
    7dd0:	8b02014a 	add	x10, x10, x2
    7dd4:	d61f0140 	br	x10
    7dd8:	d5033f9f 	dsb	sy
    7ddc:	8b02014a 	add	x10, x10, x2
    7de0:	d61f0140 	br	x10
    7de4:	d5033f9f 	dsb	sy
    7de8:	8b02014a 	add	x10, x10, x2
    7dec:	d61f0140 	br	x10
    7df0:	d5033f9f 	dsb	sy
    7df4:	8b02014a 	add	x10, x10, x2
    7df8:	d61f0140 	br	x10
    7dfc:	d5033f9f 	dsb	sy
    7e00:	8b02014a 	add	x10, x10, x2
    7e04:	d61f0140 	br	x10
    7e08:	d5033f9f 	dsb	sy
    7e0c:	8b02014a 	add	x10, x10, x2
    7e10:	d61f0140 	br	x10
    7e14:	d5033f9f 	dsb	sy
    7e18:	8b02014a 	add	x10, x10, x2
    7e1c:	d61f0140 	br	x10
    7e20:	d5033f9f 	dsb	sy
    7e24:	8b02014a 	add	x10, x10, x2
    7e28:	d61f0140 	br	x10
    7e2c:	d5033f9f 	dsb	sy
    7e30:	8b02014a 	add	x10, x10, x2
    7e34:	d61f0140 	br	x10
    7e38:	d5033f9f 	dsb	sy
    7e3c:	8b02014a 	add	x10, x10, x2
    7e40:	d61f0140 	br	x10
    7e44:	d5033f9f 	dsb	sy
    7e48:	8b02014a 	add	x10, x10, x2
    7e4c:	d61f0140 	br	x10
    7e50:	d5033f9f 	dsb	sy
    7e54:	8b02014a 	add	x10, x10, x2
    7e58:	d61f0140 	br	x10
    7e5c:	d5033f9f 	dsb	sy
    7e60:	8b02014a 	add	x10, x10, x2
    7e64:	d61f0140 	br	x10
    7e68:	d5033f9f 	dsb	sy
    7e6c:	8b02014a 	add	x10, x10, x2
    7e70:	d61f0140 	br	x10
    7e74:	d5033f9f 	dsb	sy
    7e78:	8b02014a 	add	x10, x10, x2
    7e7c:	d61f0140 	br	x10
    7e80:	d5033f9f 	dsb	sy
    7e84:	8b02014a 	add	x10, x10, x2
    7e88:	d61f0140 	br	x10
    7e8c:	d5033f9f 	dsb	sy
    7e90:	8b02014a 	add	x10, x10, x2
    7e94:	d61f0140 	br	x10
    7e98:	d5033f9f 	dsb	sy
    7e9c:	8b02014a 	add	x10, x10, x2
    7ea0:	d61f0140 	br	x10
    7ea4:	d5033f9f 	dsb	sy
    7ea8:	8b02014a 	add	x10, x10, x2
    7eac:	d61f0140 	br	x10
    7eb0:	d5033f9f 	dsb	sy
    7eb4:	8b02014a 	add	x10, x10, x2
    7eb8:	d61f0140 	br	x10
    7ebc:	d5033f9f 	dsb	sy
    7ec0:	8b02014a 	add	x10, x10, x2
    7ec4:	d61f0140 	br	x10
    7ec8:	d5033f9f 	dsb	sy
    7ecc:	8b02014a 	add	x10, x10, x2
    7ed0:	d61f0140 	br	x10
    7ed4:	d5033f9f 	dsb	sy
    7ed8:	8b02014a 	add	x10, x10, x2
    7edc:	d61f0140 	br	x10
    7ee0:	d5033f9f 	dsb	sy
    7ee4:	8b02014a 	add	x10, x10, x2
    7ee8:	d61f0140 	br	x10
    7eec:	d5033f9f 	dsb	sy
    7ef0:	8b02014a 	add	x10, x10, x2
    7ef4:	d61f0140 	br	x10
    7ef8:	d5033f9f 	dsb	sy
    7efc:	8b02014a 	add	x10, x10, x2
    7f00:	d61f0140 	br	x10
    7f04:	d5033f9f 	dsb	sy
    7f08:	8b02014a 	add	x10, x10, x2
    7f0c:	d61f0140 	br	x10
    7f10:	d5033f9f 	dsb	sy
    7f14:	8b02014a 	add	x10, x10, x2
    7f18:	d61f0140 	br	x10
    7f1c:	d5033f9f 	dsb	sy
    7f20:	8b02014a 	add	x10, x10, x2
    7f24:	d61f0140 	br	x10
    7f28:	d5033f9f 	dsb	sy
    7f2c:	8b02014a 	add	x10, x10, x2
    7f30:	d61f0140 	br	x10
    7f34:	d5033f9f 	dsb	sy
    7f38:	8b02014a 	add	x10, x10, x2
    7f3c:	d61f0140 	br	x10
    7f40:	d5033f9f 	dsb	sy
    7f44:	8b02014a 	add	x10, x10, x2
    7f48:	d61f0140 	br	x10
    7f4c:	d5033f9f 	dsb	sy
    7f50:	8b02014a 	add	x10, x10, x2
    7f54:	d61f0140 	br	x10
    7f58:	d5033f9f 	dsb	sy
    7f5c:	8b02014a 	add	x10, x10, x2
    7f60:	d61f0140 	br	x10
    7f64:	d5033f9f 	dsb	sy
    7f68:	8b02014a 	add	x10, x10, x2
    7f6c:	d61f0140 	br	x10
    7f70:	d5033f9f 	dsb	sy
    7f74:	8b02014a 	add	x10, x10, x2
    7f78:	d61f0140 	br	x10
    7f7c:	d5033f9f 	dsb	sy
    7f80:	8b02014a 	add	x10, x10, x2
    7f84:	d61f0140 	br	x10
    7f88:	d5033f9f 	dsb	sy
    7f8c:	8b02014a 	add	x10, x10, x2
    7f90:	d61f0140 	br	x10
    7f94:	d5033f9f 	dsb	sy
    7f98:	8b02014a 	add	x10, x10, x2
    7f9c:	d61f0140 	br	x10
    7fa0:	d5033f9f 	dsb	sy
    7fa4:	8b02014a 	add	x10, x10, x2
    7fa8:	d61f0140 	br	x10
    7fac:	d5033f9f 	dsb	sy
    7fb0:	8b02014a 	add	x10, x10, x2
    7fb4:	d61f0140 	br	x10
    7fb8:	d5033f9f 	dsb	sy
    7fbc:	8b02014a 	add	x10, x10, x2
    7fc0:	d61f0140 	br	x10
    7fc4:	d5033f9f 	dsb	sy
    7fc8:	8b02014a 	add	x10, x10, x2
    7fcc:	d61f0140 	br	x10
    7fd0:	d5033f9f 	dsb	sy
    7fd4:	8b02014a 	add	x10, x10, x2
    7fd8:	d61f0140 	br	x10
    7fdc:	d5033f9f 	dsb	sy
    7fe0:	8b02014a 	add	x10, x10, x2
    7fe4:	d61f0140 	br	x10
    7fe8:	d5033f9f 	dsb	sy
    7fec:	8b02014a 	add	x10, x10, x2
    7ff0:	d61f0140 	br	x10
    7ff4:	d5033f9f 	dsb	sy
    7ff8:	8b02014a 	add	x10, x10, x2
    7ffc:	d61f0140 	br	x10
    8000:	d5033f9f 	dsb	sy
    8004:	8b02014a 	add	x10, x10, x2
    8008:	d61f0140 	br	x10
    800c:	d5033f9f 	dsb	sy
    8010:	8b02014a 	add	x10, x10, x2
    8014:	d61f0140 	br	x10
    8018:	d5033f9f 	dsb	sy
    801c:	8b02014a 	add	x10, x10, x2
    8020:	d61f0140 	br	x10
    8024:	d5033f9f 	dsb	sy
    8028:	8b02014a 	add	x10, x10, x2
    802c:	d61f0140 	br	x10
    8030:	d5033f9f 	dsb	sy
    8034:	8b02014a 	add	x10, x10, x2
    8038:	d61f0140 	br	x10
    803c:	d5033f9f 	dsb	sy
    8040:	8b02014a 	add	x10, x10, x2
    8044:	d61f0140 	br	x10
    8048:	d5033f9f 	dsb	sy
    804c:	8b02014a 	add	x10, x10, x2
    8050:	d61f0140 	br	x10
    8054:	d5033f9f 	dsb	sy
    8058:	8b02014a 	add	x10, x10, x2
    805c:	d61f0140 	br	x10
    8060:	d5033f9f 	dsb	sy
    8064:	8b02014a 	add	x10, x10, x2
    8068:	d61f0140 	br	x10
    806c:	d5033f9f 	dsb	sy
    8070:	8b02014a 	add	x10, x10, x2
    8074:	d61f0140 	br	x10
    8078:	d5033f9f 	dsb	sy
    807c:	8b02014a 	add	x10, x10, x2
    8080:	d61f0140 	br	x10
    8084:	d5033f9f 	dsb	sy
    8088:	8b02014a 	add	x10, x10, x2
    808c:	d61f0140 	br	x10
    8090:	d5033f9f 	dsb	sy
    8094:	8b02014a 	add	x10, x10, x2
    8098:	d61f0140 	br	x10
    809c:	d5033f9f 	dsb	sy
    80a0:	8b02014a 	add	x10, x10, x2
    80a4:	d61f0140 	br	x10
    80a8:	d5033f9f 	dsb	sy
    80ac:	8b02014a 	add	x10, x10, x2
    80b0:	d61f0140 	br	x10
    80b4:	d5033f9f 	dsb	sy
    80b8:	8b02014a 	add	x10, x10, x2
    80bc:	d61f0140 	br	x10
    80c0:	d5033f9f 	dsb	sy
    80c4:	8b02014a 	add	x10, x10, x2
    80c8:	d61f0140 	br	x10
    80cc:	d5033f9f 	dsb	sy
    80d0:	8b02014a 	add	x10, x10, x2
    80d4:	d61f0140 	br	x10
    80d8:	d5033f9f 	dsb	sy
    80dc:	8b02014a 	add	x10, x10, x2
    80e0:	d61f0140 	br	x10
    80e4:	d5033f9f 	dsb	sy
    80e8:	8b02014a 	add	x10, x10, x2
    80ec:	d61f0140 	br	x10
    80f0:	d5033f9f 	dsb	sy
    80f4:	8b02014a 	add	x10, x10, x2
    80f8:	d61f0140 	br	x10
    80fc:	d5033f9f 	dsb	sy
    8100:	8b02014a 	add	x10, x10, x2
    8104:	d61f0140 	br	x10
    8108:	d5033f9f 	dsb	sy
    810c:	8b02014a 	add	x10, x10, x2
    8110:	d61f0140 	br	x10
    8114:	d5033f9f 	dsb	sy
    8118:	8b02014a 	add	x10, x10, x2
    811c:	d61f0140 	br	x10
    8120:	d5033f9f 	dsb	sy
    8124:	8b02014a 	add	x10, x10, x2
    8128:	d61f0140 	br	x10
    812c:	d5033f9f 	dsb	sy
    8130:	8b02014a 	add	x10, x10, x2
    8134:	d61f0140 	br	x10
    8138:	d5033f9f 	dsb	sy
    813c:	8b02014a 	add	x10, x10, x2
    8140:	d61f0140 	br	x10
    8144:	d5033f9f 	dsb	sy
    8148:	8b02014a 	add	x10, x10, x2
    814c:	d61f0140 	br	x10
    8150:	d5033f9f 	dsb	sy
    8154:	8b02014a 	add	x10, x10, x2
    8158:	d61f0140 	br	x10
    815c:	d5033f9f 	dsb	sy
    8160:	8b02014a 	add	x10, x10, x2
    8164:	d61f0140 	br	x10
    8168:	d5033f9f 	dsb	sy
    816c:	8b02014a 	add	x10, x10, x2
    8170:	d61f0140 	br	x10
    8174:	d5033f9f 	dsb	sy
    8178:	8b02014a 	add	x10, x10, x2
    817c:	d61f0140 	br	x10
    8180:	d5033f9f 	dsb	sy
    8184:	8b02014a 	add	x10, x10, x2
    8188:	d61f0140 	br	x10
    818c:	d5033f9f 	dsb	sy
    8190:	8b02014a 	add	x10, x10, x2
    8194:	d61f0140 	br	x10
    8198:	d5033f9f 	dsb	sy
    819c:	8b02014a 	add	x10, x10, x2
    81a0:	d61f0140 	br	x10
    81a4:	d5033f9f 	dsb	sy
    81a8:	8b02014a 	add	x10, x10, x2
    81ac:	d61f0140 	br	x10
    81b0:	d5033f9f 	dsb	sy
    81b4:	8b02014a 	add	x10, x10, x2
    81b8:	d61f0140 	br	x10
    81bc:	d5033f9f 	dsb	sy
    81c0:	8b02014a 	add	x10, x10, x2
    81c4:	d61f0140 	br	x10
    81c8:	d5033f9f 	dsb	sy
    81cc:	8b02014a 	add	x10, x10, x2
    81d0:	d61f0140 	br	x10
    81d4:	d5033f9f 	dsb	sy
    81d8:	8b02014a 	add	x10, x10, x2
    81dc:	d61f0140 	br	x10
    81e0:	d5033f9f 	dsb	sy
    81e4:	8b02014a 	add	x10, x10, x2
    81e8:	d61f0140 	br	x10
    81ec:	d5033f9f 	dsb	sy
    81f0:	8b02014a 	add	x10, x10, x2
    81f4:	d61f0140 	br	x10
    81f8:	d5033f9f 	dsb	sy
    81fc:	8b02014a 	add	x10, x10, x2
    8200:	d61f0140 	br	x10
    8204:	d5033f9f 	dsb	sy
    8208:	8b02014a 	add	x10, x10, x2
    820c:	d61f0140 	br	x10
    8210:	d5033f9f 	dsb	sy
    8214:	8b02014a 	add	x10, x10, x2
    8218:	d61f0140 	br	x10
    821c:	d5033f9f 	dsb	sy
    8220:	8b02014a 	add	x10, x10, x2
    8224:	d61f0140 	br	x10
    8228:	d5033f9f 	dsb	sy
    822c:	8b02014a 	add	x10, x10, x2
    8230:	d61f0140 	br	x10
    8234:	d5033f9f 	dsb	sy
    8238:	8b02014a 	add	x10, x10, x2
    823c:	d61f0140 	br	x10
    8240:	d5033f9f 	dsb	sy
    8244:	8b02014a 	add	x10, x10, x2
    8248:	d61f0140 	br	x10
    824c:	d5033f9f 	dsb	sy
    8250:	8b02014a 	add	x10, x10, x2
    8254:	d61f0140 	br	x10
    8258:	d5033f9f 	dsb	sy
    825c:	8b02014a 	add	x10, x10, x2
    8260:	d61f0140 	br	x10
    8264:	d5033f9f 	dsb	sy
    8268:	8b02014a 	add	x10, x10, x2
    826c:	d61f0140 	br	x10
    8270:	d5033f9f 	dsb	sy
    8274:	8b02014a 	add	x10, x10, x2
    8278:	d61f0140 	br	x10
    827c:	d5033f9f 	dsb	sy
    8280:	8b02014a 	add	x10, x10, x2
    8284:	d61f0140 	br	x10
    8288:	d5033f9f 	dsb	sy
    828c:	8b02014a 	add	x10, x10, x2
    8290:	d61f0140 	br	x10
    8294:	d5033f9f 	dsb	sy
    8298:	8b02014a 	add	x10, x10, x2
    829c:	d61f0140 	br	x10
    82a0:	d5033f9f 	dsb	sy
    82a4:	8b02014a 	add	x10, x10, x2
    82a8:	d61f0140 	br	x10
    82ac:	d5033f9f 	dsb	sy
    82b0:	8b02014a 	add	x10, x10, x2
    82b4:	d61f0140 	br	x10
    82b8:	d5033f9f 	dsb	sy
    82bc:	8b02014a 	add	x10, x10, x2
    82c0:	d61f0140 	br	x10
    82c4:	d5033f9f 	dsb	sy
    82c8:	8b02014a 	add	x10, x10, x2
    82cc:	d61f0140 	br	x10
    82d0:	d5033f9f 	dsb	sy
    82d4:	8b02014a 	add	x10, x10, x2
    82d8:	d61f0140 	br	x10
    82dc:	d5033f9f 	dsb	sy
    82e0:	8b02014a 	add	x10, x10, x2
    82e4:	d61f0140 	br	x10
    82e8:	d5033f9f 	dsb	sy
    82ec:	8b02014a 	add	x10, x10, x2
    82f0:	d61f0140 	br	x10
    82f4:	d5033f9f 	dsb	sy
    82f8:	8b02014a 	add	x10, x10, x2
    82fc:	d61f0140 	br	x10
    8300:	d5033f9f 	dsb	sy
    8304:	8b02014a 	add	x10, x10, x2
    8308:	d61f0140 	br	x10
    830c:	d5033f9f 	dsb	sy
    8310:	8b02014a 	add	x10, x10, x2
    8314:	d61f0140 	br	x10
    8318:	d5033f9f 	dsb	sy
    831c:	8b02014a 	add	x10, x10, x2
    8320:	d61f0140 	br	x10
    8324:	d5033f9f 	dsb	sy
    8328:	8b02014a 	add	x10, x10, x2
    832c:	d61f0140 	br	x10
    8330:	d5033f9f 	dsb	sy
    8334:	8b02014a 	add	x10, x10, x2
    8338:	d61f0140 	br	x10
    833c:	d5033f9f 	dsb	sy
    8340:	8b02014a 	add	x10, x10, x2
    8344:	d61f0140 	br	x10
    8348:	d5033f9f 	dsb	sy
    834c:	8b02014a 	add	x10, x10, x2
    8350:	d61f0140 	br	x10
    8354:	d5033f9f 	dsb	sy
    8358:	8b02014a 	add	x10, x10, x2
    835c:	d61f0140 	br	x10
    8360:	d5033f9f 	dsb	sy
    8364:	8b02014a 	add	x10, x10, x2
    8368:	d61f0140 	br	x10
    836c:	d5033f9f 	dsb	sy
    8370:	8b02014a 	add	x10, x10, x2
    8374:	d61f0140 	br	x10
    8378:	d5033f9f 	dsb	sy
    837c:	8b02014a 	add	x10, x10, x2
    8380:	d61f0140 	br	x10
    8384:	d5033f9f 	dsb	sy
    8388:	8b02014a 	add	x10, x10, x2
    838c:	d61f0140 	br	x10
    8390:	d5033f9f 	dsb	sy
    8394:	8b02014a 	add	x10, x10, x2
    8398:	d61f0140 	br	x10
    839c:	d5033f9f 	dsb	sy
    83a0:	8b02014a 	add	x10, x10, x2
    83a4:	d61f0140 	br	x10
    83a8:	d5033f9f 	dsb	sy
    83ac:	8b02014a 	add	x10, x10, x2
    83b0:	d61f0140 	br	x10
    83b4:	d5033f9f 	dsb	sy
    83b8:	8b02014a 	add	x10, x10, x2
    83bc:	d61f0140 	br	x10
    83c0:	d5033f9f 	dsb	sy
    83c4:	8b02014a 	add	x10, x10, x2
    83c8:	d61f0140 	br	x10
    83cc:	d5033f9f 	dsb	sy
    83d0:	8b02014a 	add	x10, x10, x2
    83d4:	d61f0140 	br	x10
    83d8:	d5033f9f 	dsb	sy
    83dc:	8b02014a 	add	x10, x10, x2
    83e0:	d61f0140 	br	x10
    83e4:	d5033f9f 	dsb	sy
    83e8:	8b02014a 	add	x10, x10, x2
    83ec:	d61f0140 	br	x10
    83f0:	d5033f9f 	dsb	sy
    83f4:	8b02014a 	add	x10, x10, x2
    83f8:	d61f0140 	br	x10
    83fc:	d5033f9f 	dsb	sy
    8400:	8b02014a 	add	x10, x10, x2
    8404:	d61f0140 	br	x10
    8408:	d5033f9f 	dsb	sy
    840c:	8b02014a 	add	x10, x10, x2
    8410:	d61f0140 	br	x10
    8414:	d5033f9f 	dsb	sy
    8418:	8b02014a 	add	x10, x10, x2
    841c:	d61f0140 	br	x10
    8420:	d5033f9f 	dsb	sy
    8424:	8b02014a 	add	x10, x10, x2
    8428:	d61f0140 	br	x10
    842c:	d5033f9f 	dsb	sy
    8430:	8b02014a 	add	x10, x10, x2
    8434:	d61f0140 	br	x10
    8438:	d5033f9f 	dsb	sy
    843c:	8b02014a 	add	x10, x10, x2
    8440:	d61f0140 	br	x10
    8444:	d5033f9f 	dsb	sy
    8448:	8b02014a 	add	x10, x10, x2
    844c:	d61f0140 	br	x10
    8450:	d5033f9f 	dsb	sy
    8454:	8b02014a 	add	x10, x10, x2
    8458:	d61f0140 	br	x10
    845c:	d5033f9f 	dsb	sy
    8460:	8b02014a 	add	x10, x10, x2
    8464:	d61f0140 	br	x10
    8468:	d5033f9f 	dsb	sy
    846c:	8b02014a 	add	x10, x10, x2
    8470:	d61f0140 	br	x10
    8474:	d5033f9f 	dsb	sy
    8478:	8b02014a 	add	x10, x10, x2
    847c:	d61f0140 	br	x10
    8480:	d5033f9f 	dsb	sy
    8484:	8b02014a 	add	x10, x10, x2
    8488:	d61f0140 	br	x10
    848c:	d5033f9f 	dsb	sy
    8490:	8b02014a 	add	x10, x10, x2
    8494:	d61f0140 	br	x10
    8498:	d5033f9f 	dsb	sy
    849c:	8b02014a 	add	x10, x10, x2
    84a0:	d61f0140 	br	x10
    84a4:	d5033f9f 	dsb	sy
    84a8:	8b02014a 	add	x10, x10, x2
    84ac:	d61f0140 	br	x10
    84b0:	d5033f9f 	dsb	sy
    84b4:	8b02014a 	add	x10, x10, x2
    84b8:	d61f0140 	br	x10
    84bc:	d5033f9f 	dsb	sy
    84c0:	8b02014a 	add	x10, x10, x2
    84c4:	d61f0140 	br	x10
    84c8:	d5033f9f 	dsb	sy
    84cc:	8b02014a 	add	x10, x10, x2
    84d0:	d61f0140 	br	x10
    84d4:	d5033f9f 	dsb	sy
    84d8:	8b02014a 	add	x10, x10, x2
    84dc:	d61f0140 	br	x10
    84e0:	d5033f9f 	dsb	sy
    84e4:	8b02014a 	add	x10, x10, x2
    84e8:	d61f0140 	br	x10
    84ec:	d5033f9f 	dsb	sy
    84f0:	8b02014a 	add	x10, x10, x2
    84f4:	d61f0140 	br	x10
    84f8:	d5033f9f 	dsb	sy
    84fc:	8b02014a 	add	x10, x10, x2
    8500:	d61f0140 	br	x10
    8504:	d5033f9f 	dsb	sy
    8508:	8b02014a 	add	x10, x10, x2
    850c:	d61f0140 	br	x10
    8510:	d5033f9f 	dsb	sy
    8514:	8b02014a 	add	x10, x10, x2
    8518:	d61f0140 	br	x10
    851c:	d5033f9f 	dsb	sy
    8520:	8b02014a 	add	x10, x10, x2
    8524:	d61f0140 	br	x10
    8528:	d5033f9f 	dsb	sy
    852c:	8b02014a 	add	x10, x10, x2
    8530:	d61f0140 	br	x10
    8534:	d5033f9f 	dsb	sy
    8538:	8b02014a 	add	x10, x10, x2
    853c:	d61f0140 	br	x10
    8540:	d5033f9f 	dsb	sy
    8544:	8b02014a 	add	x10, x10, x2
    8548:	d61f0140 	br	x10
    854c:	d5033f9f 	dsb	sy
    8550:	8b02014a 	add	x10, x10, x2
    8554:	d61f0140 	br	x10
    8558:	d5033f9f 	dsb	sy
    855c:	8b02014a 	add	x10, x10, x2
    8560:	d61f0140 	br	x10
    8564:	d5033f9f 	dsb	sy
    8568:	8b02014a 	add	x10, x10, x2
    856c:	d61f0140 	br	x10
    8570:	d5033f9f 	dsb	sy
    8574:	8b02014a 	add	x10, x10, x2
    8578:	d61f0140 	br	x10
    857c:	d5033f9f 	dsb	sy
    8580:	8b02014a 	add	x10, x10, x2
    8584:	d61f0140 	br	x10
    8588:	d5033f9f 	dsb	sy
    858c:	8b02014a 	add	x10, x10, x2
    8590:	d61f0140 	br	x10
    8594:	d5033f9f 	dsb	sy
    8598:	8b02014a 	add	x10, x10, x2
    859c:	d61f0140 	br	x10
    85a0:	d5033f9f 	dsb	sy
    85a4:	8b02014a 	add	x10, x10, x2
    85a8:	d61f0140 	br	x10
    85ac:	d5033f9f 	dsb	sy
    85b0:	8b02014a 	add	x10, x10, x2
    85b4:	d61f0140 	br	x10
    85b8:	d5033f9f 	dsb	sy
    85bc:	8b02014a 	add	x10, x10, x2
    85c0:	d61f0140 	br	x10
    85c4:	d5033f9f 	dsb	sy
    85c8:	8b02014a 	add	x10, x10, x2
    85cc:	d61f0140 	br	x10
    85d0:	d5033f9f 	dsb	sy
    85d4:	8b02014a 	add	x10, x10, x2
    85d8:	d61f0140 	br	x10
    85dc:	d5033f9f 	dsb	sy
