
btb_eviction_set:     file format elf64-littleaarch64


Disassembly of section .init:

00000000000006a8 <_init>:
 6a8:	d503201f 	nop
 6ac:	a9bf7bfd 	stp	x29, x30, [sp, #-16]!
 6b0:	910003fd 	mov	x29, sp
 6b4:	94000040 	bl	7b4 <call_weak_fn>
 6b8:	a8c17bfd 	ldp	x29, x30, [sp], #16
 6bc:	d65f03c0 	ret

Disassembly of section .plt:

00000000000006c0 <.plt>:
 6c0:	a9bf7bf0 	stp	x16, x30, [sp, #-16]!
 6c4:	f00002f0 	adrp	x16, 5f000 <__FRAME_END__+0x1ee24>
 6c8:	f947fe11 	ldr	x17, [x16, #4088]
 6cc:	913fe210 	add	x16, x16, #0xff8
 6d0:	d61f0220 	br	x17
 6d4:	d503201f 	nop
 6d8:	d503201f 	nop
 6dc:	d503201f 	nop

00000000000006e0 <__libc_start_main@plt>:
 6e0:	90000310 	adrp	x16, 60000 <__libc_start_main@GLIBC_2.34>
 6e4:	f9400211 	ldr	x17, [x16]
 6e8:	91000210 	add	x16, x16, #0x0
 6ec:	d61f0220 	br	x17

00000000000006f0 <perror@plt>:
 6f0:	90000310 	adrp	x16, 60000 <__libc_start_main@GLIBC_2.34>
 6f4:	f9400611 	ldr	x17, [x16, #8]
 6f8:	91002210 	add	x16, x16, #0x8
 6fc:	d61f0220 	br	x17

0000000000000700 <__cxa_finalize@plt>:
 700:	90000310 	adrp	x16, 60000 <__libc_start_main@GLIBC_2.34>
 704:	f9400a11 	ldr	x17, [x16, #16]
 708:	91004210 	add	x16, x16, #0x10
 70c:	d61f0220 	br	x17

0000000000000710 <open@plt>:
 710:	90000310 	adrp	x16, 60000 <__libc_start_main@GLIBC_2.34>
 714:	f9400e11 	ldr	x17, [x16, #24]
 718:	91006210 	add	x16, x16, #0x18
 71c:	d61f0220 	br	x17

0000000000000720 <__gmon_start__@plt>:
 720:	90000310 	adrp	x16, 60000 <__libc_start_main@GLIBC_2.34>
 724:	f9401211 	ldr	x17, [x16, #32]
 728:	91008210 	add	x16, x16, #0x20
 72c:	d61f0220 	br	x17

0000000000000730 <write@plt>:
 730:	90000310 	adrp	x16, 60000 <__libc_start_main@GLIBC_2.34>
 734:	f9401611 	ldr	x17, [x16, #40]
 738:	9100a210 	add	x16, x16, #0x28
 73c:	d61f0220 	br	x17

0000000000000740 <abort@plt>:
 740:	90000310 	adrp	x16, 60000 <__libc_start_main@GLIBC_2.34>
 744:	f9401a11 	ldr	x17, [x16, #48]
 748:	9100c210 	add	x16, x16, #0x30
 74c:	d61f0220 	br	x17

0000000000000750 <printf@plt>:
 750:	90000310 	adrp	x16, 60000 <__libc_start_main@GLIBC_2.34>
 754:	f9401e11 	ldr	x17, [x16, #56]
 758:	9100e210 	add	x16, x16, #0x38
 75c:	d61f0220 	br	x17

Disassembly of section .text:

0000000000000780 <_start>:
     780:	d503201f 	nop
     784:	d280001d 	mov	x29, #0x0                   	// #0
     788:	d280001e 	mov	x30, #0x0                   	// #0
     78c:	aa0003e5 	mov	x5, x0
     790:	f94003e1 	ldr	x1, [sp]
     794:	910023e2 	add	x2, sp, #0x8
     798:	910003e6 	mov	x6, sp
     79c:	f00002e0 	adrp	x0, 5f000 <__FRAME_END__+0x1ee24>
     7a0:	f947ec00 	ldr	x0, [x0, #4056]
     7a4:	d2800003 	mov	x3, #0x0                   	// #0
     7a8:	d2800004 	mov	x4, #0x0                   	// #0
     7ac:	97ffffcd 	bl	6e0 <__libc_start_main@plt>
     7b0:	97ffffe4 	bl	740 <abort@plt>

00000000000007b4 <call_weak_fn>:
     7b4:	f00002e0 	adrp	x0, 5f000 <__FRAME_END__+0x1ee24>
     7b8:	f947e800 	ldr	x0, [x0, #4048]
     7bc:	b4000040 	cbz	x0, 7c4 <call_weak_fn+0x10>
     7c0:	17ffffd8 	b	720 <__gmon_start__@plt>
     7c4:	d65f03c0 	ret
     7c8:	d503201f 	nop
     7cc:	d503201f 	nop

00000000000007d0 <deregister_tm_clones>:
     7d0:	90000300 	adrp	x0, 60000 <__libc_start_main@GLIBC_2.34>
     7d4:	91014000 	add	x0, x0, #0x50
     7d8:	90000301 	adrp	x1, 60000 <__libc_start_main@GLIBC_2.34>
     7dc:	91014021 	add	x1, x1, #0x50
     7e0:	eb00003f 	cmp	x1, x0
     7e4:	540000c0 	b.eq	7fc <deregister_tm_clones+0x2c>  // b.none
     7e8:	f00002e1 	adrp	x1, 5f000 <__FRAME_END__+0x1ee24>
     7ec:	f947e021 	ldr	x1, [x1, #4032]
     7f0:	b4000061 	cbz	x1, 7fc <deregister_tm_clones+0x2c>
     7f4:	aa0103f0 	mov	x16, x1
     7f8:	d61f0200 	br	x16
     7fc:	d65f03c0 	ret

0000000000000800 <register_tm_clones>:
     800:	90000300 	adrp	x0, 60000 <__libc_start_main@GLIBC_2.34>
     804:	91014000 	add	x0, x0, #0x50
     808:	90000301 	adrp	x1, 60000 <__libc_start_main@GLIBC_2.34>
     80c:	91014021 	add	x1, x1, #0x50
     810:	cb000021 	sub	x1, x1, x0
     814:	d37ffc22 	lsr	x2, x1, #63
     818:	8b810c41 	add	x1, x2, x1, asr #3
     81c:	9341fc21 	asr	x1, x1, #1
     820:	b40000c1 	cbz	x1, 838 <register_tm_clones+0x38>
     824:	f00002e2 	adrp	x2, 5f000 <__FRAME_END__+0x1ee24>
     828:	f947f042 	ldr	x2, [x2, #4064]
     82c:	b4000062 	cbz	x2, 838 <register_tm_clones+0x38>
     830:	aa0203f0 	mov	x16, x2
     834:	d61f0200 	br	x16
     838:	d65f03c0 	ret
     83c:	d503201f 	nop

0000000000000840 <__do_global_dtors_aux>:
     840:	a9be7bfd 	stp	x29, x30, [sp, #-32]!
     844:	910003fd 	mov	x29, sp
     848:	f9000bf3 	str	x19, [sp, #16]
     84c:	90000313 	adrp	x19, 60000 <__libc_start_main@GLIBC_2.34>
     850:	39414260 	ldrb	w0, [x19, #80]
     854:	35000140 	cbnz	w0, 87c <__do_global_dtors_aux+0x3c>
     858:	f00002e0 	adrp	x0, 5f000 <__FRAME_END__+0x1ee24>
     85c:	f947e400 	ldr	x0, [x0, #4040]
     860:	b4000080 	cbz	x0, 870 <__do_global_dtors_aux+0x30>
     864:	90000300 	adrp	x0, 60000 <__libc_start_main@GLIBC_2.34>
     868:	f9402400 	ldr	x0, [x0, #72]
     86c:	97ffffa5 	bl	700 <__cxa_finalize@plt>
     870:	97ffffd8 	bl	7d0 <deregister_tm_clones>
     874:	52800020 	mov	w0, #0x1                   	// #1
     878:	39014260 	strb	w0, [x19, #80]
     87c:	f9400bf3 	ldr	x19, [sp, #16]
     880:	a8c27bfd 	ldp	x29, x30, [sp], #32
     884:	d65f03c0 	ret
     888:	d503201f 	nop
     88c:	d503201f 	nop

0000000000000890 <frame_dummy>:
     890:	17ffffdc 	b	800 <register_tm_clones>

0000000000000894 <num_cycles_to_do_FP_loop>:
     894:	d10143ff 	sub	sp, sp, #0x50
     898:	6d0423e9 	stp	d9, d8, [sp, #64]
     89c:	f9001fe0 	str	x0, [sp, #56]
     8a0:	d53af008 	mrs	x8, s3_2_c15_c0_0
     8a4:	f90017e8 	str	x8, [sp, #40]
     8a8:	f94017e8 	ldr	x8, [sp, #40]
     8ac:	f90013e8 	str	x8, [sp, #32]
     8b0:	f94013e8 	ldr	x8, [sp, #32]
     8b4:	f9001be8 	str	x8, [sp, #48]
     8b8:	f9401fe8 	ldr	x8, [sp, #56]
     8bc:	aa0803e0 	mov	x0, x8
     8c0:	d2e7fe01 	mov	x1, #0x3ff0000000000000    	// #4607182418800017408
     8c4:	9e670020 	fmov	d0, x1
     8c8:	d2e80382 	mov	x2, #0x401c000000000000    	// #4619567317775286272
     8cc:	9e670041 	fmov	d1, x2
     8d0:	1e612802 	fadd	d2, d0, d1
     8d4:	1e612803 	fadd	d3, d0, d1
     8d8:	1e612804 	fadd	d4, d0, d1
     8dc:	1e612805 	fadd	d5, d0, d1
     8e0:	1e612806 	fadd	d6, d0, d1
     8e4:	1e612807 	fadd	d7, d0, d1
     8e8:	1e612808 	fadd	d8, d0, d1
     8ec:	1e612809 	fadd	d9, d0, d1
     8f0:	d1000400 	sub	x0, x0, #0x1
     8f4:	f100001f 	cmp	x0, #0x0
     8f8:	54fffec1 	b.ne	8d0 <num_cycles_to_do_FP_loop+0x3c>  // b.any
     8fc:	d5033fdf 	isb
     900:	d53af008 	mrs	x8, s3_2_c15_c0_0
     904:	f9000be8 	str	x8, [sp, #16]
     908:	f9400be8 	ldr	x8, [sp, #16]
     90c:	f90007e8 	str	x8, [sp, #8]
     910:	f94007e8 	ldr	x8, [sp, #8]
     914:	f9000fe8 	str	x8, [sp, #24]
     918:	f9400fe8 	ldr	x8, [sp, #24]
     91c:	f9401be9 	ldr	x9, [sp, #48]
     920:	eb090100 	subs	x0, x8, x9
     924:	6d4423e9 	ldp	d9, d8, [sp, #64]
     928:	910143ff 	add	sp, sp, #0x50
     92c:	d65f03c0 	ret

0000000000000930 <main>:
     930:	d10243ff 	sub	sp, sp, #0x90
     934:	a9087bfd 	stp	x29, x30, [sp, #128]
     938:	910203fd 	add	x29, sp, #0x80
     93c:	b81fc3bf 	stur	wzr, [x29, #-4]
     940:	90000200 	adrp	x0, 40000 <fst_br+0x1d014>
     944:	91019000 	add	x0, x0, #0x64
     948:	52800041 	mov	w1, #0x2                   	// #2
     94c:	97ffff71 	bl	710 <open@plt>
     950:	b81f83a0 	stur	w0, [x29, #-8]
     954:	b85f83a8 	ldur	w8, [x29, #-8]
     958:	71000108 	subs	w8, w8, #0x0
     95c:	5400010a 	b.ge	97c <main+0x4c>  // b.tcont
     960:	14000001 	b	964 <main+0x34>
     964:	90000200 	adrp	x0, 40000 <fst_br+0x1d014>
     968:	9101fc00 	add	x0, x0, #0x7f
     96c:	97ffff61 	bl	6f0 <perror@plt>
     970:	52800028 	mov	w8, #0x1                   	// #1
     974:	b81fc3a8 	stur	w8, [x29, #-4]
     978:	1400fdb1 	b	4003c <end+0x2c>
     97c:	d10043a1 	sub	x1, x29, #0x10
     980:	d29e9fe8 	mov	x8, #0xf4ff                	// #62719
     984:	f2a8e1e8 	movk	x8, #0x470f, lsl #16
     988:	f2c60068 	movk	x8, #0x3003, lsl #32
     98c:	f81f03a8 	stur	x8, [x29, #-16]
     990:	b85f83a0 	ldur	w0, [x29, #-8]
     994:	d2800102 	mov	x2, #0x8                   	// #8
     998:	97ffff66 	bl	730 <write@plt>
     99c:	f1000008 	subs	x8, x0, #0x0
     9a0:	5400010a 	b.ge	9c0 <main+0x90>  // b.tcont
     9a4:	14000001 	b	9a8 <main+0x78>
     9a8:	90000200 	adrp	x0, 40000 <fst_br+0x1d014>
     9ac:	91027c00 	add	x0, x0, #0x9f
     9b0:	97ffff50 	bl	6f0 <perror@plt>
     9b4:	52800028 	mov	w8, #0x1                   	// #1
     9b8:	b81fc3a8 	stur	w8, [x29, #-4]
     9bc:	1400fda0 	b	4003c <end+0x2c>
     9c0:	d539f108 	mrs	x8, s3_1_c15_c1_0
     9c4:	f81e03a8 	stur	x8, [x29, #-32]
     9c8:	f85e03a8 	ldur	x8, [x29, #-32]
     9cc:	f81d83a8 	stur	x8, [x29, #-40]
     9d0:	f85d83a8 	ldur	x8, [x29, #-40]
     9d4:	f81e83a8 	stur	x8, [x29, #-24]
     9d8:	f85e83a8 	ldur	x8, [x29, #-24]
     9dc:	b2730108 	orr	x8, x8, #0x2000
     9e0:	f81e83a8 	stur	x8, [x29, #-24]
     9e4:	f85e83a8 	ldur	x8, [x29, #-24]
     9e8:	d519f108 	msr	s3_1_c15_c1_0, x8
     9ec:	d5033fdf 	isb
     9f0:	d539f508 	mrs	x8, s3_1_c15_c5_0
     9f4:	f81c83a8 	stur	x8, [x29, #-56]
     9f8:	f85c83a8 	ldur	x8, [x29, #-56]
     9fc:	f90023e8 	str	x8, [sp, #64]
     a00:	f94023e8 	ldr	x8, [sp, #64]
     a04:	f81d03a8 	stur	x8, [x29, #-48]
     a08:	f85d03a8 	ldur	x8, [x29, #-48]
     a0c:	f9001fe8 	str	x8, [sp, #56]
     a10:	d2801fe8 	mov	x8, #0xff                  	// #255
     a14:	f9001be8 	str	x8, [sp, #48]
     a18:	f9401be9 	ldr	x9, [sp, #48]
     a1c:	f90017e9 	str	x9, [sp, #40]
     a20:	f94017ea 	ldr	x10, [sp, #40]
     a24:	f9401fe9 	ldr	x9, [sp, #56]
     a28:	8a2a6129 	bic	x9, x9, x10, lsl #24
     a2c:	f9001fe9 	str	x9, [sp, #56]
     a30:	f90013e8 	str	x8, [sp, #32]
     a34:	f94013e8 	ldr	x8, [sp, #32]
     a38:	f9000fe8 	str	x8, [sp, #24]
     a3c:	f9400fe9 	ldr	x9, [sp, #24]
     a40:	d28018c8 	mov	x8, #0xc6                  	// #198
     a44:	8a090109 	and	x9, x8, x9
     a48:	f9401fe8 	ldr	x8, [sp, #56]
     a4c:	aa096108 	orr	x8, x8, x9, lsl #24
     a50:	f9001fe8 	str	x8, [sp, #56]
     a54:	f9401fe8 	ldr	x8, [sp, #56]
     a58:	f9000be8 	str	x8, [sp, #16]
     a5c:	f9400be8 	ldr	x8, [sp, #16]
     a60:	f81d03a8 	stur	x8, [x29, #-48]
     a64:	f85d03a8 	ldur	x8, [x29, #-48]
     a68:	d519f508 	msr	s3_1_c15_c5_0, x8
     a6c:	d5033fdf 	isb
     a70:	f90007ff 	str	xzr, [sp, #8]
     a74:	d2800141 	mov	x1, #0xa                   	// #10
     a78:	d2800182 	mov	x2, #0xc                   	// #12

0000000000000a7c <s_san>:
     a7c:	d5033f9f 	dsb	sy
     a80:	1000000a 	adr	x10, a80 <s_san+0x4>
     a84:	8b02014a 	add	x10, x10, x2
     a88:	d61f0140 	br	x10
     a8c:	d5033f9f 	dsb	sy
     a90:	8b02014a 	add	x10, x10, x2
     a94:	d61f0140 	br	x10
     a98:	d5033f9f 	dsb	sy
     a9c:	8b02014a 	add	x10, x10, x2
     aa0:	d61f0140 	br	x10
     aa4:	d5033f9f 	dsb	sy
     aa8:	8b02014a 	add	x10, x10, x2
     aac:	d61f0140 	br	x10
     ab0:	d5033f9f 	dsb	sy
     ab4:	8b02014a 	add	x10, x10, x2
     ab8:	d61f0140 	br	x10
     abc:	d5033f9f 	dsb	sy
     ac0:	8b02014a 	add	x10, x10, x2
     ac4:	d61f0140 	br	x10
     ac8:	d5033f9f 	dsb	sy
     acc:	8b02014a 	add	x10, x10, x2
     ad0:	d61f0140 	br	x10
     ad4:	d5033f9f 	dsb	sy
     ad8:	8b02014a 	add	x10, x10, x2
     adc:	d61f0140 	br	x10
     ae0:	d5033f9f 	dsb	sy
     ae4:	8b02014a 	add	x10, x10, x2
     ae8:	d61f0140 	br	x10
     aec:	d5033f9f 	dsb	sy
     af0:	8b02014a 	add	x10, x10, x2
     af4:	d61f0140 	br	x10
     af8:	d5033f9f 	dsb	sy
     afc:	8b02014a 	add	x10, x10, x2
     b00:	d61f0140 	br	x10
     b04:	d5033f9f 	dsb	sy
     b08:	8b02014a 	add	x10, x10, x2
     b0c:	d61f0140 	br	x10
     b10:	d5033f9f 	dsb	sy
     b14:	8b02014a 	add	x10, x10, x2
     b18:	d61f0140 	br	x10
     b1c:	d5033f9f 	dsb	sy
     b20:	8b02014a 	add	x10, x10, x2
     b24:	d61f0140 	br	x10
     b28:	d5033f9f 	dsb	sy
     b2c:	8b02014a 	add	x10, x10, x2
     b30:	d61f0140 	br	x10
     b34:	d5033f9f 	dsb	sy
     b38:	8b02014a 	add	x10, x10, x2
     b3c:	d61f0140 	br	x10
     b40:	d5033f9f 	dsb	sy
     b44:	8b02014a 	add	x10, x10, x2
     b48:	d61f0140 	br	x10
     b4c:	d5033f9f 	dsb	sy
     b50:	8b02014a 	add	x10, x10, x2
     b54:	d61f0140 	br	x10
     b58:	d5033f9f 	dsb	sy
     b5c:	8b02014a 	add	x10, x10, x2
     b60:	d61f0140 	br	x10
     b64:	d5033f9f 	dsb	sy
     b68:	8b02014a 	add	x10, x10, x2
     b6c:	d61f0140 	br	x10
     b70:	d5033f9f 	dsb	sy
     b74:	8b02014a 	add	x10, x10, x2
     b78:	d61f0140 	br	x10
     b7c:	d5033f9f 	dsb	sy
     b80:	8b02014a 	add	x10, x10, x2
     b84:	d61f0140 	br	x10
     b88:	d5033f9f 	dsb	sy
     b8c:	8b02014a 	add	x10, x10, x2
     b90:	d61f0140 	br	x10
     b94:	d5033f9f 	dsb	sy
     b98:	8b02014a 	add	x10, x10, x2
     b9c:	d61f0140 	br	x10
     ba0:	d5033f9f 	dsb	sy
     ba4:	8b02014a 	add	x10, x10, x2
     ba8:	d61f0140 	br	x10
     bac:	d5033f9f 	dsb	sy
     bb0:	8b02014a 	add	x10, x10, x2
     bb4:	d61f0140 	br	x10
     bb8:	d5033f9f 	dsb	sy
     bbc:	8b02014a 	add	x10, x10, x2
     bc0:	d61f0140 	br	x10
     bc4:	d5033f9f 	dsb	sy
     bc8:	8b02014a 	add	x10, x10, x2
     bcc:	d61f0140 	br	x10
     bd0:	d5033f9f 	dsb	sy
     bd4:	8b02014a 	add	x10, x10, x2
     bd8:	d61f0140 	br	x10
     bdc:	d5033f9f 	dsb	sy
     be0:	8b02014a 	add	x10, x10, x2
     be4:	d61f0140 	br	x10
     be8:	d5033f9f 	dsb	sy
     bec:	8b02014a 	add	x10, x10, x2
     bf0:	d61f0140 	br	x10
     bf4:	d5033f9f 	dsb	sy
     bf8:	8b02014a 	add	x10, x10, x2
     bfc:	d61f0140 	br	x10
     c00:	d5033f9f 	dsb	sy
     c04:	8b02014a 	add	x10, x10, x2
     c08:	d61f0140 	br	x10
     c0c:	d5033f9f 	dsb	sy
     c10:	8b02014a 	add	x10, x10, x2
     c14:	d61f0140 	br	x10
     c18:	d5033f9f 	dsb	sy
     c1c:	8b02014a 	add	x10, x10, x2
     c20:	d61f0140 	br	x10
     c24:	d5033f9f 	dsb	sy
     c28:	8b02014a 	add	x10, x10, x2
     c2c:	d61f0140 	br	x10
     c30:	d5033f9f 	dsb	sy
     c34:	8b02014a 	add	x10, x10, x2
     c38:	d61f0140 	br	x10
     c3c:	d5033f9f 	dsb	sy
     c40:	8b02014a 	add	x10, x10, x2
     c44:	d61f0140 	br	x10
     c48:	d5033f9f 	dsb	sy
     c4c:	8b02014a 	add	x10, x10, x2
     c50:	d61f0140 	br	x10
     c54:	d5033f9f 	dsb	sy
     c58:	8b02014a 	add	x10, x10, x2
     c5c:	d61f0140 	br	x10
     c60:	d5033f9f 	dsb	sy
     c64:	8b02014a 	add	x10, x10, x2
     c68:	d61f0140 	br	x10
     c6c:	d5033f9f 	dsb	sy
     c70:	8b02014a 	add	x10, x10, x2
     c74:	d61f0140 	br	x10
     c78:	d5033f9f 	dsb	sy
     c7c:	8b02014a 	add	x10, x10, x2
     c80:	d61f0140 	br	x10
     c84:	d5033f9f 	dsb	sy
     c88:	8b02014a 	add	x10, x10, x2
     c8c:	d61f0140 	br	x10
     c90:	d5033f9f 	dsb	sy
     c94:	8b02014a 	add	x10, x10, x2
     c98:	d61f0140 	br	x10
     c9c:	d5033f9f 	dsb	sy
     ca0:	8b02014a 	add	x10, x10, x2
     ca4:	d61f0140 	br	x10
     ca8:	d5033f9f 	dsb	sy
     cac:	8b02014a 	add	x10, x10, x2
     cb0:	d61f0140 	br	x10
     cb4:	d5033f9f 	dsb	sy
     cb8:	8b02014a 	add	x10, x10, x2
     cbc:	d61f0140 	br	x10
     cc0:	d5033f9f 	dsb	sy
     cc4:	8b02014a 	add	x10, x10, x2
     cc8:	d61f0140 	br	x10
     ccc:	d5033f9f 	dsb	sy
     cd0:	8b02014a 	add	x10, x10, x2
     cd4:	d61f0140 	br	x10
     cd8:	d5033f9f 	dsb	sy
     cdc:	8b02014a 	add	x10, x10, x2
     ce0:	d61f0140 	br	x10
     ce4:	d5033f9f 	dsb	sy
     ce8:	8b02014a 	add	x10, x10, x2
     cec:	d61f0140 	br	x10
     cf0:	d5033f9f 	dsb	sy
     cf4:	8b02014a 	add	x10, x10, x2
     cf8:	d61f0140 	br	x10
     cfc:	d5033f9f 	dsb	sy
     d00:	8b02014a 	add	x10, x10, x2
     d04:	d61f0140 	br	x10
     d08:	d5033f9f 	dsb	sy
     d0c:	8b02014a 	add	x10, x10, x2
     d10:	d61f0140 	br	x10
     d14:	d5033f9f 	dsb	sy
     d18:	8b02014a 	add	x10, x10, x2
     d1c:	d61f0140 	br	x10
     d20:	d5033f9f 	dsb	sy
     d24:	8b02014a 	add	x10, x10, x2
     d28:	d61f0140 	br	x10
     d2c:	d5033f9f 	dsb	sy
     d30:	8b02014a 	add	x10, x10, x2
     d34:	d61f0140 	br	x10
     d38:	d5033f9f 	dsb	sy
     d3c:	8b02014a 	add	x10, x10, x2
     d40:	d61f0140 	br	x10
     d44:	d5033f9f 	dsb	sy
     d48:	8b02014a 	add	x10, x10, x2
     d4c:	d61f0140 	br	x10
     d50:	d5033f9f 	dsb	sy
     d54:	8b02014a 	add	x10, x10, x2
     d58:	d61f0140 	br	x10
     d5c:	d5033f9f 	dsb	sy
     d60:	8b02014a 	add	x10, x10, x2
     d64:	d61f0140 	br	x10
     d68:	d5033f9f 	dsb	sy
     d6c:	8b02014a 	add	x10, x10, x2
     d70:	d61f0140 	br	x10
     d74:	d5033f9f 	dsb	sy
     d78:	8b02014a 	add	x10, x10, x2
     d7c:	d61f0140 	br	x10
     d80:	d5033f9f 	dsb	sy
     d84:	8b02014a 	add	x10, x10, x2
     d88:	d61f0140 	br	x10
     d8c:	d5033f9f 	dsb	sy
     d90:	8b02014a 	add	x10, x10, x2
     d94:	d61f0140 	br	x10
     d98:	d5033f9f 	dsb	sy
     d9c:	8b02014a 	add	x10, x10, x2
     da0:	d61f0140 	br	x10
     da4:	d5033f9f 	dsb	sy
     da8:	8b02014a 	add	x10, x10, x2
     dac:	d61f0140 	br	x10
     db0:	d5033f9f 	dsb	sy
     db4:	8b02014a 	add	x10, x10, x2
     db8:	d61f0140 	br	x10
     dbc:	d5033f9f 	dsb	sy
     dc0:	8b02014a 	add	x10, x10, x2
     dc4:	d61f0140 	br	x10
     dc8:	d5033f9f 	dsb	sy
     dcc:	8b02014a 	add	x10, x10, x2
     dd0:	d61f0140 	br	x10
     dd4:	d5033f9f 	dsb	sy
     dd8:	8b02014a 	add	x10, x10, x2
     ddc:	d61f0140 	br	x10
     de0:	d5033f9f 	dsb	sy
     de4:	8b02014a 	add	x10, x10, x2
     de8:	d61f0140 	br	x10
     dec:	d5033f9f 	dsb	sy
     df0:	8b02014a 	add	x10, x10, x2
     df4:	d61f0140 	br	x10
     df8:	d5033f9f 	dsb	sy
     dfc:	8b02014a 	add	x10, x10, x2
     e00:	d61f0140 	br	x10
     e04:	d5033f9f 	dsb	sy
     e08:	8b02014a 	add	x10, x10, x2
     e0c:	d61f0140 	br	x10
     e10:	d5033f9f 	dsb	sy
     e14:	8b02014a 	add	x10, x10, x2
     e18:	d61f0140 	br	x10
     e1c:	d5033f9f 	dsb	sy
     e20:	8b02014a 	add	x10, x10, x2
     e24:	d61f0140 	br	x10
     e28:	d5033f9f 	dsb	sy
     e2c:	8b02014a 	add	x10, x10, x2
     e30:	d61f0140 	br	x10
     e34:	d5033f9f 	dsb	sy
     e38:	8b02014a 	add	x10, x10, x2
     e3c:	d61f0140 	br	x10
     e40:	d5033f9f 	dsb	sy
     e44:	8b02014a 	add	x10, x10, x2
     e48:	d61f0140 	br	x10
     e4c:	d5033f9f 	dsb	sy
     e50:	8b02014a 	add	x10, x10, x2
     e54:	d61f0140 	br	x10
     e58:	d5033f9f 	dsb	sy
     e5c:	8b02014a 	add	x10, x10, x2
     e60:	d61f0140 	br	x10
     e64:	d5033f9f 	dsb	sy
     e68:	8b02014a 	add	x10, x10, x2
     e6c:	d61f0140 	br	x10
     e70:	d5033f9f 	dsb	sy
     e74:	8b02014a 	add	x10, x10, x2
     e78:	d61f0140 	br	x10
     e7c:	d5033f9f 	dsb	sy
     e80:	8b02014a 	add	x10, x10, x2
     e84:	d61f0140 	br	x10
     e88:	d5033f9f 	dsb	sy
     e8c:	8b02014a 	add	x10, x10, x2
     e90:	d61f0140 	br	x10
     e94:	d5033f9f 	dsb	sy
     e98:	8b02014a 	add	x10, x10, x2
     e9c:	d61f0140 	br	x10
     ea0:	d5033f9f 	dsb	sy
     ea4:	8b02014a 	add	x10, x10, x2
     ea8:	d61f0140 	br	x10
     eac:	d5033f9f 	dsb	sy
     eb0:	8b02014a 	add	x10, x10, x2
     eb4:	d61f0140 	br	x10
     eb8:	d5033f9f 	dsb	sy
     ebc:	8b02014a 	add	x10, x10, x2
     ec0:	d61f0140 	br	x10
     ec4:	d5033f9f 	dsb	sy
     ec8:	8b02014a 	add	x10, x10, x2
     ecc:	d61f0140 	br	x10
     ed0:	d5033f9f 	dsb	sy
     ed4:	8b02014a 	add	x10, x10, x2
     ed8:	d61f0140 	br	x10
     edc:	d5033f9f 	dsb	sy
     ee0:	8b02014a 	add	x10, x10, x2
     ee4:	d61f0140 	br	x10
     ee8:	d5033f9f 	dsb	sy
     eec:	8b02014a 	add	x10, x10, x2
     ef0:	d61f0140 	br	x10
     ef4:	d5033f9f 	dsb	sy
     ef8:	8b02014a 	add	x10, x10, x2
     efc:	d61f0140 	br	x10
     f00:	d5033f9f 	dsb	sy
     f04:	8b02014a 	add	x10, x10, x2
     f08:	d61f0140 	br	x10
     f0c:	d5033f9f 	dsb	sy
     f10:	8b02014a 	add	x10, x10, x2
     f14:	d61f0140 	br	x10
     f18:	d5033f9f 	dsb	sy
     f1c:	8b02014a 	add	x10, x10, x2
     f20:	d61f0140 	br	x10
     f24:	d5033f9f 	dsb	sy
     f28:	8b02014a 	add	x10, x10, x2
     f2c:	d61f0140 	br	x10
     f30:	d5033f9f 	dsb	sy
     f34:	8b02014a 	add	x10, x10, x2
     f38:	d61f0140 	br	x10
     f3c:	d5033f9f 	dsb	sy
     f40:	8b02014a 	add	x10, x10, x2
     f44:	d61f0140 	br	x10
     f48:	d5033f9f 	dsb	sy
     f4c:	8b02014a 	add	x10, x10, x2
     f50:	d61f0140 	br	x10
     f54:	d5033f9f 	dsb	sy
     f58:	8b02014a 	add	x10, x10, x2
     f5c:	d61f0140 	br	x10
     f60:	d5033f9f 	dsb	sy
     f64:	8b02014a 	add	x10, x10, x2
     f68:	d61f0140 	br	x10
     f6c:	d5033f9f 	dsb	sy
     f70:	8b02014a 	add	x10, x10, x2
     f74:	d61f0140 	br	x10
     f78:	d5033f9f 	dsb	sy
     f7c:	8b02014a 	add	x10, x10, x2
     f80:	d61f0140 	br	x10
     f84:	d5033f9f 	dsb	sy
     f88:	8b02014a 	add	x10, x10, x2
     f8c:	d61f0140 	br	x10
     f90:	d5033f9f 	dsb	sy
     f94:	8b02014a 	add	x10, x10, x2
     f98:	d61f0140 	br	x10
     f9c:	d5033f9f 	dsb	sy
     fa0:	8b02014a 	add	x10, x10, x2
     fa4:	d61f0140 	br	x10
     fa8:	d5033f9f 	dsb	sy
     fac:	8b02014a 	add	x10, x10, x2
     fb0:	d61f0140 	br	x10
     fb4:	d5033f9f 	dsb	sy
     fb8:	8b02014a 	add	x10, x10, x2
     fbc:	d61f0140 	br	x10
     fc0:	d5033f9f 	dsb	sy
     fc4:	8b02014a 	add	x10, x10, x2
     fc8:	d61f0140 	br	x10
     fcc:	d5033f9f 	dsb	sy
     fd0:	8b02014a 	add	x10, x10, x2
     fd4:	d61f0140 	br	x10
     fd8:	d5033f9f 	dsb	sy
     fdc:	8b02014a 	add	x10, x10, x2
     fe0:	d61f0140 	br	x10
     fe4:	d5033f9f 	dsb	sy
     fe8:	8b02014a 	add	x10, x10, x2
     fec:	d61f0140 	br	x10
     ff0:	d5033f9f 	dsb	sy
     ff4:	8b02014a 	add	x10, x10, x2
     ff8:	d61f0140 	br	x10
     ffc:	d5033f9f 	dsb	sy
    1000:	8b02014a 	add	x10, x10, x2
    1004:	d61f0140 	br	x10
    1008:	d5033f9f 	dsb	sy
    100c:	8b02014a 	add	x10, x10, x2
    1010:	d61f0140 	br	x10
    1014:	d5033f9f 	dsb	sy
    1018:	8b02014a 	add	x10, x10, x2
    101c:	d61f0140 	br	x10
    1020:	d5033f9f 	dsb	sy
    1024:	8b02014a 	add	x10, x10, x2
    1028:	d61f0140 	br	x10
    102c:	d5033f9f 	dsb	sy
    1030:	8b02014a 	add	x10, x10, x2
    1034:	d61f0140 	br	x10
    1038:	d5033f9f 	dsb	sy
    103c:	8b02014a 	add	x10, x10, x2
    1040:	d61f0140 	br	x10
    1044:	d5033f9f 	dsb	sy
    1048:	8b02014a 	add	x10, x10, x2
    104c:	d61f0140 	br	x10
    1050:	d5033f9f 	dsb	sy
    1054:	8b02014a 	add	x10, x10, x2
    1058:	d61f0140 	br	x10
    105c:	d5033f9f 	dsb	sy
    1060:	8b02014a 	add	x10, x10, x2
    1064:	d61f0140 	br	x10
    1068:	d5033f9f 	dsb	sy
    106c:	8b02014a 	add	x10, x10, x2
    1070:	d61f0140 	br	x10
    1074:	d5033f9f 	dsb	sy
    1078:	8b02014a 	add	x10, x10, x2
    107c:	d61f0140 	br	x10
    1080:	d5033f9f 	dsb	sy
    1084:	8b02014a 	add	x10, x10, x2
    1088:	d61f0140 	br	x10
    108c:	d5033f9f 	dsb	sy
    1090:	8b02014a 	add	x10, x10, x2
    1094:	d61f0140 	br	x10
    1098:	d5033f9f 	dsb	sy
    109c:	8b02014a 	add	x10, x10, x2
    10a0:	d61f0140 	br	x10
    10a4:	d5033f9f 	dsb	sy
    10a8:	8b02014a 	add	x10, x10, x2
    10ac:	d61f0140 	br	x10
    10b0:	d5033f9f 	dsb	sy
    10b4:	8b02014a 	add	x10, x10, x2
    10b8:	d61f0140 	br	x10
    10bc:	d5033f9f 	dsb	sy
    10c0:	8b02014a 	add	x10, x10, x2
    10c4:	d61f0140 	br	x10
    10c8:	d5033f9f 	dsb	sy
    10cc:	8b02014a 	add	x10, x10, x2
    10d0:	d61f0140 	br	x10
    10d4:	d5033f9f 	dsb	sy
    10d8:	8b02014a 	add	x10, x10, x2
    10dc:	d61f0140 	br	x10
    10e0:	d5033f9f 	dsb	sy
    10e4:	8b02014a 	add	x10, x10, x2
    10e8:	d61f0140 	br	x10
    10ec:	d5033f9f 	dsb	sy
    10f0:	8b02014a 	add	x10, x10, x2
    10f4:	d61f0140 	br	x10
    10f8:	d5033f9f 	dsb	sy
    10fc:	8b02014a 	add	x10, x10, x2
    1100:	d61f0140 	br	x10
    1104:	d5033f9f 	dsb	sy
    1108:	8b02014a 	add	x10, x10, x2
    110c:	d61f0140 	br	x10
    1110:	d5033f9f 	dsb	sy
    1114:	8b02014a 	add	x10, x10, x2
    1118:	d61f0140 	br	x10
    111c:	d5033f9f 	dsb	sy
    1120:	8b02014a 	add	x10, x10, x2
    1124:	d61f0140 	br	x10
    1128:	d5033f9f 	dsb	sy
    112c:	8b02014a 	add	x10, x10, x2
    1130:	d61f0140 	br	x10
    1134:	d5033f9f 	dsb	sy
    1138:	8b02014a 	add	x10, x10, x2
    113c:	d61f0140 	br	x10
    1140:	d5033f9f 	dsb	sy
    1144:	8b02014a 	add	x10, x10, x2
    1148:	d61f0140 	br	x10
    114c:	d5033f9f 	dsb	sy
    1150:	8b02014a 	add	x10, x10, x2
    1154:	d61f0140 	br	x10
    1158:	d5033f9f 	dsb	sy
    115c:	8b02014a 	add	x10, x10, x2
    1160:	d61f0140 	br	x10
    1164:	d5033f9f 	dsb	sy
    1168:	8b02014a 	add	x10, x10, x2
    116c:	d61f0140 	br	x10
    1170:	d5033f9f 	dsb	sy
    1174:	8b02014a 	add	x10, x10, x2
    1178:	d61f0140 	br	x10
    117c:	d5033f9f 	dsb	sy
    1180:	8b02014a 	add	x10, x10, x2
    1184:	d61f0140 	br	x10
    1188:	d5033f9f 	dsb	sy
    118c:	8b02014a 	add	x10, x10, x2
    1190:	d61f0140 	br	x10
    1194:	d5033f9f 	dsb	sy
    1198:	8b02014a 	add	x10, x10, x2
    119c:	d61f0140 	br	x10
    11a0:	d5033f9f 	dsb	sy
    11a4:	8b02014a 	add	x10, x10, x2
    11a8:	d61f0140 	br	x10
    11ac:	d5033f9f 	dsb	sy
    11b0:	8b02014a 	add	x10, x10, x2
    11b4:	d61f0140 	br	x10
    11b8:	d5033f9f 	dsb	sy
    11bc:	8b02014a 	add	x10, x10, x2
    11c0:	d61f0140 	br	x10
    11c4:	d5033f9f 	dsb	sy
    11c8:	8b02014a 	add	x10, x10, x2
    11cc:	d61f0140 	br	x10
    11d0:	d5033f9f 	dsb	sy
    11d4:	8b02014a 	add	x10, x10, x2
    11d8:	d61f0140 	br	x10
    11dc:	d5033f9f 	dsb	sy
    11e0:	8b02014a 	add	x10, x10, x2
    11e4:	d61f0140 	br	x10
    11e8:	d5033f9f 	dsb	sy
    11ec:	8b02014a 	add	x10, x10, x2
    11f0:	d61f0140 	br	x10
    11f4:	d5033f9f 	dsb	sy
    11f8:	8b02014a 	add	x10, x10, x2
    11fc:	d61f0140 	br	x10
    1200:	d5033f9f 	dsb	sy
    1204:	8b02014a 	add	x10, x10, x2
    1208:	d61f0140 	br	x10
    120c:	d5033f9f 	dsb	sy
    1210:	8b02014a 	add	x10, x10, x2
    1214:	d61f0140 	br	x10
    1218:	d5033f9f 	dsb	sy
    121c:	8b02014a 	add	x10, x10, x2
    1220:	d61f0140 	br	x10
    1224:	d5033f9f 	dsb	sy
    1228:	8b02014a 	add	x10, x10, x2
    122c:	d61f0140 	br	x10
    1230:	d5033f9f 	dsb	sy
    1234:	8b02014a 	add	x10, x10, x2
    1238:	d61f0140 	br	x10
    123c:	d5033f9f 	dsb	sy
    1240:	8b02014a 	add	x10, x10, x2
    1244:	d61f0140 	br	x10
    1248:	d5033f9f 	dsb	sy
    124c:	8b02014a 	add	x10, x10, x2
    1250:	d61f0140 	br	x10
    1254:	d5033f9f 	dsb	sy
    1258:	8b02014a 	add	x10, x10, x2
    125c:	d61f0140 	br	x10
    1260:	d5033f9f 	dsb	sy
    1264:	8b02014a 	add	x10, x10, x2
    1268:	d61f0140 	br	x10
    126c:	d5033f9f 	dsb	sy
    1270:	8b02014a 	add	x10, x10, x2
    1274:	d61f0140 	br	x10
    1278:	d5033f9f 	dsb	sy
    127c:	8b02014a 	add	x10, x10, x2
    1280:	d61f0140 	br	x10
    1284:	d5033f9f 	dsb	sy
    1288:	8b02014a 	add	x10, x10, x2
    128c:	d61f0140 	br	x10
    1290:	d5033f9f 	dsb	sy
    1294:	8b02014a 	add	x10, x10, x2
    1298:	d61f0140 	br	x10
    129c:	d5033f9f 	dsb	sy
    12a0:	8b02014a 	add	x10, x10, x2
    12a4:	d61f0140 	br	x10
    12a8:	d5033f9f 	dsb	sy
    12ac:	8b02014a 	add	x10, x10, x2
    12b0:	d61f0140 	br	x10
    12b4:	d5033f9f 	dsb	sy
    12b8:	8b02014a 	add	x10, x10, x2
    12bc:	d61f0140 	br	x10
    12c0:	d5033f9f 	dsb	sy
    12c4:	8b02014a 	add	x10, x10, x2
    12c8:	d61f0140 	br	x10
    12cc:	d5033f9f 	dsb	sy
    12d0:	8b02014a 	add	x10, x10, x2
    12d4:	d61f0140 	br	x10
    12d8:	d5033f9f 	dsb	sy
    12dc:	8b02014a 	add	x10, x10, x2
    12e0:	d61f0140 	br	x10
    12e4:	d5033f9f 	dsb	sy
    12e8:	8b02014a 	add	x10, x10, x2
    12ec:	d61f0140 	br	x10
    12f0:	d5033f9f 	dsb	sy
    12f4:	8b02014a 	add	x10, x10, x2
    12f8:	d61f0140 	br	x10
    12fc:	d5033f9f 	dsb	sy
    1300:	8b02014a 	add	x10, x10, x2
    1304:	d61f0140 	br	x10
    1308:	d5033f9f 	dsb	sy
    130c:	8b02014a 	add	x10, x10, x2
    1310:	d61f0140 	br	x10
    1314:	d5033f9f 	dsb	sy
    1318:	8b02014a 	add	x10, x10, x2
    131c:	d61f0140 	br	x10
    1320:	d5033f9f 	dsb	sy
    1324:	8b02014a 	add	x10, x10, x2
    1328:	d61f0140 	br	x10
    132c:	d5033f9f 	dsb	sy
    1330:	8b02014a 	add	x10, x10, x2
    1334:	d61f0140 	br	x10
    1338:	d5033f9f 	dsb	sy
    133c:	8b02014a 	add	x10, x10, x2
    1340:	d61f0140 	br	x10
    1344:	d5033f9f 	dsb	sy
    1348:	8b02014a 	add	x10, x10, x2
    134c:	d61f0140 	br	x10
    1350:	d5033f9f 	dsb	sy
    1354:	8b02014a 	add	x10, x10, x2
    1358:	d61f0140 	br	x10
    135c:	d5033f9f 	dsb	sy
    1360:	8b02014a 	add	x10, x10, x2
    1364:	d61f0140 	br	x10
    1368:	d5033f9f 	dsb	sy
    136c:	8b02014a 	add	x10, x10, x2
    1370:	d61f0140 	br	x10
    1374:	d5033f9f 	dsb	sy
    1378:	8b02014a 	add	x10, x10, x2
    137c:	d61f0140 	br	x10
    1380:	d5033f9f 	dsb	sy
    1384:	8b02014a 	add	x10, x10, x2
    1388:	d61f0140 	br	x10
    138c:	d5033f9f 	dsb	sy
    1390:	8b02014a 	add	x10, x10, x2
    1394:	d61f0140 	br	x10
    1398:	d5033f9f 	dsb	sy
    139c:	8b02014a 	add	x10, x10, x2
    13a0:	d61f0140 	br	x10
    13a4:	d5033f9f 	dsb	sy
    13a8:	8b02014a 	add	x10, x10, x2
    13ac:	d61f0140 	br	x10
    13b0:	d5033f9f 	dsb	sy
    13b4:	8b02014a 	add	x10, x10, x2
    13b8:	d61f0140 	br	x10
    13bc:	d5033f9f 	dsb	sy
    13c0:	8b02014a 	add	x10, x10, x2
    13c4:	d61f0140 	br	x10
    13c8:	d5033f9f 	dsb	sy
    13cc:	8b02014a 	add	x10, x10, x2
    13d0:	d61f0140 	br	x10
    13d4:	d5033f9f 	dsb	sy
    13d8:	8b02014a 	add	x10, x10, x2
    13dc:	d61f0140 	br	x10
    13e0:	d5033f9f 	dsb	sy
    13e4:	8b02014a 	add	x10, x10, x2
    13e8:	d61f0140 	br	x10
    13ec:	d5033f9f 	dsb	sy
    13f0:	8b02014a 	add	x10, x10, x2
    13f4:	d61f0140 	br	x10
    13f8:	d5033f9f 	dsb	sy
    13fc:	8b02014a 	add	x10, x10, x2
    1400:	d61f0140 	br	x10
    1404:	d5033f9f 	dsb	sy
    1408:	8b02014a 	add	x10, x10, x2
    140c:	d61f0140 	br	x10
    1410:	d5033f9f 	dsb	sy
    1414:	8b02014a 	add	x10, x10, x2
    1418:	d61f0140 	br	x10
    141c:	d5033f9f 	dsb	sy
    1420:	8b02014a 	add	x10, x10, x2
    1424:	d61f0140 	br	x10
    1428:	d5033f9f 	dsb	sy
    142c:	8b02014a 	add	x10, x10, x2
    1430:	d61f0140 	br	x10
    1434:	d5033f9f 	dsb	sy
    1438:	8b02014a 	add	x10, x10, x2
    143c:	d61f0140 	br	x10
    1440:	d5033f9f 	dsb	sy
    1444:	8b02014a 	add	x10, x10, x2
    1448:	d61f0140 	br	x10
    144c:	d5033f9f 	dsb	sy
    1450:	8b02014a 	add	x10, x10, x2
    1454:	d61f0140 	br	x10
    1458:	d5033f9f 	dsb	sy
    145c:	8b02014a 	add	x10, x10, x2
    1460:	d61f0140 	br	x10
    1464:	d5033f9f 	dsb	sy
    1468:	8b02014a 	add	x10, x10, x2
    146c:	d61f0140 	br	x10
    1470:	d5033f9f 	dsb	sy
    1474:	8b02014a 	add	x10, x10, x2
    1478:	d61f0140 	br	x10
    147c:	d5033f9f 	dsb	sy
    1480:	8b02014a 	add	x10, x10, x2
    1484:	d61f0140 	br	x10
    1488:	d5033f9f 	dsb	sy
    148c:	8b02014a 	add	x10, x10, x2
    1490:	d61f0140 	br	x10
    1494:	d5033f9f 	dsb	sy
    1498:	8b02014a 	add	x10, x10, x2
    149c:	d61f0140 	br	x10
    14a0:	d5033f9f 	dsb	sy
    14a4:	8b02014a 	add	x10, x10, x2
    14a8:	d61f0140 	br	x10
    14ac:	d5033f9f 	dsb	sy
    14b0:	8b02014a 	add	x10, x10, x2
    14b4:	d61f0140 	br	x10
    14b8:	d5033f9f 	dsb	sy
    14bc:	8b02014a 	add	x10, x10, x2
    14c0:	d61f0140 	br	x10
    14c4:	d5033f9f 	dsb	sy
    14c8:	8b02014a 	add	x10, x10, x2
    14cc:	d61f0140 	br	x10
    14d0:	d5033f9f 	dsb	sy
    14d4:	8b02014a 	add	x10, x10, x2
    14d8:	d61f0140 	br	x10
    14dc:	d5033f9f 	dsb	sy
    14e0:	8b02014a 	add	x10, x10, x2
    14e4:	d61f0140 	br	x10
    14e8:	d5033f9f 	dsb	sy
    14ec:	8b02014a 	add	x10, x10, x2
    14f0:	d61f0140 	br	x10
    14f4:	d5033f9f 	dsb	sy
    14f8:	8b02014a 	add	x10, x10, x2
    14fc:	d61f0140 	br	x10
    1500:	d5033f9f 	dsb	sy
    1504:	8b02014a 	add	x10, x10, x2
    1508:	d61f0140 	br	x10
    150c:	d5033f9f 	dsb	sy
    1510:	8b02014a 	add	x10, x10, x2
    1514:	d61f0140 	br	x10
    1518:	d5033f9f 	dsb	sy
    151c:	8b02014a 	add	x10, x10, x2
    1520:	d61f0140 	br	x10
    1524:	d5033f9f 	dsb	sy
    1528:	8b02014a 	add	x10, x10, x2
    152c:	d61f0140 	br	x10
    1530:	d5033f9f 	dsb	sy
    1534:	8b02014a 	add	x10, x10, x2
    1538:	d61f0140 	br	x10
    153c:	d5033f9f 	dsb	sy
    1540:	8b02014a 	add	x10, x10, x2
    1544:	d61f0140 	br	x10
    1548:	d5033f9f 	dsb	sy
    154c:	8b02014a 	add	x10, x10, x2
    1550:	d61f0140 	br	x10
    1554:	d5033f9f 	dsb	sy
    1558:	8b02014a 	add	x10, x10, x2
    155c:	d61f0140 	br	x10
    1560:	d5033f9f 	dsb	sy
    1564:	8b02014a 	add	x10, x10, x2
    1568:	d61f0140 	br	x10
    156c:	d5033f9f 	dsb	sy
    1570:	8b02014a 	add	x10, x10, x2
    1574:	d61f0140 	br	x10
    1578:	d5033f9f 	dsb	sy
    157c:	8b02014a 	add	x10, x10, x2
    1580:	d61f0140 	br	x10
    1584:	d5033f9f 	dsb	sy
    1588:	8b02014a 	add	x10, x10, x2
    158c:	d61f0140 	br	x10
    1590:	d5033f9f 	dsb	sy
    1594:	8b02014a 	add	x10, x10, x2
    1598:	d61f0140 	br	x10
    159c:	d5033f9f 	dsb	sy
    15a0:	8b02014a 	add	x10, x10, x2
    15a4:	d61f0140 	br	x10
    15a8:	d5033f9f 	dsb	sy
    15ac:	8b02014a 	add	x10, x10, x2
    15b0:	d61f0140 	br	x10
    15b4:	d5033f9f 	dsb	sy
    15b8:	8b02014a 	add	x10, x10, x2
    15bc:	d61f0140 	br	x10
    15c0:	d5033f9f 	dsb	sy
    15c4:	8b02014a 	add	x10, x10, x2
    15c8:	d61f0140 	br	x10
    15cc:	d5033f9f 	dsb	sy
    15d0:	8b02014a 	add	x10, x10, x2
    15d4:	d61f0140 	br	x10
    15d8:	d5033f9f 	dsb	sy
    15dc:	8b02014a 	add	x10, x10, x2
    15e0:	d61f0140 	br	x10
    15e4:	d5033f9f 	dsb	sy
    15e8:	8b02014a 	add	x10, x10, x2
    15ec:	d61f0140 	br	x10
    15f0:	d5033f9f 	dsb	sy
    15f4:	8b02014a 	add	x10, x10, x2
    15f8:	d61f0140 	br	x10
    15fc:	d5033f9f 	dsb	sy
    1600:	8b02014a 	add	x10, x10, x2
    1604:	d61f0140 	br	x10
    1608:	d5033f9f 	dsb	sy
    160c:	8b02014a 	add	x10, x10, x2
    1610:	d61f0140 	br	x10
    1614:	d5033f9f 	dsb	sy
    1618:	8b02014a 	add	x10, x10, x2
    161c:	d61f0140 	br	x10
    1620:	d5033f9f 	dsb	sy
    1624:	8b02014a 	add	x10, x10, x2
    1628:	d61f0140 	br	x10
    162c:	d5033f9f 	dsb	sy
    1630:	8b02014a 	add	x10, x10, x2
    1634:	d61f0140 	br	x10
    1638:	d5033f9f 	dsb	sy
    163c:	8b02014a 	add	x10, x10, x2
    1640:	d61f0140 	br	x10
    1644:	d5033f9f 	dsb	sy
    1648:	8b02014a 	add	x10, x10, x2
    164c:	d61f0140 	br	x10
    1650:	d5033f9f 	dsb	sy
    1654:	8b02014a 	add	x10, x10, x2
    1658:	d61f0140 	br	x10
    165c:	d5033f9f 	dsb	sy
    1660:	8b02014a 	add	x10, x10, x2
    1664:	d61f0140 	br	x10
    1668:	d5033f9f 	dsb	sy
    166c:	8b02014a 	add	x10, x10, x2
    1670:	d61f0140 	br	x10
    1674:	d5033f9f 	dsb	sy
    1678:	8b02014a 	add	x10, x10, x2
    167c:	d61f0140 	br	x10
    1680:	d5033f9f 	dsb	sy
    1684:	8b02014a 	add	x10, x10, x2
    1688:	d61f0140 	br	x10
    168c:	d5033f9f 	dsb	sy
    1690:	8b02014a 	add	x10, x10, x2
    1694:	d61f0140 	br	x10
    1698:	d5033f9f 	dsb	sy
    169c:	8b02014a 	add	x10, x10, x2
    16a0:	d61f0140 	br	x10
    16a4:	d5033f9f 	dsb	sy
    16a8:	8b02014a 	add	x10, x10, x2
    16ac:	d61f0140 	br	x10
    16b0:	d5033f9f 	dsb	sy
    16b4:	8b02014a 	add	x10, x10, x2
    16b8:	d61f0140 	br	x10
    16bc:	d5033f9f 	dsb	sy
    16c0:	8b02014a 	add	x10, x10, x2
    16c4:	d61f0140 	br	x10
    16c8:	d5033f9f 	dsb	sy
    16cc:	8b02014a 	add	x10, x10, x2
    16d0:	d61f0140 	br	x10
    16d4:	d5033f9f 	dsb	sy
    16d8:	8b02014a 	add	x10, x10, x2
    16dc:	d61f0140 	br	x10
    16e0:	d5033f9f 	dsb	sy
    16e4:	8b02014a 	add	x10, x10, x2
    16e8:	d61f0140 	br	x10
    16ec:	d5033f9f 	dsb	sy
    16f0:	8b02014a 	add	x10, x10, x2
    16f4:	d61f0140 	br	x10
    16f8:	d5033f9f 	dsb	sy
    16fc:	8b02014a 	add	x10, x10, x2
    1700:	d61f0140 	br	x10
    1704:	d5033f9f 	dsb	sy
    1708:	8b02014a 	add	x10, x10, x2
    170c:	d61f0140 	br	x10
    1710:	d5033f9f 	dsb	sy
    1714:	8b02014a 	add	x10, x10, x2
    1718:	d61f0140 	br	x10
    171c:	d5033f9f 	dsb	sy
    1720:	8b02014a 	add	x10, x10, x2
    1724:	d61f0140 	br	x10
    1728:	d5033f9f 	dsb	sy
    172c:	8b02014a 	add	x10, x10, x2
    1730:	d61f0140 	br	x10
    1734:	d5033f9f 	dsb	sy
    1738:	8b02014a 	add	x10, x10, x2
    173c:	d61f0140 	br	x10
    1740:	d5033f9f 	dsb	sy
    1744:	8b02014a 	add	x10, x10, x2
    1748:	d61f0140 	br	x10
    174c:	d5033f9f 	dsb	sy
    1750:	8b02014a 	add	x10, x10, x2
    1754:	d61f0140 	br	x10
    1758:	d5033f9f 	dsb	sy
    175c:	8b02014a 	add	x10, x10, x2
    1760:	d61f0140 	br	x10
    1764:	d5033f9f 	dsb	sy
    1768:	8b02014a 	add	x10, x10, x2
    176c:	d61f0140 	br	x10
    1770:	d5033f9f 	dsb	sy
    1774:	8b02014a 	add	x10, x10, x2
    1778:	d61f0140 	br	x10
    177c:	d5033f9f 	dsb	sy
    1780:	8b02014a 	add	x10, x10, x2
    1784:	d61f0140 	br	x10
    1788:	d5033f9f 	dsb	sy
    178c:	8b02014a 	add	x10, x10, x2
    1790:	d61f0140 	br	x10
    1794:	d5033f9f 	dsb	sy
    1798:	8b02014a 	add	x10, x10, x2
    179c:	d61f0140 	br	x10
    17a0:	d5033f9f 	dsb	sy
    17a4:	8b02014a 	add	x10, x10, x2
    17a8:	d61f0140 	br	x10
    17ac:	d5033f9f 	dsb	sy
    17b0:	8b02014a 	add	x10, x10, x2
    17b4:	d61f0140 	br	x10
    17b8:	d5033f9f 	dsb	sy
    17bc:	8b02014a 	add	x10, x10, x2
    17c0:	d61f0140 	br	x10
    17c4:	d5033f9f 	dsb	sy
    17c8:	8b02014a 	add	x10, x10, x2
    17cc:	d61f0140 	br	x10
    17d0:	d5033f9f 	dsb	sy
    17d4:	8b02014a 	add	x10, x10, x2
    17d8:	d61f0140 	br	x10
    17dc:	d5033f9f 	dsb	sy
    17e0:	8b02014a 	add	x10, x10, x2
    17e4:	d61f0140 	br	x10
    17e8:	d5033f9f 	dsb	sy
    17ec:	8b02014a 	add	x10, x10, x2
    17f0:	d61f0140 	br	x10
    17f4:	d5033f9f 	dsb	sy
    17f8:	8b02014a 	add	x10, x10, x2
    17fc:	d61f0140 	br	x10
    1800:	d5033f9f 	dsb	sy
    1804:	8b02014a 	add	x10, x10, x2
    1808:	d61f0140 	br	x10
    180c:	d5033f9f 	dsb	sy
    1810:	8b02014a 	add	x10, x10, x2
    1814:	d61f0140 	br	x10
    1818:	d5033f9f 	dsb	sy
    181c:	8b02014a 	add	x10, x10, x2
    1820:	d61f0140 	br	x10
    1824:	d5033f9f 	dsb	sy
    1828:	8b02014a 	add	x10, x10, x2
    182c:	d61f0140 	br	x10
    1830:	d5033f9f 	dsb	sy
    1834:	8b02014a 	add	x10, x10, x2
    1838:	d61f0140 	br	x10
    183c:	d5033f9f 	dsb	sy
    1840:	8b02014a 	add	x10, x10, x2
    1844:	d61f0140 	br	x10
    1848:	d5033f9f 	dsb	sy
    184c:	8b02014a 	add	x10, x10, x2
    1850:	d61f0140 	br	x10
    1854:	d5033f9f 	dsb	sy
    1858:	8b02014a 	add	x10, x10, x2
    185c:	d61f0140 	br	x10
    1860:	d5033f9f 	dsb	sy
    1864:	8b02014a 	add	x10, x10, x2
    1868:	d61f0140 	br	x10
    186c:	d5033f9f 	dsb	sy
    1870:	8b02014a 	add	x10, x10, x2
    1874:	d61f0140 	br	x10
    1878:	d5033f9f 	dsb	sy
    187c:	8b02014a 	add	x10, x10, x2
    1880:	d61f0140 	br	x10
    1884:	d5033f9f 	dsb	sy
    1888:	8b02014a 	add	x10, x10, x2
    188c:	d61f0140 	br	x10
    1890:	d5033f9f 	dsb	sy
    1894:	8b02014a 	add	x10, x10, x2
    1898:	d61f0140 	br	x10
    189c:	d5033f9f 	dsb	sy
    18a0:	8b02014a 	add	x10, x10, x2
    18a4:	d61f0140 	br	x10
    18a8:	d5033f9f 	dsb	sy
    18ac:	8b02014a 	add	x10, x10, x2
    18b0:	d61f0140 	br	x10
    18b4:	d5033f9f 	dsb	sy
    18b8:	8b02014a 	add	x10, x10, x2
    18bc:	d61f0140 	br	x10
    18c0:	d5033f9f 	dsb	sy
    18c4:	8b02014a 	add	x10, x10, x2
    18c8:	d61f0140 	br	x10
    18cc:	d5033f9f 	dsb	sy
    18d0:	8b02014a 	add	x10, x10, x2
    18d4:	d61f0140 	br	x10
    18d8:	d5033f9f 	dsb	sy
    18dc:	8b02014a 	add	x10, x10, x2
    18e0:	d61f0140 	br	x10
    18e4:	d5033f9f 	dsb	sy
    18e8:	8b02014a 	add	x10, x10, x2
    18ec:	d61f0140 	br	x10
    18f0:	d5033f9f 	dsb	sy
    18f4:	8b02014a 	add	x10, x10, x2
    18f8:	d61f0140 	br	x10
    18fc:	d5033f9f 	dsb	sy
    1900:	8b02014a 	add	x10, x10, x2
    1904:	d61f0140 	br	x10
    1908:	d5033f9f 	dsb	sy
    190c:	8b02014a 	add	x10, x10, x2
    1910:	d61f0140 	br	x10
    1914:	d5033f9f 	dsb	sy
    1918:	8b02014a 	add	x10, x10, x2
    191c:	d61f0140 	br	x10
    1920:	d5033f9f 	dsb	sy
    1924:	8b02014a 	add	x10, x10, x2
    1928:	d61f0140 	br	x10
    192c:	d5033f9f 	dsb	sy
    1930:	8b02014a 	add	x10, x10, x2
    1934:	d61f0140 	br	x10
    1938:	d5033f9f 	dsb	sy
    193c:	8b02014a 	add	x10, x10, x2
    1940:	d61f0140 	br	x10
    1944:	d5033f9f 	dsb	sy
    1948:	8b02014a 	add	x10, x10, x2
    194c:	d61f0140 	br	x10
    1950:	d5033f9f 	dsb	sy
    1954:	8b02014a 	add	x10, x10, x2
    1958:	d61f0140 	br	x10
    195c:	d5033f9f 	dsb	sy
    1960:	8b02014a 	add	x10, x10, x2
    1964:	d61f0140 	br	x10
    1968:	d5033f9f 	dsb	sy
    196c:	8b02014a 	add	x10, x10, x2
    1970:	d61f0140 	br	x10
    1974:	d5033f9f 	dsb	sy
    1978:	8b02014a 	add	x10, x10, x2
    197c:	d61f0140 	br	x10
    1980:	d5033f9f 	dsb	sy
    1984:	8b02014a 	add	x10, x10, x2
    1988:	d61f0140 	br	x10
    198c:	d5033f9f 	dsb	sy
    1990:	8b02014a 	add	x10, x10, x2
    1994:	d61f0140 	br	x10
    1998:	d5033f9f 	dsb	sy
    199c:	8b02014a 	add	x10, x10, x2
    19a0:	d61f0140 	br	x10
    19a4:	d5033f9f 	dsb	sy
    19a8:	8b02014a 	add	x10, x10, x2
    19ac:	d61f0140 	br	x10
    19b0:	d5033f9f 	dsb	sy
    19b4:	8b02014a 	add	x10, x10, x2
    19b8:	d61f0140 	br	x10
    19bc:	d5033f9f 	dsb	sy
    19c0:	8b02014a 	add	x10, x10, x2
    19c4:	d61f0140 	br	x10
    19c8:	d5033f9f 	dsb	sy
    19cc:	8b02014a 	add	x10, x10, x2
    19d0:	d61f0140 	br	x10
    19d4:	d5033f9f 	dsb	sy
    19d8:	8b02014a 	add	x10, x10, x2
    19dc:	d61f0140 	br	x10
    19e0:	d5033f9f 	dsb	sy
    19e4:	8b02014a 	add	x10, x10, x2
    19e8:	d61f0140 	br	x10
    19ec:	d5033f9f 	dsb	sy
    19f0:	8b02014a 	add	x10, x10, x2
    19f4:	d61f0140 	br	x10
    19f8:	d5033f9f 	dsb	sy
    19fc:	8b02014a 	add	x10, x10, x2
    1a00:	d61f0140 	br	x10
    1a04:	d5033f9f 	dsb	sy
    1a08:	8b02014a 	add	x10, x10, x2
    1a0c:	d61f0140 	br	x10
    1a10:	d5033f9f 	dsb	sy
    1a14:	8b02014a 	add	x10, x10, x2
    1a18:	d61f0140 	br	x10
    1a1c:	d5033f9f 	dsb	sy
    1a20:	8b02014a 	add	x10, x10, x2
    1a24:	d61f0140 	br	x10
    1a28:	d5033f9f 	dsb	sy
    1a2c:	8b02014a 	add	x10, x10, x2
    1a30:	d61f0140 	br	x10
    1a34:	d5033f9f 	dsb	sy
    1a38:	8b02014a 	add	x10, x10, x2
    1a3c:	d61f0140 	br	x10
    1a40:	d5033f9f 	dsb	sy
    1a44:	8b02014a 	add	x10, x10, x2
    1a48:	d61f0140 	br	x10
    1a4c:	d5033f9f 	dsb	sy
    1a50:	8b02014a 	add	x10, x10, x2
    1a54:	d61f0140 	br	x10
    1a58:	d5033f9f 	dsb	sy
    1a5c:	8b02014a 	add	x10, x10, x2
    1a60:	d61f0140 	br	x10
    1a64:	d5033f9f 	dsb	sy
    1a68:	8b02014a 	add	x10, x10, x2
    1a6c:	d61f0140 	br	x10
    1a70:	d5033f9f 	dsb	sy
    1a74:	8b02014a 	add	x10, x10, x2
    1a78:	d61f0140 	br	x10
    1a7c:	d5033f9f 	dsb	sy
    1a80:	8b02014a 	add	x10, x10, x2
    1a84:	d61f0140 	br	x10
    1a88:	d5033f9f 	dsb	sy
    1a8c:	8b02014a 	add	x10, x10, x2
    1a90:	d61f0140 	br	x10
    1a94:	d5033f9f 	dsb	sy
    1a98:	8b02014a 	add	x10, x10, x2
    1a9c:	d61f0140 	br	x10
    1aa0:	d5033f9f 	dsb	sy
    1aa4:	8b02014a 	add	x10, x10, x2
    1aa8:	d61f0140 	br	x10
    1aac:	d5033f9f 	dsb	sy
    1ab0:	8b02014a 	add	x10, x10, x2
    1ab4:	d61f0140 	br	x10
    1ab8:	d5033f9f 	dsb	sy
    1abc:	8b02014a 	add	x10, x10, x2
    1ac0:	d61f0140 	br	x10
    1ac4:	d5033f9f 	dsb	sy
    1ac8:	8b02014a 	add	x10, x10, x2
    1acc:	d61f0140 	br	x10
    1ad0:	d5033f9f 	dsb	sy
    1ad4:	8b02014a 	add	x10, x10, x2
    1ad8:	d61f0140 	br	x10
    1adc:	d5033f9f 	dsb	sy
    1ae0:	8b02014a 	add	x10, x10, x2
    1ae4:	d61f0140 	br	x10
    1ae8:	d5033f9f 	dsb	sy
    1aec:	8b02014a 	add	x10, x10, x2
    1af0:	d61f0140 	br	x10
    1af4:	d5033f9f 	dsb	sy
    1af8:	8b02014a 	add	x10, x10, x2
    1afc:	d61f0140 	br	x10
    1b00:	d5033f9f 	dsb	sy
    1b04:	8b02014a 	add	x10, x10, x2
    1b08:	d61f0140 	br	x10
    1b0c:	d5033f9f 	dsb	sy
    1b10:	8b02014a 	add	x10, x10, x2
    1b14:	d61f0140 	br	x10
    1b18:	d5033f9f 	dsb	sy
    1b1c:	8b02014a 	add	x10, x10, x2
    1b20:	d61f0140 	br	x10
    1b24:	d5033f9f 	dsb	sy
    1b28:	8b02014a 	add	x10, x10, x2
    1b2c:	d61f0140 	br	x10
    1b30:	d5033f9f 	dsb	sy
    1b34:	8b02014a 	add	x10, x10, x2
    1b38:	d61f0140 	br	x10
    1b3c:	d5033f9f 	dsb	sy
    1b40:	8b02014a 	add	x10, x10, x2
    1b44:	d61f0140 	br	x10
    1b48:	d5033f9f 	dsb	sy
    1b4c:	8b02014a 	add	x10, x10, x2
    1b50:	d61f0140 	br	x10
    1b54:	d5033f9f 	dsb	sy
    1b58:	8b02014a 	add	x10, x10, x2
    1b5c:	d61f0140 	br	x10
    1b60:	d5033f9f 	dsb	sy
    1b64:	8b02014a 	add	x10, x10, x2
    1b68:	d61f0140 	br	x10
    1b6c:	d5033f9f 	dsb	sy
    1b70:	8b02014a 	add	x10, x10, x2
    1b74:	d61f0140 	br	x10
    1b78:	d5033f9f 	dsb	sy
    1b7c:	8b02014a 	add	x10, x10, x2
    1b80:	d61f0140 	br	x10
    1b84:	d5033f9f 	dsb	sy
    1b88:	8b02014a 	add	x10, x10, x2
    1b8c:	d61f0140 	br	x10
    1b90:	d5033f9f 	dsb	sy
    1b94:	8b02014a 	add	x10, x10, x2
    1b98:	d61f0140 	br	x10
    1b9c:	d5033f9f 	dsb	sy
    1ba0:	8b02014a 	add	x10, x10, x2
    1ba4:	d61f0140 	br	x10
    1ba8:	d5033f9f 	dsb	sy
    1bac:	8b02014a 	add	x10, x10, x2
    1bb0:	d61f0140 	br	x10
    1bb4:	d5033f9f 	dsb	sy
    1bb8:	8b02014a 	add	x10, x10, x2
    1bbc:	d61f0140 	br	x10
    1bc0:	d5033f9f 	dsb	sy
    1bc4:	8b02014a 	add	x10, x10, x2
    1bc8:	d61f0140 	br	x10
    1bcc:	d5033f9f 	dsb	sy
    1bd0:	8b02014a 	add	x10, x10, x2
    1bd4:	d61f0140 	br	x10
    1bd8:	d5033f9f 	dsb	sy
    1bdc:	8b02014a 	add	x10, x10, x2
    1be0:	d61f0140 	br	x10
    1be4:	d5033f9f 	dsb	sy
    1be8:	8b02014a 	add	x10, x10, x2
    1bec:	d61f0140 	br	x10
    1bf0:	d5033f9f 	dsb	sy
    1bf4:	8b02014a 	add	x10, x10, x2
    1bf8:	d61f0140 	br	x10
    1bfc:	d5033f9f 	dsb	sy
    1c00:	8b02014a 	add	x10, x10, x2
    1c04:	d61f0140 	br	x10
    1c08:	d5033f9f 	dsb	sy
    1c0c:	8b02014a 	add	x10, x10, x2
    1c10:	d61f0140 	br	x10
    1c14:	d5033f9f 	dsb	sy
    1c18:	8b02014a 	add	x10, x10, x2
    1c1c:	d61f0140 	br	x10
    1c20:	d5033f9f 	dsb	sy
    1c24:	8b02014a 	add	x10, x10, x2
    1c28:	d61f0140 	br	x10
    1c2c:	d5033f9f 	dsb	sy
    1c30:	8b02014a 	add	x10, x10, x2
    1c34:	d61f0140 	br	x10
    1c38:	d5033f9f 	dsb	sy
    1c3c:	8b02014a 	add	x10, x10, x2
    1c40:	d61f0140 	br	x10
    1c44:	d5033f9f 	dsb	sy
    1c48:	8b02014a 	add	x10, x10, x2
    1c4c:	d61f0140 	br	x10
    1c50:	d5033f9f 	dsb	sy
    1c54:	8b02014a 	add	x10, x10, x2
    1c58:	d61f0140 	br	x10
    1c5c:	d5033f9f 	dsb	sy
    1c60:	8b02014a 	add	x10, x10, x2
    1c64:	d61f0140 	br	x10
    1c68:	d5033f9f 	dsb	sy
    1c6c:	8b02014a 	add	x10, x10, x2
    1c70:	d61f0140 	br	x10
    1c74:	d5033f9f 	dsb	sy
    1c78:	8b02014a 	add	x10, x10, x2
    1c7c:	d61f0140 	br	x10
    1c80:	d5033f9f 	dsb	sy
    1c84:	8b02014a 	add	x10, x10, x2
    1c88:	d61f0140 	br	x10
    1c8c:	d5033f9f 	dsb	sy
    1c90:	8b02014a 	add	x10, x10, x2
    1c94:	d61f0140 	br	x10
    1c98:	d5033f9f 	dsb	sy
    1c9c:	8b02014a 	add	x10, x10, x2
    1ca0:	d61f0140 	br	x10
    1ca4:	d5033f9f 	dsb	sy
    1ca8:	8b02014a 	add	x10, x10, x2
    1cac:	d61f0140 	br	x10
    1cb0:	d5033f9f 	dsb	sy
    1cb4:	8b02014a 	add	x10, x10, x2
    1cb8:	d61f0140 	br	x10
    1cbc:	d5033f9f 	dsb	sy
    1cc0:	8b02014a 	add	x10, x10, x2
    1cc4:	d61f0140 	br	x10
    1cc8:	d5033f9f 	dsb	sy
    1ccc:	8b02014a 	add	x10, x10, x2
    1cd0:	d61f0140 	br	x10
    1cd4:	d5033f9f 	dsb	sy
    1cd8:	8b02014a 	add	x10, x10, x2
    1cdc:	d61f0140 	br	x10
    1ce0:	d5033f9f 	dsb	sy
    1ce4:	8b02014a 	add	x10, x10, x2
    1ce8:	d61f0140 	br	x10
    1cec:	d5033f9f 	dsb	sy
    1cf0:	8b02014a 	add	x10, x10, x2
    1cf4:	d61f0140 	br	x10
    1cf8:	d5033f9f 	dsb	sy
    1cfc:	8b02014a 	add	x10, x10, x2
    1d00:	d61f0140 	br	x10
    1d04:	d5033f9f 	dsb	sy
    1d08:	8b02014a 	add	x10, x10, x2
    1d0c:	d61f0140 	br	x10
    1d10:	d5033f9f 	dsb	sy
    1d14:	8b02014a 	add	x10, x10, x2
    1d18:	d61f0140 	br	x10
    1d1c:	d5033f9f 	dsb	sy
    1d20:	8b02014a 	add	x10, x10, x2
    1d24:	d61f0140 	br	x10
    1d28:	d5033f9f 	dsb	sy
    1d2c:	8b02014a 	add	x10, x10, x2
    1d30:	d61f0140 	br	x10
    1d34:	d5033f9f 	dsb	sy
    1d38:	8b02014a 	add	x10, x10, x2
    1d3c:	d61f0140 	br	x10
    1d40:	d5033f9f 	dsb	sy
    1d44:	8b02014a 	add	x10, x10, x2
    1d48:	d61f0140 	br	x10
    1d4c:	d5033f9f 	dsb	sy
    1d50:	8b02014a 	add	x10, x10, x2
    1d54:	d61f0140 	br	x10
    1d58:	d5033f9f 	dsb	sy
    1d5c:	8b02014a 	add	x10, x10, x2
    1d60:	d61f0140 	br	x10
    1d64:	d5033f9f 	dsb	sy
    1d68:	8b02014a 	add	x10, x10, x2
    1d6c:	d61f0140 	br	x10
    1d70:	d5033f9f 	dsb	sy
    1d74:	8b02014a 	add	x10, x10, x2
    1d78:	d61f0140 	br	x10
    1d7c:	d5033f9f 	dsb	sy
    1d80:	8b02014a 	add	x10, x10, x2
    1d84:	d61f0140 	br	x10
    1d88:	d5033f9f 	dsb	sy
    1d8c:	8b02014a 	add	x10, x10, x2
    1d90:	d61f0140 	br	x10
    1d94:	d5033f9f 	dsb	sy
    1d98:	8b02014a 	add	x10, x10, x2
    1d9c:	d61f0140 	br	x10
    1da0:	d5033f9f 	dsb	sy
    1da4:	8b02014a 	add	x10, x10, x2
    1da8:	d61f0140 	br	x10
    1dac:	d5033f9f 	dsb	sy
    1db0:	8b02014a 	add	x10, x10, x2
    1db4:	d61f0140 	br	x10
    1db8:	d5033f9f 	dsb	sy
    1dbc:	8b02014a 	add	x10, x10, x2
    1dc0:	d61f0140 	br	x10
    1dc4:	d5033f9f 	dsb	sy
    1dc8:	8b02014a 	add	x10, x10, x2
    1dcc:	d61f0140 	br	x10
    1dd0:	d5033f9f 	dsb	sy
    1dd4:	8b02014a 	add	x10, x10, x2
    1dd8:	d61f0140 	br	x10
    1ddc:	d5033f9f 	dsb	sy
    1de0:	8b02014a 	add	x10, x10, x2
    1de4:	d61f0140 	br	x10
    1de8:	d5033f9f 	dsb	sy
    1dec:	8b02014a 	add	x10, x10, x2
    1df0:	d61f0140 	br	x10
    1df4:	d5033f9f 	dsb	sy
    1df8:	8b02014a 	add	x10, x10, x2
    1dfc:	d61f0140 	br	x10
    1e00:	d5033f9f 	dsb	sy
    1e04:	8b02014a 	add	x10, x10, x2
    1e08:	d61f0140 	br	x10
    1e0c:	d5033f9f 	dsb	sy
    1e10:	8b02014a 	add	x10, x10, x2
    1e14:	d61f0140 	br	x10
    1e18:	d5033f9f 	dsb	sy
    1e1c:	8b02014a 	add	x10, x10, x2
    1e20:	d61f0140 	br	x10
    1e24:	d5033f9f 	dsb	sy
    1e28:	8b02014a 	add	x10, x10, x2
    1e2c:	d61f0140 	br	x10
    1e30:	d5033f9f 	dsb	sy
    1e34:	8b02014a 	add	x10, x10, x2
    1e38:	d61f0140 	br	x10
    1e3c:	d5033f9f 	dsb	sy
    1e40:	8b02014a 	add	x10, x10, x2
    1e44:	d61f0140 	br	x10
    1e48:	d5033f9f 	dsb	sy
    1e4c:	8b02014a 	add	x10, x10, x2
    1e50:	d61f0140 	br	x10
    1e54:	d5033f9f 	dsb	sy
    1e58:	8b02014a 	add	x10, x10, x2
    1e5c:	d61f0140 	br	x10
    1e60:	d5033f9f 	dsb	sy
    1e64:	8b02014a 	add	x10, x10, x2
    1e68:	d61f0140 	br	x10
    1e6c:	d5033f9f 	dsb	sy
    1e70:	8b02014a 	add	x10, x10, x2
    1e74:	d61f0140 	br	x10
    1e78:	d5033f9f 	dsb	sy
    1e7c:	8b02014a 	add	x10, x10, x2
    1e80:	d61f0140 	br	x10
    1e84:	d5033f9f 	dsb	sy
    1e88:	8b02014a 	add	x10, x10, x2
    1e8c:	d61f0140 	br	x10
    1e90:	d5033f9f 	dsb	sy
    1e94:	8b02014a 	add	x10, x10, x2
    1e98:	d61f0140 	br	x10
    1e9c:	d5033f9f 	dsb	sy
    1ea0:	8b02014a 	add	x10, x10, x2
    1ea4:	d61f0140 	br	x10
    1ea8:	d5033f9f 	dsb	sy
    1eac:	8b02014a 	add	x10, x10, x2
    1eb0:	d61f0140 	br	x10
    1eb4:	d5033f9f 	dsb	sy
    1eb8:	8b02014a 	add	x10, x10, x2
    1ebc:	d61f0140 	br	x10
    1ec0:	d5033f9f 	dsb	sy
    1ec4:	8b02014a 	add	x10, x10, x2
    1ec8:	d61f0140 	br	x10
    1ecc:	d5033f9f 	dsb	sy
    1ed0:	8b02014a 	add	x10, x10, x2
    1ed4:	d61f0140 	br	x10
    1ed8:	d5033f9f 	dsb	sy
    1edc:	8b02014a 	add	x10, x10, x2
    1ee0:	d61f0140 	br	x10
    1ee4:	d5033f9f 	dsb	sy
    1ee8:	8b02014a 	add	x10, x10, x2
    1eec:	d61f0140 	br	x10
    1ef0:	d5033f9f 	dsb	sy
    1ef4:	8b02014a 	add	x10, x10, x2
    1ef8:	d61f0140 	br	x10
    1efc:	d5033f9f 	dsb	sy
    1f00:	8b02014a 	add	x10, x10, x2
    1f04:	d61f0140 	br	x10
    1f08:	d5033f9f 	dsb	sy
    1f0c:	8b02014a 	add	x10, x10, x2
    1f10:	d61f0140 	br	x10
    1f14:	d5033f9f 	dsb	sy
    1f18:	8b02014a 	add	x10, x10, x2
    1f1c:	d61f0140 	br	x10
    1f20:	d5033f9f 	dsb	sy
    1f24:	8b02014a 	add	x10, x10, x2
    1f28:	d61f0140 	br	x10
    1f2c:	d5033f9f 	dsb	sy
    1f30:	8b02014a 	add	x10, x10, x2
    1f34:	d61f0140 	br	x10
    1f38:	d5033f9f 	dsb	sy
    1f3c:	8b02014a 	add	x10, x10, x2
    1f40:	d61f0140 	br	x10
    1f44:	d5033f9f 	dsb	sy
    1f48:	8b02014a 	add	x10, x10, x2
    1f4c:	d61f0140 	br	x10
    1f50:	d5033f9f 	dsb	sy
    1f54:	8b02014a 	add	x10, x10, x2
    1f58:	d61f0140 	br	x10
    1f5c:	d5033f9f 	dsb	sy
    1f60:	8b02014a 	add	x10, x10, x2
    1f64:	d61f0140 	br	x10
    1f68:	d5033f9f 	dsb	sy
    1f6c:	8b02014a 	add	x10, x10, x2
    1f70:	d61f0140 	br	x10
    1f74:	d5033f9f 	dsb	sy
    1f78:	8b02014a 	add	x10, x10, x2
    1f7c:	d61f0140 	br	x10
    1f80:	d5033f9f 	dsb	sy
    1f84:	8b02014a 	add	x10, x10, x2
    1f88:	d61f0140 	br	x10
    1f8c:	d5033f9f 	dsb	sy
    1f90:	8b02014a 	add	x10, x10, x2
    1f94:	d61f0140 	br	x10
    1f98:	d5033f9f 	dsb	sy
    1f9c:	8b02014a 	add	x10, x10, x2
    1fa0:	d61f0140 	br	x10
    1fa4:	d5033f9f 	dsb	sy
    1fa8:	8b02014a 	add	x10, x10, x2
    1fac:	d61f0140 	br	x10
    1fb0:	d5033f9f 	dsb	sy
    1fb4:	8b02014a 	add	x10, x10, x2
    1fb8:	d61f0140 	br	x10
    1fbc:	d5033f9f 	dsb	sy
    1fc0:	8b02014a 	add	x10, x10, x2
    1fc4:	d61f0140 	br	x10
    1fc8:	d5033f9f 	dsb	sy
    1fcc:	8b02014a 	add	x10, x10, x2
    1fd0:	d61f0140 	br	x10
    1fd4:	d5033f9f 	dsb	sy
    1fd8:	8b02014a 	add	x10, x10, x2
    1fdc:	d61f0140 	br	x10
    1fe0:	d5033f9f 	dsb	sy
    1fe4:	8b02014a 	add	x10, x10, x2
    1fe8:	d61f0140 	br	x10
    1fec:	d5033f9f 	dsb	sy
    1ff0:	8b02014a 	add	x10, x10, x2
    1ff4:	d61f0140 	br	x10
    1ff8:	d5033f9f 	dsb	sy
    1ffc:	8b02014a 	add	x10, x10, x2
    2000:	d61f0140 	br	x10
    2004:	d5033f9f 	dsb	sy
    2008:	8b02014a 	add	x10, x10, x2
    200c:	d61f0140 	br	x10
    2010:	d5033f9f 	dsb	sy
    2014:	8b02014a 	add	x10, x10, x2
    2018:	d61f0140 	br	x10
    201c:	d5033f9f 	dsb	sy
    2020:	8b02014a 	add	x10, x10, x2
    2024:	d61f0140 	br	x10
    2028:	d5033f9f 	dsb	sy
    202c:	8b02014a 	add	x10, x10, x2
    2030:	d61f0140 	br	x10
    2034:	d5033f9f 	dsb	sy
    2038:	8b02014a 	add	x10, x10, x2
    203c:	d61f0140 	br	x10
    2040:	d5033f9f 	dsb	sy
    2044:	8b02014a 	add	x10, x10, x2
    2048:	d61f0140 	br	x10
    204c:	d5033f9f 	dsb	sy
    2050:	8b02014a 	add	x10, x10, x2
    2054:	d61f0140 	br	x10
    2058:	d5033f9f 	dsb	sy
    205c:	8b02014a 	add	x10, x10, x2
    2060:	d61f0140 	br	x10
    2064:	d5033f9f 	dsb	sy
    2068:	8b02014a 	add	x10, x10, x2
    206c:	d61f0140 	br	x10
    2070:	d5033f9f 	dsb	sy
    2074:	8b02014a 	add	x10, x10, x2
    2078:	d61f0140 	br	x10
    207c:	d5033f9f 	dsb	sy
    2080:	8b02014a 	add	x10, x10, x2
    2084:	d61f0140 	br	x10
    2088:	d5033f9f 	dsb	sy
    208c:	8b02014a 	add	x10, x10, x2
    2090:	d61f0140 	br	x10
    2094:	d5033f9f 	dsb	sy
    2098:	8b02014a 	add	x10, x10, x2
    209c:	d61f0140 	br	x10
    20a0:	d5033f9f 	dsb	sy
    20a4:	8b02014a 	add	x10, x10, x2
    20a8:	d61f0140 	br	x10
    20ac:	d5033f9f 	dsb	sy
    20b0:	8b02014a 	add	x10, x10, x2
    20b4:	d61f0140 	br	x10
    20b8:	d5033f9f 	dsb	sy
    20bc:	8b02014a 	add	x10, x10, x2
    20c0:	d61f0140 	br	x10
    20c4:	d5033f9f 	dsb	sy
    20c8:	8b02014a 	add	x10, x10, x2
    20cc:	d61f0140 	br	x10
    20d0:	d5033f9f 	dsb	sy
    20d4:	8b02014a 	add	x10, x10, x2
    20d8:	d61f0140 	br	x10
    20dc:	d5033f9f 	dsb	sy
    20e0:	8b02014a 	add	x10, x10, x2
    20e4:	d61f0140 	br	x10
    20e8:	d5033f9f 	dsb	sy
    20ec:	8b02014a 	add	x10, x10, x2
    20f0:	d61f0140 	br	x10
    20f4:	d5033f9f 	dsb	sy
    20f8:	8b02014a 	add	x10, x10, x2
    20fc:	d61f0140 	br	x10
    2100:	d5033f9f 	dsb	sy
    2104:	8b02014a 	add	x10, x10, x2
    2108:	d61f0140 	br	x10
    210c:	d5033f9f 	dsb	sy
    2110:	8b02014a 	add	x10, x10, x2
    2114:	d61f0140 	br	x10
    2118:	d5033f9f 	dsb	sy
    211c:	8b02014a 	add	x10, x10, x2
    2120:	d61f0140 	br	x10
    2124:	d5033f9f 	dsb	sy
    2128:	8b02014a 	add	x10, x10, x2
    212c:	d61f0140 	br	x10
    2130:	d5033f9f 	dsb	sy
    2134:	8b02014a 	add	x10, x10, x2
    2138:	d61f0140 	br	x10
    213c:	d5033f9f 	dsb	sy
    2140:	8b02014a 	add	x10, x10, x2
    2144:	d61f0140 	br	x10
    2148:	d5033f9f 	dsb	sy
    214c:	8b02014a 	add	x10, x10, x2
    2150:	d61f0140 	br	x10
    2154:	d5033f9f 	dsb	sy
    2158:	8b02014a 	add	x10, x10, x2
    215c:	d61f0140 	br	x10
    2160:	d5033f9f 	dsb	sy
    2164:	8b02014a 	add	x10, x10, x2
    2168:	d61f0140 	br	x10
    216c:	d5033f9f 	dsb	sy
    2170:	8b02014a 	add	x10, x10, x2
    2174:	d61f0140 	br	x10
    2178:	d5033f9f 	dsb	sy
    217c:	8b02014a 	add	x10, x10, x2
    2180:	d61f0140 	br	x10
    2184:	d5033f9f 	dsb	sy
    2188:	8b02014a 	add	x10, x10, x2
    218c:	d61f0140 	br	x10
    2190:	d5033f9f 	dsb	sy
    2194:	8b02014a 	add	x10, x10, x2
    2198:	d61f0140 	br	x10
    219c:	d5033f9f 	dsb	sy
    21a0:	8b02014a 	add	x10, x10, x2
    21a4:	d61f0140 	br	x10
    21a8:	d5033f9f 	dsb	sy
    21ac:	8b02014a 	add	x10, x10, x2
    21b0:	d61f0140 	br	x10
    21b4:	d5033f9f 	dsb	sy
    21b8:	8b02014a 	add	x10, x10, x2
    21bc:	d61f0140 	br	x10
    21c0:	d5033f9f 	dsb	sy
    21c4:	8b02014a 	add	x10, x10, x2
    21c8:	d61f0140 	br	x10
    21cc:	d5033f9f 	dsb	sy
    21d0:	8b02014a 	add	x10, x10, x2
    21d4:	d61f0140 	br	x10
    21d8:	d5033f9f 	dsb	sy
    21dc:	8b02014a 	add	x10, x10, x2
    21e0:	d61f0140 	br	x10
    21e4:	d5033f9f 	dsb	sy
    21e8:	8b02014a 	add	x10, x10, x2
    21ec:	d61f0140 	br	x10
    21f0:	d5033f9f 	dsb	sy
    21f4:	8b02014a 	add	x10, x10, x2
    21f8:	d61f0140 	br	x10
    21fc:	d5033f9f 	dsb	sy
    2200:	8b02014a 	add	x10, x10, x2
    2204:	d61f0140 	br	x10
    2208:	d5033f9f 	dsb	sy
    220c:	8b02014a 	add	x10, x10, x2
    2210:	d61f0140 	br	x10
    2214:	d5033f9f 	dsb	sy
    2218:	8b02014a 	add	x10, x10, x2
    221c:	d61f0140 	br	x10
    2220:	d5033f9f 	dsb	sy
    2224:	8b02014a 	add	x10, x10, x2
    2228:	d61f0140 	br	x10
    222c:	d5033f9f 	dsb	sy
    2230:	8b02014a 	add	x10, x10, x2
    2234:	d61f0140 	br	x10
    2238:	d5033f9f 	dsb	sy
    223c:	8b02014a 	add	x10, x10, x2
    2240:	d61f0140 	br	x10
    2244:	d5033f9f 	dsb	sy
    2248:	8b02014a 	add	x10, x10, x2
    224c:	d61f0140 	br	x10
    2250:	d5033f9f 	dsb	sy
    2254:	8b02014a 	add	x10, x10, x2
    2258:	d61f0140 	br	x10
    225c:	d5033f9f 	dsb	sy
    2260:	8b02014a 	add	x10, x10, x2
    2264:	d61f0140 	br	x10
    2268:	d5033f9f 	dsb	sy
    226c:	8b02014a 	add	x10, x10, x2
    2270:	d61f0140 	br	x10
    2274:	d5033f9f 	dsb	sy
    2278:	8b02014a 	add	x10, x10, x2
    227c:	d61f0140 	br	x10
    2280:	d5033f9f 	dsb	sy
    2284:	8b02014a 	add	x10, x10, x2
    2288:	d61f0140 	br	x10
    228c:	d5033f9f 	dsb	sy
    2290:	8b02014a 	add	x10, x10, x2
    2294:	d61f0140 	br	x10
    2298:	d5033f9f 	dsb	sy
    229c:	8b02014a 	add	x10, x10, x2
    22a0:	d61f0140 	br	x10
    22a4:	d5033f9f 	dsb	sy
    22a8:	8b02014a 	add	x10, x10, x2
    22ac:	d61f0140 	br	x10
    22b0:	d5033f9f 	dsb	sy
    22b4:	8b02014a 	add	x10, x10, x2
    22b8:	d61f0140 	br	x10
    22bc:	d5033f9f 	dsb	sy
    22c0:	8b02014a 	add	x10, x10, x2
    22c4:	d61f0140 	br	x10
    22c8:	d5033f9f 	dsb	sy
    22cc:	8b02014a 	add	x10, x10, x2
    22d0:	d61f0140 	br	x10
    22d4:	d5033f9f 	dsb	sy
    22d8:	8b02014a 	add	x10, x10, x2
    22dc:	d61f0140 	br	x10
    22e0:	d5033f9f 	dsb	sy
    22e4:	8b02014a 	add	x10, x10, x2
    22e8:	d61f0140 	br	x10
    22ec:	d5033f9f 	dsb	sy
    22f0:	8b02014a 	add	x10, x10, x2
    22f4:	d61f0140 	br	x10
    22f8:	d5033f9f 	dsb	sy
    22fc:	8b02014a 	add	x10, x10, x2
    2300:	d61f0140 	br	x10
    2304:	d5033f9f 	dsb	sy
    2308:	8b02014a 	add	x10, x10, x2
    230c:	d61f0140 	br	x10
    2310:	d5033f9f 	dsb	sy
    2314:	8b02014a 	add	x10, x10, x2
    2318:	d61f0140 	br	x10
    231c:	d5033f9f 	dsb	sy
    2320:	8b02014a 	add	x10, x10, x2
    2324:	d61f0140 	br	x10
    2328:	d5033f9f 	dsb	sy
    232c:	8b02014a 	add	x10, x10, x2
    2330:	d61f0140 	br	x10
    2334:	d5033f9f 	dsb	sy
    2338:	8b02014a 	add	x10, x10, x2
    233c:	d61f0140 	br	x10
    2340:	d5033f9f 	dsb	sy
    2344:	8b02014a 	add	x10, x10, x2
    2348:	d61f0140 	br	x10
    234c:	d5033f9f 	dsb	sy
    2350:	8b02014a 	add	x10, x10, x2
    2354:	d61f0140 	br	x10
    2358:	d5033f9f 	dsb	sy
    235c:	8b02014a 	add	x10, x10, x2
    2360:	d61f0140 	br	x10
    2364:	d5033f9f 	dsb	sy
    2368:	8b02014a 	add	x10, x10, x2
    236c:	d61f0140 	br	x10
    2370:	d5033f9f 	dsb	sy
    2374:	8b02014a 	add	x10, x10, x2
    2378:	d61f0140 	br	x10
    237c:	d5033f9f 	dsb	sy
    2380:	8b02014a 	add	x10, x10, x2
    2384:	d61f0140 	br	x10
    2388:	d5033f9f 	dsb	sy
    238c:	8b02014a 	add	x10, x10, x2
    2390:	d61f0140 	br	x10
    2394:	d5033f9f 	dsb	sy
    2398:	8b02014a 	add	x10, x10, x2
    239c:	d61f0140 	br	x10
    23a0:	d5033f9f 	dsb	sy
    23a4:	8b02014a 	add	x10, x10, x2
    23a8:	d61f0140 	br	x10
    23ac:	d5033f9f 	dsb	sy
    23b0:	8b02014a 	add	x10, x10, x2
    23b4:	d61f0140 	br	x10
    23b8:	d5033f9f 	dsb	sy
    23bc:	8b02014a 	add	x10, x10, x2
    23c0:	d61f0140 	br	x10
    23c4:	d5033f9f 	dsb	sy
    23c8:	8b02014a 	add	x10, x10, x2
    23cc:	d61f0140 	br	x10
    23d0:	d5033f9f 	dsb	sy
    23d4:	8b02014a 	add	x10, x10, x2
    23d8:	d61f0140 	br	x10
    23dc:	d5033f9f 	dsb	sy
    23e0:	8b02014a 	add	x10, x10, x2
    23e4:	d61f0140 	br	x10
    23e8:	d5033f9f 	dsb	sy
    23ec:	8b02014a 	add	x10, x10, x2
    23f0:	d61f0140 	br	x10
    23f4:	d5033f9f 	dsb	sy
    23f8:	8b02014a 	add	x10, x10, x2
    23fc:	d61f0140 	br	x10
    2400:	d5033f9f 	dsb	sy
    2404:	8b02014a 	add	x10, x10, x2
    2408:	d61f0140 	br	x10
    240c:	d5033f9f 	dsb	sy
    2410:	8b02014a 	add	x10, x10, x2
    2414:	d61f0140 	br	x10
    2418:	d5033f9f 	dsb	sy
    241c:	8b02014a 	add	x10, x10, x2
    2420:	d61f0140 	br	x10
    2424:	d5033f9f 	dsb	sy
    2428:	8b02014a 	add	x10, x10, x2
    242c:	d61f0140 	br	x10
    2430:	d5033f9f 	dsb	sy
    2434:	8b02014a 	add	x10, x10, x2
    2438:	d61f0140 	br	x10
    243c:	d5033f9f 	dsb	sy
    2440:	8b02014a 	add	x10, x10, x2
    2444:	d61f0140 	br	x10
    2448:	d5033f9f 	dsb	sy
    244c:	8b02014a 	add	x10, x10, x2
    2450:	d61f0140 	br	x10
    2454:	d5033f9f 	dsb	sy
    2458:	8b02014a 	add	x10, x10, x2
    245c:	d61f0140 	br	x10
    2460:	d5033f9f 	dsb	sy
    2464:	8b02014a 	add	x10, x10, x2
    2468:	d61f0140 	br	x10
    246c:	d5033f9f 	dsb	sy
    2470:	8b02014a 	add	x10, x10, x2
    2474:	d61f0140 	br	x10
    2478:	d5033f9f 	dsb	sy
    247c:	8b02014a 	add	x10, x10, x2
    2480:	d61f0140 	br	x10
    2484:	d5033f9f 	dsb	sy
    2488:	8b02014a 	add	x10, x10, x2
    248c:	d61f0140 	br	x10
    2490:	d5033f9f 	dsb	sy
    2494:	8b02014a 	add	x10, x10, x2
    2498:	d61f0140 	br	x10
    249c:	d5033f9f 	dsb	sy
    24a0:	8b02014a 	add	x10, x10, x2
    24a4:	d61f0140 	br	x10
    24a8:	d5033f9f 	dsb	sy
    24ac:	8b02014a 	add	x10, x10, x2
    24b0:	d61f0140 	br	x10
    24b4:	d5033f9f 	dsb	sy
    24b8:	8b02014a 	add	x10, x10, x2
    24bc:	d61f0140 	br	x10
    24c0:	d5033f9f 	dsb	sy
    24c4:	8b02014a 	add	x10, x10, x2
    24c8:	d61f0140 	br	x10
    24cc:	d5033f9f 	dsb	sy
    24d0:	8b02014a 	add	x10, x10, x2
    24d4:	d61f0140 	br	x10
    24d8:	d5033f9f 	dsb	sy
    24dc:	8b02014a 	add	x10, x10, x2
    24e0:	d61f0140 	br	x10
    24e4:	d5033f9f 	dsb	sy
    24e8:	8b02014a 	add	x10, x10, x2
    24ec:	d61f0140 	br	x10
    24f0:	d5033f9f 	dsb	sy
    24f4:	8b02014a 	add	x10, x10, x2
    24f8:	d61f0140 	br	x10
    24fc:	d5033f9f 	dsb	sy
    2500:	8b02014a 	add	x10, x10, x2
    2504:	d61f0140 	br	x10
    2508:	d5033f9f 	dsb	sy
    250c:	8b02014a 	add	x10, x10, x2
    2510:	d61f0140 	br	x10
    2514:	d5033f9f 	dsb	sy
    2518:	8b02014a 	add	x10, x10, x2
    251c:	d61f0140 	br	x10
    2520:	d5033f9f 	dsb	sy
    2524:	8b02014a 	add	x10, x10, x2
    2528:	d61f0140 	br	x10
    252c:	d5033f9f 	dsb	sy
    2530:	8b02014a 	add	x10, x10, x2
    2534:	d61f0140 	br	x10
    2538:	d5033f9f 	dsb	sy
    253c:	8b02014a 	add	x10, x10, x2
    2540:	d61f0140 	br	x10
    2544:	d5033f9f 	dsb	sy
    2548:	8b02014a 	add	x10, x10, x2
    254c:	d61f0140 	br	x10
    2550:	d5033f9f 	dsb	sy
    2554:	8b02014a 	add	x10, x10, x2
    2558:	d61f0140 	br	x10
    255c:	d5033f9f 	dsb	sy
    2560:	8b02014a 	add	x10, x10, x2
    2564:	d61f0140 	br	x10
    2568:	d5033f9f 	dsb	sy
    256c:	8b02014a 	add	x10, x10, x2
    2570:	d61f0140 	br	x10
    2574:	d5033f9f 	dsb	sy
    2578:	8b02014a 	add	x10, x10, x2
    257c:	d61f0140 	br	x10
    2580:	d5033f9f 	dsb	sy
    2584:	8b02014a 	add	x10, x10, x2
    2588:	d61f0140 	br	x10
    258c:	d5033f9f 	dsb	sy
    2590:	8b02014a 	add	x10, x10, x2
    2594:	d61f0140 	br	x10
    2598:	d5033f9f 	dsb	sy
    259c:	8b02014a 	add	x10, x10, x2
    25a0:	d61f0140 	br	x10
    25a4:	d5033f9f 	dsb	sy
    25a8:	8b02014a 	add	x10, x10, x2
    25ac:	d61f0140 	br	x10
    25b0:	d5033f9f 	dsb	sy
    25b4:	8b02014a 	add	x10, x10, x2
    25b8:	d61f0140 	br	x10
    25bc:	d5033f9f 	dsb	sy
    25c0:	8b02014a 	add	x10, x10, x2
    25c4:	d61f0140 	br	x10
    25c8:	d5033f9f 	dsb	sy
    25cc:	8b02014a 	add	x10, x10, x2
    25d0:	d61f0140 	br	x10
    25d4:	d5033f9f 	dsb	sy
    25d8:	8b02014a 	add	x10, x10, x2
    25dc:	d61f0140 	br	x10
    25e0:	d5033f9f 	dsb	sy
    25e4:	8b02014a 	add	x10, x10, x2
    25e8:	d61f0140 	br	x10
    25ec:	d5033f9f 	dsb	sy
    25f0:	8b02014a 	add	x10, x10, x2
    25f4:	d61f0140 	br	x10
    25f8:	d5033f9f 	dsb	sy
    25fc:	8b02014a 	add	x10, x10, x2
    2600:	d61f0140 	br	x10
    2604:	d5033f9f 	dsb	sy
    2608:	8b02014a 	add	x10, x10, x2
    260c:	d61f0140 	br	x10
    2610:	d5033f9f 	dsb	sy
    2614:	8b02014a 	add	x10, x10, x2
    2618:	d61f0140 	br	x10
    261c:	d5033f9f 	dsb	sy
    2620:	8b02014a 	add	x10, x10, x2
    2624:	d61f0140 	br	x10
    2628:	d5033f9f 	dsb	sy
    262c:	8b02014a 	add	x10, x10, x2
    2630:	d61f0140 	br	x10
    2634:	d5033f9f 	dsb	sy
    2638:	8b02014a 	add	x10, x10, x2
    263c:	d61f0140 	br	x10
    2640:	d5033f9f 	dsb	sy
    2644:	8b02014a 	add	x10, x10, x2
    2648:	d61f0140 	br	x10
    264c:	d5033f9f 	dsb	sy
    2650:	8b02014a 	add	x10, x10, x2
    2654:	d61f0140 	br	x10
    2658:	d5033f9f 	dsb	sy
    265c:	8b02014a 	add	x10, x10, x2
    2660:	d61f0140 	br	x10
    2664:	d5033f9f 	dsb	sy
    2668:	8b02014a 	add	x10, x10, x2
    266c:	d61f0140 	br	x10
    2670:	d5033f9f 	dsb	sy
    2674:	8b02014a 	add	x10, x10, x2
    2678:	d61f0140 	br	x10
    267c:	d5033f9f 	dsb	sy
    2680:	8b02014a 	add	x10, x10, x2
    2684:	d61f0140 	br	x10
    2688:	d5033f9f 	dsb	sy
    268c:	8b02014a 	add	x10, x10, x2
    2690:	d61f0140 	br	x10
    2694:	d5033f9f 	dsb	sy
    2698:	8b02014a 	add	x10, x10, x2
    269c:	d61f0140 	br	x10
    26a0:	d5033f9f 	dsb	sy
    26a4:	8b02014a 	add	x10, x10, x2
    26a8:	d61f0140 	br	x10
    26ac:	d5033f9f 	dsb	sy
    26b0:	8b02014a 	add	x10, x10, x2
    26b4:	d61f0140 	br	x10
    26b8:	d5033f9f 	dsb	sy
    26bc:	8b02014a 	add	x10, x10, x2
    26c0:	d61f0140 	br	x10
    26c4:	d5033f9f 	dsb	sy
    26c8:	8b02014a 	add	x10, x10, x2
    26cc:	d61f0140 	br	x10
    26d0:	d5033f9f 	dsb	sy
    26d4:	8b02014a 	add	x10, x10, x2
    26d8:	d61f0140 	br	x10
    26dc:	d5033f9f 	dsb	sy
    26e0:	8b02014a 	add	x10, x10, x2
    26e4:	d61f0140 	br	x10
    26e8:	d5033f9f 	dsb	sy
    26ec:	8b02014a 	add	x10, x10, x2
    26f0:	d61f0140 	br	x10
    26f4:	d5033f9f 	dsb	sy
    26f8:	8b02014a 	add	x10, x10, x2
    26fc:	d61f0140 	br	x10
    2700:	d5033f9f 	dsb	sy
    2704:	8b02014a 	add	x10, x10, x2
    2708:	d61f0140 	br	x10
    270c:	d5033f9f 	dsb	sy
    2710:	8b02014a 	add	x10, x10, x2
    2714:	d61f0140 	br	x10
    2718:	d5033f9f 	dsb	sy
    271c:	8b02014a 	add	x10, x10, x2
    2720:	d61f0140 	br	x10
    2724:	d5033f9f 	dsb	sy
    2728:	8b02014a 	add	x10, x10, x2
    272c:	d61f0140 	br	x10
    2730:	d5033f9f 	dsb	sy
    2734:	8b02014a 	add	x10, x10, x2
    2738:	d61f0140 	br	x10
    273c:	d5033f9f 	dsb	sy
    2740:	8b02014a 	add	x10, x10, x2
    2744:	d61f0140 	br	x10
    2748:	d5033f9f 	dsb	sy
    274c:	8b02014a 	add	x10, x10, x2
    2750:	d61f0140 	br	x10
    2754:	d5033f9f 	dsb	sy
    2758:	8b02014a 	add	x10, x10, x2
    275c:	d61f0140 	br	x10
    2760:	d5033f9f 	dsb	sy
    2764:	8b02014a 	add	x10, x10, x2
    2768:	d61f0140 	br	x10
    276c:	d5033f9f 	dsb	sy
    2770:	8b02014a 	add	x10, x10, x2
    2774:	d61f0140 	br	x10
    2778:	d5033f9f 	dsb	sy
    277c:	8b02014a 	add	x10, x10, x2
    2780:	d61f0140 	br	x10
    2784:	d5033f9f 	dsb	sy
    2788:	8b02014a 	add	x10, x10, x2
    278c:	d61f0140 	br	x10
    2790:	d5033f9f 	dsb	sy
    2794:	8b02014a 	add	x10, x10, x2
    2798:	d61f0140 	br	x10
    279c:	d5033f9f 	dsb	sy
    27a0:	8b02014a 	add	x10, x10, x2
    27a4:	d61f0140 	br	x10
    27a8:	d5033f9f 	dsb	sy
    27ac:	8b02014a 	add	x10, x10, x2
    27b0:	d61f0140 	br	x10
    27b4:	d5033f9f 	dsb	sy
    27b8:	8b02014a 	add	x10, x10, x2
    27bc:	d61f0140 	br	x10
    27c0:	d5033f9f 	dsb	sy
    27c4:	8b02014a 	add	x10, x10, x2
    27c8:	d61f0140 	br	x10
    27cc:	d5033f9f 	dsb	sy
    27d0:	8b02014a 	add	x10, x10, x2
    27d4:	d61f0140 	br	x10
    27d8:	d5033f9f 	dsb	sy
    27dc:	8b02014a 	add	x10, x10, x2
    27e0:	d61f0140 	br	x10
    27e4:	d5033f9f 	dsb	sy
    27e8:	8b02014a 	add	x10, x10, x2
    27ec:	d61f0140 	br	x10
    27f0:	d5033f9f 	dsb	sy
    27f4:	8b02014a 	add	x10, x10, x2
    27f8:	d61f0140 	br	x10
    27fc:	d5033f9f 	dsb	sy
    2800:	8b02014a 	add	x10, x10, x2
    2804:	d61f0140 	br	x10
    2808:	d5033f9f 	dsb	sy
    280c:	8b02014a 	add	x10, x10, x2
    2810:	d61f0140 	br	x10
    2814:	d5033f9f 	dsb	sy
    2818:	8b02014a 	add	x10, x10, x2
    281c:	d61f0140 	br	x10
    2820:	d5033f9f 	dsb	sy
    2824:	8b02014a 	add	x10, x10, x2
    2828:	d61f0140 	br	x10
    282c:	d5033f9f 	dsb	sy
    2830:	8b02014a 	add	x10, x10, x2
    2834:	d61f0140 	br	x10
    2838:	d5033f9f 	dsb	sy
    283c:	8b02014a 	add	x10, x10, x2
    2840:	d61f0140 	br	x10
    2844:	d5033f9f 	dsb	sy
    2848:	8b02014a 	add	x10, x10, x2
    284c:	d61f0140 	br	x10
    2850:	d5033f9f 	dsb	sy
    2854:	8b02014a 	add	x10, x10, x2
    2858:	d61f0140 	br	x10
    285c:	d5033f9f 	dsb	sy
    2860:	8b02014a 	add	x10, x10, x2
    2864:	d61f0140 	br	x10
    2868:	d5033f9f 	dsb	sy
    286c:	8b02014a 	add	x10, x10, x2
    2870:	d61f0140 	br	x10
    2874:	d5033f9f 	dsb	sy
    2878:	8b02014a 	add	x10, x10, x2
    287c:	d61f0140 	br	x10
    2880:	d5033f9f 	dsb	sy
    2884:	8b02014a 	add	x10, x10, x2
    2888:	d61f0140 	br	x10
    288c:	d5033f9f 	dsb	sy
    2890:	8b02014a 	add	x10, x10, x2
    2894:	d61f0140 	br	x10
    2898:	d5033f9f 	dsb	sy
    289c:	8b02014a 	add	x10, x10, x2
    28a0:	d61f0140 	br	x10
    28a4:	d5033f9f 	dsb	sy
    28a8:	8b02014a 	add	x10, x10, x2
    28ac:	d61f0140 	br	x10
    28b0:	d5033f9f 	dsb	sy
    28b4:	8b02014a 	add	x10, x10, x2
    28b8:	d61f0140 	br	x10
    28bc:	d5033f9f 	dsb	sy
    28c0:	8b02014a 	add	x10, x10, x2
    28c4:	d61f0140 	br	x10
    28c8:	d5033f9f 	dsb	sy
    28cc:	8b02014a 	add	x10, x10, x2
    28d0:	d61f0140 	br	x10
    28d4:	d5033f9f 	dsb	sy
    28d8:	8b02014a 	add	x10, x10, x2
    28dc:	d61f0140 	br	x10
    28e0:	d5033f9f 	dsb	sy
    28e4:	8b02014a 	add	x10, x10, x2
    28e8:	d61f0140 	br	x10
    28ec:	d5033f9f 	dsb	sy
    28f0:	8b02014a 	add	x10, x10, x2
    28f4:	d61f0140 	br	x10
    28f8:	d5033f9f 	dsb	sy
    28fc:	8b02014a 	add	x10, x10, x2
    2900:	d61f0140 	br	x10
    2904:	d5033f9f 	dsb	sy
    2908:	8b02014a 	add	x10, x10, x2
    290c:	d61f0140 	br	x10
    2910:	d5033f9f 	dsb	sy
    2914:	8b02014a 	add	x10, x10, x2
    2918:	d61f0140 	br	x10
    291c:	d5033f9f 	dsb	sy
    2920:	8b02014a 	add	x10, x10, x2
    2924:	d61f0140 	br	x10
    2928:	d5033f9f 	dsb	sy
    292c:	8b02014a 	add	x10, x10, x2
    2930:	d61f0140 	br	x10
    2934:	d5033f9f 	dsb	sy
    2938:	8b02014a 	add	x10, x10, x2
    293c:	d61f0140 	br	x10
    2940:	d5033f9f 	dsb	sy
    2944:	8b02014a 	add	x10, x10, x2
    2948:	d61f0140 	br	x10
    294c:	d5033f9f 	dsb	sy
    2950:	8b02014a 	add	x10, x10, x2
    2954:	d61f0140 	br	x10
    2958:	d5033f9f 	dsb	sy
    295c:	8b02014a 	add	x10, x10, x2
    2960:	d61f0140 	br	x10
    2964:	d5033f9f 	dsb	sy
    2968:	8b02014a 	add	x10, x10, x2
    296c:	d61f0140 	br	x10
    2970:	d5033f9f 	dsb	sy
    2974:	8b02014a 	add	x10, x10, x2
    2978:	d61f0140 	br	x10
    297c:	d5033f9f 	dsb	sy
    2980:	8b02014a 	add	x10, x10, x2
    2984:	d61f0140 	br	x10
    2988:	d5033f9f 	dsb	sy
    298c:	8b02014a 	add	x10, x10, x2
    2990:	d61f0140 	br	x10
    2994:	d5033f9f 	dsb	sy
    2998:	8b02014a 	add	x10, x10, x2
    299c:	d61f0140 	br	x10
    29a0:	d5033f9f 	dsb	sy
    29a4:	8b02014a 	add	x10, x10, x2
    29a8:	d61f0140 	br	x10
    29ac:	d5033f9f 	dsb	sy
    29b0:	8b02014a 	add	x10, x10, x2
    29b4:	d61f0140 	br	x10
    29b8:	d5033f9f 	dsb	sy
    29bc:	8b02014a 	add	x10, x10, x2
    29c0:	d61f0140 	br	x10
    29c4:	d5033f9f 	dsb	sy
    29c8:	8b02014a 	add	x10, x10, x2
    29cc:	d61f0140 	br	x10
    29d0:	d5033f9f 	dsb	sy
    29d4:	8b02014a 	add	x10, x10, x2
    29d8:	d61f0140 	br	x10
    29dc:	d5033f9f 	dsb	sy
    29e0:	8b02014a 	add	x10, x10, x2
    29e4:	d61f0140 	br	x10
    29e8:	d5033f9f 	dsb	sy
    29ec:	8b02014a 	add	x10, x10, x2
    29f0:	d61f0140 	br	x10
    29f4:	d5033f9f 	dsb	sy
    29f8:	8b02014a 	add	x10, x10, x2
    29fc:	d61f0140 	br	x10
    2a00:	d5033f9f 	dsb	sy
    2a04:	8b02014a 	add	x10, x10, x2
    2a08:	d61f0140 	br	x10
    2a0c:	d5033f9f 	dsb	sy
    2a10:	8b02014a 	add	x10, x10, x2
    2a14:	d61f0140 	br	x10
    2a18:	d5033f9f 	dsb	sy
    2a1c:	8b02014a 	add	x10, x10, x2
    2a20:	d61f0140 	br	x10
    2a24:	d5033f9f 	dsb	sy
    2a28:	8b02014a 	add	x10, x10, x2
    2a2c:	d61f0140 	br	x10
    2a30:	d5033f9f 	dsb	sy
    2a34:	8b02014a 	add	x10, x10, x2
    2a38:	d61f0140 	br	x10
    2a3c:	d5033f9f 	dsb	sy
    2a40:	8b02014a 	add	x10, x10, x2
    2a44:	d61f0140 	br	x10
    2a48:	d5033f9f 	dsb	sy
    2a4c:	8b02014a 	add	x10, x10, x2
    2a50:	d61f0140 	br	x10
    2a54:	d5033f9f 	dsb	sy
    2a58:	8b02014a 	add	x10, x10, x2
    2a5c:	d61f0140 	br	x10
    2a60:	d5033f9f 	dsb	sy
    2a64:	8b02014a 	add	x10, x10, x2
    2a68:	d61f0140 	br	x10
    2a6c:	d5033f9f 	dsb	sy
    2a70:	8b02014a 	add	x10, x10, x2
    2a74:	d61f0140 	br	x10
    2a78:	d5033f9f 	dsb	sy
    2a7c:	8b02014a 	add	x10, x10, x2
    2a80:	d61f0140 	br	x10
    2a84:	d5033f9f 	dsb	sy
    2a88:	8b02014a 	add	x10, x10, x2
    2a8c:	d61f0140 	br	x10
    2a90:	d5033f9f 	dsb	sy
    2a94:	8b02014a 	add	x10, x10, x2
    2a98:	d61f0140 	br	x10
    2a9c:	d5033f9f 	dsb	sy
    2aa0:	8b02014a 	add	x10, x10, x2
    2aa4:	d61f0140 	br	x10
    2aa8:	d5033f9f 	dsb	sy
    2aac:	8b02014a 	add	x10, x10, x2
    2ab0:	d61f0140 	br	x10
    2ab4:	d5033f9f 	dsb	sy
    2ab8:	8b02014a 	add	x10, x10, x2
    2abc:	d61f0140 	br	x10
    2ac0:	d5033f9f 	dsb	sy
    2ac4:	8b02014a 	add	x10, x10, x2
    2ac8:	d61f0140 	br	x10
    2acc:	d5033f9f 	dsb	sy
    2ad0:	8b02014a 	add	x10, x10, x2
    2ad4:	d61f0140 	br	x10
    2ad8:	d5033f9f 	dsb	sy
    2adc:	8b02014a 	add	x10, x10, x2
    2ae0:	d61f0140 	br	x10
    2ae4:	d5033f9f 	dsb	sy
    2ae8:	8b02014a 	add	x10, x10, x2
    2aec:	d61f0140 	br	x10
    2af0:	d5033f9f 	dsb	sy
    2af4:	8b02014a 	add	x10, x10, x2
    2af8:	d61f0140 	br	x10
    2afc:	d5033f9f 	dsb	sy
    2b00:	8b02014a 	add	x10, x10, x2
    2b04:	d61f0140 	br	x10
    2b08:	d5033f9f 	dsb	sy
    2b0c:	8b02014a 	add	x10, x10, x2
    2b10:	d61f0140 	br	x10
    2b14:	d5033f9f 	dsb	sy
    2b18:	8b02014a 	add	x10, x10, x2
    2b1c:	d61f0140 	br	x10
    2b20:	d5033f9f 	dsb	sy
    2b24:	8b02014a 	add	x10, x10, x2
    2b28:	d61f0140 	br	x10
    2b2c:	d5033f9f 	dsb	sy
    2b30:	8b02014a 	add	x10, x10, x2
    2b34:	d61f0140 	br	x10
    2b38:	d5033f9f 	dsb	sy
    2b3c:	8b02014a 	add	x10, x10, x2
    2b40:	d61f0140 	br	x10
    2b44:	d5033f9f 	dsb	sy
    2b48:	8b02014a 	add	x10, x10, x2
    2b4c:	d61f0140 	br	x10
    2b50:	d5033f9f 	dsb	sy
    2b54:	8b02014a 	add	x10, x10, x2
    2b58:	d61f0140 	br	x10
    2b5c:	d5033f9f 	dsb	sy
    2b60:	8b02014a 	add	x10, x10, x2
    2b64:	d61f0140 	br	x10
    2b68:	d5033f9f 	dsb	sy
    2b6c:	8b02014a 	add	x10, x10, x2
    2b70:	d61f0140 	br	x10
    2b74:	d5033f9f 	dsb	sy
    2b78:	8b02014a 	add	x10, x10, x2
    2b7c:	d61f0140 	br	x10
    2b80:	d5033f9f 	dsb	sy
    2b84:	8b02014a 	add	x10, x10, x2
    2b88:	d61f0140 	br	x10
    2b8c:	d5033f9f 	dsb	sy
    2b90:	8b02014a 	add	x10, x10, x2
    2b94:	d61f0140 	br	x10
    2b98:	d5033f9f 	dsb	sy
    2b9c:	8b02014a 	add	x10, x10, x2
    2ba0:	d61f0140 	br	x10
    2ba4:	d5033f9f 	dsb	sy
    2ba8:	8b02014a 	add	x10, x10, x2
    2bac:	d61f0140 	br	x10
    2bb0:	d5033f9f 	dsb	sy
    2bb4:	8b02014a 	add	x10, x10, x2
    2bb8:	d61f0140 	br	x10
    2bbc:	d5033f9f 	dsb	sy
    2bc0:	8b02014a 	add	x10, x10, x2
    2bc4:	d61f0140 	br	x10
    2bc8:	d5033f9f 	dsb	sy
    2bcc:	8b02014a 	add	x10, x10, x2
    2bd0:	d61f0140 	br	x10
    2bd4:	d5033f9f 	dsb	sy
    2bd8:	8b02014a 	add	x10, x10, x2
    2bdc:	d61f0140 	br	x10
    2be0:	d5033f9f 	dsb	sy
    2be4:	8b02014a 	add	x10, x10, x2
    2be8:	d61f0140 	br	x10
    2bec:	d5033f9f 	dsb	sy
    2bf0:	8b02014a 	add	x10, x10, x2
    2bf4:	d61f0140 	br	x10
    2bf8:	d5033f9f 	dsb	sy
    2bfc:	8b02014a 	add	x10, x10, x2
    2c00:	d61f0140 	br	x10
    2c04:	d5033f9f 	dsb	sy
    2c08:	8b02014a 	add	x10, x10, x2
    2c0c:	d61f0140 	br	x10
    2c10:	d5033f9f 	dsb	sy
    2c14:	8b02014a 	add	x10, x10, x2
    2c18:	d61f0140 	br	x10
    2c1c:	d5033f9f 	dsb	sy
    2c20:	8b02014a 	add	x10, x10, x2
    2c24:	d61f0140 	br	x10
    2c28:	d5033f9f 	dsb	sy
    2c2c:	8b02014a 	add	x10, x10, x2
    2c30:	d61f0140 	br	x10
    2c34:	d5033f9f 	dsb	sy
    2c38:	8b02014a 	add	x10, x10, x2
    2c3c:	d61f0140 	br	x10
    2c40:	d5033f9f 	dsb	sy
    2c44:	8b02014a 	add	x10, x10, x2
    2c48:	d61f0140 	br	x10
    2c4c:	d5033f9f 	dsb	sy
    2c50:	8b02014a 	add	x10, x10, x2
    2c54:	d61f0140 	br	x10
    2c58:	d5033f9f 	dsb	sy
    2c5c:	8b02014a 	add	x10, x10, x2
    2c60:	d61f0140 	br	x10
    2c64:	d5033f9f 	dsb	sy
    2c68:	8b02014a 	add	x10, x10, x2
    2c6c:	d61f0140 	br	x10
    2c70:	d5033f9f 	dsb	sy
    2c74:	8b02014a 	add	x10, x10, x2
    2c78:	d61f0140 	br	x10
    2c7c:	d5033f9f 	dsb	sy
    2c80:	8b02014a 	add	x10, x10, x2
    2c84:	d61f0140 	br	x10
    2c88:	d5033f9f 	dsb	sy
    2c8c:	8b02014a 	add	x10, x10, x2
    2c90:	d61f0140 	br	x10
    2c94:	d5033f9f 	dsb	sy
    2c98:	8b02014a 	add	x10, x10, x2
    2c9c:	d61f0140 	br	x10
    2ca0:	d5033f9f 	dsb	sy
    2ca4:	8b02014a 	add	x10, x10, x2
    2ca8:	d61f0140 	br	x10
    2cac:	d5033f9f 	dsb	sy
    2cb0:	8b02014a 	add	x10, x10, x2
    2cb4:	d61f0140 	br	x10
    2cb8:	d5033f9f 	dsb	sy
    2cbc:	8b02014a 	add	x10, x10, x2
    2cc0:	d61f0140 	br	x10
    2cc4:	d5033f9f 	dsb	sy
    2cc8:	8b02014a 	add	x10, x10, x2
    2ccc:	d61f0140 	br	x10
    2cd0:	d5033f9f 	dsb	sy
    2cd4:	8b02014a 	add	x10, x10, x2
    2cd8:	d61f0140 	br	x10
    2cdc:	d5033f9f 	dsb	sy
    2ce0:	8b02014a 	add	x10, x10, x2
    2ce4:	d61f0140 	br	x10
    2ce8:	d5033f9f 	dsb	sy
    2cec:	8b02014a 	add	x10, x10, x2
    2cf0:	d61f0140 	br	x10
    2cf4:	d5033f9f 	dsb	sy
    2cf8:	8b02014a 	add	x10, x10, x2
    2cfc:	d61f0140 	br	x10
    2d00:	d5033f9f 	dsb	sy
    2d04:	8b02014a 	add	x10, x10, x2
    2d08:	d61f0140 	br	x10
    2d0c:	d5033f9f 	dsb	sy
    2d10:	8b02014a 	add	x10, x10, x2
    2d14:	d61f0140 	br	x10
    2d18:	d5033f9f 	dsb	sy
    2d1c:	8b02014a 	add	x10, x10, x2
    2d20:	d61f0140 	br	x10
    2d24:	d5033f9f 	dsb	sy
    2d28:	8b02014a 	add	x10, x10, x2
    2d2c:	d61f0140 	br	x10
    2d30:	d5033f9f 	dsb	sy
    2d34:	8b02014a 	add	x10, x10, x2
    2d38:	d61f0140 	br	x10
    2d3c:	d5033f9f 	dsb	sy
    2d40:	8b02014a 	add	x10, x10, x2
    2d44:	d61f0140 	br	x10
    2d48:	d5033f9f 	dsb	sy
    2d4c:	8b02014a 	add	x10, x10, x2
    2d50:	d61f0140 	br	x10
    2d54:	d5033f9f 	dsb	sy
    2d58:	8b02014a 	add	x10, x10, x2
    2d5c:	d61f0140 	br	x10
    2d60:	d5033f9f 	dsb	sy
    2d64:	8b02014a 	add	x10, x10, x2
    2d68:	d61f0140 	br	x10
    2d6c:	d5033f9f 	dsb	sy
    2d70:	8b02014a 	add	x10, x10, x2
    2d74:	d61f0140 	br	x10
    2d78:	d5033f9f 	dsb	sy
    2d7c:	8b02014a 	add	x10, x10, x2
    2d80:	d61f0140 	br	x10
    2d84:	d5033f9f 	dsb	sy
    2d88:	8b02014a 	add	x10, x10, x2
    2d8c:	d61f0140 	br	x10
    2d90:	d5033f9f 	dsb	sy
    2d94:	8b02014a 	add	x10, x10, x2
    2d98:	d61f0140 	br	x10
    2d9c:	d5033f9f 	dsb	sy
    2da0:	8b02014a 	add	x10, x10, x2
    2da4:	d61f0140 	br	x10
    2da8:	d5033f9f 	dsb	sy
    2dac:	8b02014a 	add	x10, x10, x2
    2db0:	d61f0140 	br	x10
    2db4:	d5033f9f 	dsb	sy
    2db8:	8b02014a 	add	x10, x10, x2
    2dbc:	d61f0140 	br	x10
    2dc0:	d5033f9f 	dsb	sy
    2dc4:	8b02014a 	add	x10, x10, x2
    2dc8:	d61f0140 	br	x10
    2dcc:	d5033f9f 	dsb	sy
    2dd0:	8b02014a 	add	x10, x10, x2
    2dd4:	d61f0140 	br	x10
    2dd8:	d5033f9f 	dsb	sy
    2ddc:	8b02014a 	add	x10, x10, x2
    2de0:	d61f0140 	br	x10
    2de4:	d5033f9f 	dsb	sy
    2de8:	8b02014a 	add	x10, x10, x2
    2dec:	d61f0140 	br	x10
    2df0:	d5033f9f 	dsb	sy
    2df4:	8b02014a 	add	x10, x10, x2
    2df8:	d61f0140 	br	x10
    2dfc:	d5033f9f 	dsb	sy
    2e00:	8b02014a 	add	x10, x10, x2
    2e04:	d61f0140 	br	x10
    2e08:	d5033f9f 	dsb	sy
    2e0c:	8b02014a 	add	x10, x10, x2
    2e10:	d61f0140 	br	x10
    2e14:	d5033f9f 	dsb	sy
    2e18:	8b02014a 	add	x10, x10, x2
    2e1c:	d61f0140 	br	x10
    2e20:	d5033f9f 	dsb	sy
    2e24:	8b02014a 	add	x10, x10, x2
    2e28:	d61f0140 	br	x10
    2e2c:	d5033f9f 	dsb	sy
    2e30:	8b02014a 	add	x10, x10, x2
    2e34:	d61f0140 	br	x10
    2e38:	d5033f9f 	dsb	sy
    2e3c:	8b02014a 	add	x10, x10, x2
    2e40:	d61f0140 	br	x10
    2e44:	d5033f9f 	dsb	sy
    2e48:	8b02014a 	add	x10, x10, x2
    2e4c:	d61f0140 	br	x10
    2e50:	d5033f9f 	dsb	sy
    2e54:	8b02014a 	add	x10, x10, x2
    2e58:	d61f0140 	br	x10
    2e5c:	d5033f9f 	dsb	sy
    2e60:	8b02014a 	add	x10, x10, x2
    2e64:	d61f0140 	br	x10
    2e68:	d5033f9f 	dsb	sy
    2e6c:	8b02014a 	add	x10, x10, x2
    2e70:	d61f0140 	br	x10
    2e74:	d5033f9f 	dsb	sy
    2e78:	8b02014a 	add	x10, x10, x2
    2e7c:	d61f0140 	br	x10
    2e80:	d5033f9f 	dsb	sy
    2e84:	8b02014a 	add	x10, x10, x2
    2e88:	d61f0140 	br	x10
    2e8c:	d5033f9f 	dsb	sy
    2e90:	8b02014a 	add	x10, x10, x2
    2e94:	d61f0140 	br	x10
    2e98:	d5033f9f 	dsb	sy
    2e9c:	8b02014a 	add	x10, x10, x2
    2ea0:	d61f0140 	br	x10
    2ea4:	d5033f9f 	dsb	sy
    2ea8:	8b02014a 	add	x10, x10, x2
    2eac:	d61f0140 	br	x10
    2eb0:	d5033f9f 	dsb	sy
    2eb4:	8b02014a 	add	x10, x10, x2
    2eb8:	d61f0140 	br	x10
    2ebc:	d5033f9f 	dsb	sy
    2ec0:	8b02014a 	add	x10, x10, x2
    2ec4:	d61f0140 	br	x10
    2ec8:	d5033f9f 	dsb	sy
    2ecc:	8b02014a 	add	x10, x10, x2
    2ed0:	d61f0140 	br	x10
    2ed4:	d5033f9f 	dsb	sy
    2ed8:	8b02014a 	add	x10, x10, x2
    2edc:	d61f0140 	br	x10
    2ee0:	d5033f9f 	dsb	sy
    2ee4:	8b02014a 	add	x10, x10, x2
    2ee8:	d61f0140 	br	x10
    2eec:	d5033f9f 	dsb	sy
    2ef0:	8b02014a 	add	x10, x10, x2
    2ef4:	d61f0140 	br	x10
    2ef8:	d5033f9f 	dsb	sy
    2efc:	8b02014a 	add	x10, x10, x2
    2f00:	d61f0140 	br	x10
    2f04:	d5033f9f 	dsb	sy
    2f08:	8b02014a 	add	x10, x10, x2
    2f0c:	d61f0140 	br	x10
    2f10:	d5033f9f 	dsb	sy
    2f14:	8b02014a 	add	x10, x10, x2
    2f18:	d61f0140 	br	x10
    2f1c:	d5033f9f 	dsb	sy
    2f20:	8b02014a 	add	x10, x10, x2
    2f24:	d61f0140 	br	x10
    2f28:	d5033f9f 	dsb	sy
    2f2c:	8b02014a 	add	x10, x10, x2
    2f30:	d61f0140 	br	x10
    2f34:	d5033f9f 	dsb	sy
    2f38:	8b02014a 	add	x10, x10, x2
    2f3c:	d61f0140 	br	x10
    2f40:	d5033f9f 	dsb	sy
    2f44:	8b02014a 	add	x10, x10, x2
    2f48:	d61f0140 	br	x10
    2f4c:	d5033f9f 	dsb	sy
    2f50:	8b02014a 	add	x10, x10, x2
    2f54:	d61f0140 	br	x10
    2f58:	d5033f9f 	dsb	sy
    2f5c:	8b02014a 	add	x10, x10, x2
    2f60:	d61f0140 	br	x10
    2f64:	d5033f9f 	dsb	sy
    2f68:	8b02014a 	add	x10, x10, x2
    2f6c:	d61f0140 	br	x10
    2f70:	d5033f9f 	dsb	sy
    2f74:	8b02014a 	add	x10, x10, x2
    2f78:	d61f0140 	br	x10
    2f7c:	d5033f9f 	dsb	sy
    2f80:	8b02014a 	add	x10, x10, x2
    2f84:	d61f0140 	br	x10
    2f88:	d5033f9f 	dsb	sy
    2f8c:	8b02014a 	add	x10, x10, x2
    2f90:	d61f0140 	br	x10
    2f94:	d5033f9f 	dsb	sy
    2f98:	8b02014a 	add	x10, x10, x2
    2f9c:	d61f0140 	br	x10
    2fa0:	d5033f9f 	dsb	sy
    2fa4:	8b02014a 	add	x10, x10, x2
    2fa8:	d61f0140 	br	x10
    2fac:	d5033f9f 	dsb	sy
    2fb0:	8b02014a 	add	x10, x10, x2
    2fb4:	d61f0140 	br	x10
    2fb8:	d5033f9f 	dsb	sy
    2fbc:	8b02014a 	add	x10, x10, x2
    2fc0:	d61f0140 	br	x10
    2fc4:	d5033f9f 	dsb	sy
    2fc8:	8b02014a 	add	x10, x10, x2
    2fcc:	d61f0140 	br	x10
    2fd0:	d5033f9f 	dsb	sy
    2fd4:	8b02014a 	add	x10, x10, x2
    2fd8:	d61f0140 	br	x10
    2fdc:	d5033f9f 	dsb	sy
    2fe0:	8b02014a 	add	x10, x10, x2
    2fe4:	d61f0140 	br	x10
    2fe8:	d5033f9f 	dsb	sy
    2fec:	8b02014a 	add	x10, x10, x2
    2ff0:	d61f0140 	br	x10
    2ff4:	d5033f9f 	dsb	sy
    2ff8:	8b02014a 	add	x10, x10, x2
    2ffc:	d61f0140 	br	x10
    3000:	d5033f9f 	dsb	sy
    3004:	8b02014a 	add	x10, x10, x2
    3008:	d61f0140 	br	x10
    300c:	d5033f9f 	dsb	sy
    3010:	8b02014a 	add	x10, x10, x2
    3014:	d61f0140 	br	x10
    3018:	d5033f9f 	dsb	sy
    301c:	8b02014a 	add	x10, x10, x2
    3020:	d61f0140 	br	x10
    3024:	d5033f9f 	dsb	sy
    3028:	8b02014a 	add	x10, x10, x2
    302c:	d61f0140 	br	x10
    3030:	d5033f9f 	dsb	sy
    3034:	8b02014a 	add	x10, x10, x2
    3038:	d61f0140 	br	x10
    303c:	d5033f9f 	dsb	sy
    3040:	8b02014a 	add	x10, x10, x2
    3044:	d61f0140 	br	x10
    3048:	d5033f9f 	dsb	sy
    304c:	8b02014a 	add	x10, x10, x2
    3050:	d61f0140 	br	x10
    3054:	d5033f9f 	dsb	sy
    3058:	8b02014a 	add	x10, x10, x2
    305c:	d61f0140 	br	x10
    3060:	d5033f9f 	dsb	sy
    3064:	8b02014a 	add	x10, x10, x2
    3068:	d61f0140 	br	x10
    306c:	d5033f9f 	dsb	sy
    3070:	8b02014a 	add	x10, x10, x2
    3074:	d61f0140 	br	x10
    3078:	d5033f9f 	dsb	sy
    307c:	8b02014a 	add	x10, x10, x2
    3080:	d61f0140 	br	x10
    3084:	d5033f9f 	dsb	sy
    3088:	8b02014a 	add	x10, x10, x2
    308c:	d61f0140 	br	x10
    3090:	d5033f9f 	dsb	sy
    3094:	8b02014a 	add	x10, x10, x2
    3098:	d61f0140 	br	x10
    309c:	d5033f9f 	dsb	sy
    30a0:	8b02014a 	add	x10, x10, x2
    30a4:	d61f0140 	br	x10
    30a8:	d5033f9f 	dsb	sy
    30ac:	8b02014a 	add	x10, x10, x2
    30b0:	d61f0140 	br	x10
    30b4:	d5033f9f 	dsb	sy
    30b8:	8b02014a 	add	x10, x10, x2
    30bc:	d61f0140 	br	x10
    30c0:	d5033f9f 	dsb	sy
    30c4:	8b02014a 	add	x10, x10, x2
    30c8:	d61f0140 	br	x10
    30cc:	d5033f9f 	dsb	sy
    30d0:	8b02014a 	add	x10, x10, x2
    30d4:	d61f0140 	br	x10
    30d8:	d5033f9f 	dsb	sy
    30dc:	8b02014a 	add	x10, x10, x2
    30e0:	d61f0140 	br	x10
    30e4:	d5033f9f 	dsb	sy
    30e8:	8b02014a 	add	x10, x10, x2
    30ec:	d61f0140 	br	x10
    30f0:	d5033f9f 	dsb	sy
    30f4:	8b02014a 	add	x10, x10, x2
    30f8:	d61f0140 	br	x10
    30fc:	d5033f9f 	dsb	sy
    3100:	8b02014a 	add	x10, x10, x2
    3104:	d61f0140 	br	x10
    3108:	d5033f9f 	dsb	sy
    310c:	8b02014a 	add	x10, x10, x2
    3110:	d61f0140 	br	x10
    3114:	d5033f9f 	dsb	sy
    3118:	8b02014a 	add	x10, x10, x2
    311c:	d61f0140 	br	x10
    3120:	d5033f9f 	dsb	sy
    3124:	8b02014a 	add	x10, x10, x2
    3128:	d61f0140 	br	x10
    312c:	d5033f9f 	dsb	sy
    3130:	8b02014a 	add	x10, x10, x2
    3134:	d61f0140 	br	x10
    3138:	d5033f9f 	dsb	sy
    313c:	8b02014a 	add	x10, x10, x2
    3140:	d61f0140 	br	x10
    3144:	d5033f9f 	dsb	sy
    3148:	8b02014a 	add	x10, x10, x2
    314c:	d61f0140 	br	x10
    3150:	d5033f9f 	dsb	sy
    3154:	8b02014a 	add	x10, x10, x2
    3158:	d61f0140 	br	x10
    315c:	d5033f9f 	dsb	sy
    3160:	8b02014a 	add	x10, x10, x2
    3164:	d61f0140 	br	x10
    3168:	d5033f9f 	dsb	sy
    316c:	8b02014a 	add	x10, x10, x2
    3170:	d61f0140 	br	x10
    3174:	d5033f9f 	dsb	sy
    3178:	8b02014a 	add	x10, x10, x2
    317c:	d61f0140 	br	x10
    3180:	d5033f9f 	dsb	sy
    3184:	8b02014a 	add	x10, x10, x2
    3188:	d61f0140 	br	x10
    318c:	d5033f9f 	dsb	sy
    3190:	8b02014a 	add	x10, x10, x2
    3194:	d61f0140 	br	x10
    3198:	d5033f9f 	dsb	sy
    319c:	8b02014a 	add	x10, x10, x2
    31a0:	d61f0140 	br	x10
    31a4:	d5033f9f 	dsb	sy
    31a8:	8b02014a 	add	x10, x10, x2
    31ac:	d61f0140 	br	x10
    31b0:	d5033f9f 	dsb	sy
    31b4:	8b02014a 	add	x10, x10, x2
    31b8:	d61f0140 	br	x10
    31bc:	d5033f9f 	dsb	sy
    31c0:	8b02014a 	add	x10, x10, x2
    31c4:	d61f0140 	br	x10
    31c8:	d5033f9f 	dsb	sy
    31cc:	8b02014a 	add	x10, x10, x2
    31d0:	d61f0140 	br	x10
    31d4:	d5033f9f 	dsb	sy
    31d8:	8b02014a 	add	x10, x10, x2
    31dc:	d61f0140 	br	x10
    31e0:	d5033f9f 	dsb	sy
    31e4:	8b02014a 	add	x10, x10, x2
    31e8:	d61f0140 	br	x10
    31ec:	d5033f9f 	dsb	sy
    31f0:	8b02014a 	add	x10, x10, x2
    31f4:	d61f0140 	br	x10
    31f8:	d5033f9f 	dsb	sy
    31fc:	8b02014a 	add	x10, x10, x2
    3200:	d61f0140 	br	x10
    3204:	d5033f9f 	dsb	sy
    3208:	8b02014a 	add	x10, x10, x2
    320c:	d61f0140 	br	x10
    3210:	d5033f9f 	dsb	sy
    3214:	8b02014a 	add	x10, x10, x2
    3218:	d61f0140 	br	x10
    321c:	d5033f9f 	dsb	sy
    3220:	8b02014a 	add	x10, x10, x2
    3224:	d61f0140 	br	x10
    3228:	d5033f9f 	dsb	sy
    322c:	8b02014a 	add	x10, x10, x2
    3230:	d61f0140 	br	x10
    3234:	d5033f9f 	dsb	sy
    3238:	8b02014a 	add	x10, x10, x2
    323c:	d61f0140 	br	x10
    3240:	d5033f9f 	dsb	sy
    3244:	8b02014a 	add	x10, x10, x2
    3248:	d61f0140 	br	x10
    324c:	d5033f9f 	dsb	sy
    3250:	8b02014a 	add	x10, x10, x2
    3254:	d61f0140 	br	x10
    3258:	d5033f9f 	dsb	sy
    325c:	8b02014a 	add	x10, x10, x2
    3260:	d61f0140 	br	x10
    3264:	d5033f9f 	dsb	sy
    3268:	8b02014a 	add	x10, x10, x2
    326c:	d61f0140 	br	x10
    3270:	d5033f9f 	dsb	sy
    3274:	8b02014a 	add	x10, x10, x2
    3278:	d61f0140 	br	x10
    327c:	d5033f9f 	dsb	sy
    3280:	8b02014a 	add	x10, x10, x2
    3284:	d61f0140 	br	x10
    3288:	d5033f9f 	dsb	sy
    328c:	8b02014a 	add	x10, x10, x2
    3290:	d61f0140 	br	x10
    3294:	d5033f9f 	dsb	sy
    3298:	8b02014a 	add	x10, x10, x2
    329c:	d61f0140 	br	x10
    32a0:	d5033f9f 	dsb	sy
    32a4:	8b02014a 	add	x10, x10, x2
    32a8:	d61f0140 	br	x10
    32ac:	d5033f9f 	dsb	sy
    32b0:	8b02014a 	add	x10, x10, x2
    32b4:	d61f0140 	br	x10
    32b8:	d5033f9f 	dsb	sy
    32bc:	8b02014a 	add	x10, x10, x2
    32c0:	d61f0140 	br	x10
    32c4:	d5033f9f 	dsb	sy
    32c8:	8b02014a 	add	x10, x10, x2
    32cc:	d61f0140 	br	x10
    32d0:	d5033f9f 	dsb	sy
    32d4:	8b02014a 	add	x10, x10, x2
    32d8:	d61f0140 	br	x10
    32dc:	d5033f9f 	dsb	sy
    32e0:	8b02014a 	add	x10, x10, x2
    32e4:	d61f0140 	br	x10
    32e8:	d5033f9f 	dsb	sy
    32ec:	8b02014a 	add	x10, x10, x2
    32f0:	d61f0140 	br	x10
    32f4:	d5033f9f 	dsb	sy
    32f8:	8b02014a 	add	x10, x10, x2
    32fc:	d61f0140 	br	x10
    3300:	d5033f9f 	dsb	sy
    3304:	8b02014a 	add	x10, x10, x2
    3308:	d61f0140 	br	x10
    330c:	d5033f9f 	dsb	sy
    3310:	8b02014a 	add	x10, x10, x2
    3314:	d61f0140 	br	x10
    3318:	d5033f9f 	dsb	sy
    331c:	8b02014a 	add	x10, x10, x2
    3320:	d61f0140 	br	x10
    3324:	d5033f9f 	dsb	sy
    3328:	8b02014a 	add	x10, x10, x2
    332c:	d61f0140 	br	x10
    3330:	d5033f9f 	dsb	sy
    3334:	8b02014a 	add	x10, x10, x2
    3338:	d61f0140 	br	x10
    333c:	d5033f9f 	dsb	sy
    3340:	8b02014a 	add	x10, x10, x2
    3344:	d61f0140 	br	x10
    3348:	d5033f9f 	dsb	sy
    334c:	8b02014a 	add	x10, x10, x2
    3350:	d61f0140 	br	x10
    3354:	d5033f9f 	dsb	sy
    3358:	8b02014a 	add	x10, x10, x2
    335c:	d61f0140 	br	x10
    3360:	d5033f9f 	dsb	sy
    3364:	8b02014a 	add	x10, x10, x2
    3368:	d61f0140 	br	x10
    336c:	d5033f9f 	dsb	sy
    3370:	8b02014a 	add	x10, x10, x2
    3374:	d61f0140 	br	x10
    3378:	d5033f9f 	dsb	sy
    337c:	8b02014a 	add	x10, x10, x2
    3380:	d61f0140 	br	x10
    3384:	d5033f9f 	dsb	sy
    3388:	8b02014a 	add	x10, x10, x2
    338c:	d61f0140 	br	x10
    3390:	d5033f9f 	dsb	sy
    3394:	8b02014a 	add	x10, x10, x2
    3398:	d61f0140 	br	x10
    339c:	d5033f9f 	dsb	sy
    33a0:	8b02014a 	add	x10, x10, x2
    33a4:	d61f0140 	br	x10
    33a8:	d5033f9f 	dsb	sy
    33ac:	8b02014a 	add	x10, x10, x2
    33b0:	d61f0140 	br	x10
    33b4:	d5033f9f 	dsb	sy
    33b8:	8b02014a 	add	x10, x10, x2
    33bc:	d61f0140 	br	x10
    33c0:	d5033f9f 	dsb	sy
    33c4:	8b02014a 	add	x10, x10, x2
    33c8:	d61f0140 	br	x10
    33cc:	d5033f9f 	dsb	sy
    33d0:	8b02014a 	add	x10, x10, x2
    33d4:	d61f0140 	br	x10
    33d8:	d5033f9f 	dsb	sy
    33dc:	8b02014a 	add	x10, x10, x2
    33e0:	d61f0140 	br	x10
    33e4:	d5033f9f 	dsb	sy
    33e8:	8b02014a 	add	x10, x10, x2
    33ec:	d61f0140 	br	x10
    33f0:	d5033f9f 	dsb	sy
    33f4:	8b02014a 	add	x10, x10, x2
    33f8:	d61f0140 	br	x10
    33fc:	d5033f9f 	dsb	sy
    3400:	8b02014a 	add	x10, x10, x2
    3404:	d61f0140 	br	x10
    3408:	d5033f9f 	dsb	sy
    340c:	8b02014a 	add	x10, x10, x2
    3410:	d61f0140 	br	x10
    3414:	d5033f9f 	dsb	sy
    3418:	8b02014a 	add	x10, x10, x2
    341c:	d61f0140 	br	x10
    3420:	d5033f9f 	dsb	sy
    3424:	8b02014a 	add	x10, x10, x2
    3428:	d61f0140 	br	x10
    342c:	d5033f9f 	dsb	sy
    3430:	8b02014a 	add	x10, x10, x2
    3434:	d61f0140 	br	x10
    3438:	d5033f9f 	dsb	sy
    343c:	8b02014a 	add	x10, x10, x2
    3440:	d61f0140 	br	x10
    3444:	d5033f9f 	dsb	sy
    3448:	8b02014a 	add	x10, x10, x2
    344c:	d61f0140 	br	x10
    3450:	d5033f9f 	dsb	sy
    3454:	8b02014a 	add	x10, x10, x2
    3458:	d61f0140 	br	x10
    345c:	d5033f9f 	dsb	sy
    3460:	8b02014a 	add	x10, x10, x2
    3464:	d61f0140 	br	x10
    3468:	d5033f9f 	dsb	sy
    346c:	8b02014a 	add	x10, x10, x2
    3470:	d61f0140 	br	x10
    3474:	d5033f9f 	dsb	sy
    3478:	8b02014a 	add	x10, x10, x2
    347c:	d61f0140 	br	x10
    3480:	d5033f9f 	dsb	sy
    3484:	8b02014a 	add	x10, x10, x2
    3488:	d61f0140 	br	x10
    348c:	d5033f9f 	dsb	sy
    3490:	8b02014a 	add	x10, x10, x2
    3494:	d61f0140 	br	x10
    3498:	d5033f9f 	dsb	sy
    349c:	8b02014a 	add	x10, x10, x2
    34a0:	d61f0140 	br	x10
    34a4:	d5033f9f 	dsb	sy
    34a8:	8b02014a 	add	x10, x10, x2
    34ac:	d61f0140 	br	x10
    34b0:	d5033f9f 	dsb	sy
    34b4:	8b02014a 	add	x10, x10, x2
    34b8:	d61f0140 	br	x10
    34bc:	d5033f9f 	dsb	sy
    34c0:	8b02014a 	add	x10, x10, x2
    34c4:	d61f0140 	br	x10
    34c8:	d5033f9f 	dsb	sy
    34cc:	8b02014a 	add	x10, x10, x2
    34d0:	d61f0140 	br	x10
    34d4:	d5033f9f 	dsb	sy
    34d8:	8b02014a 	add	x10, x10, x2
    34dc:	d61f0140 	br	x10
    34e0:	d5033f9f 	dsb	sy
    34e4:	8b02014a 	add	x10, x10, x2
    34e8:	d61f0140 	br	x10
    34ec:	d5033f9f 	dsb	sy
    34f0:	8b02014a 	add	x10, x10, x2
    34f4:	d61f0140 	br	x10
    34f8:	d5033f9f 	dsb	sy
    34fc:	8b02014a 	add	x10, x10, x2
    3500:	d61f0140 	br	x10
    3504:	d5033f9f 	dsb	sy
    3508:	8b02014a 	add	x10, x10, x2
    350c:	d61f0140 	br	x10
    3510:	d5033f9f 	dsb	sy
    3514:	8b02014a 	add	x10, x10, x2
    3518:	d61f0140 	br	x10
    351c:	d5033f9f 	dsb	sy
    3520:	8b02014a 	add	x10, x10, x2
    3524:	d61f0140 	br	x10
    3528:	d5033f9f 	dsb	sy
    352c:	8b02014a 	add	x10, x10, x2
    3530:	d61f0140 	br	x10
    3534:	d5033f9f 	dsb	sy
    3538:	8b02014a 	add	x10, x10, x2
    353c:	d61f0140 	br	x10
    3540:	d5033f9f 	dsb	sy
    3544:	8b02014a 	add	x10, x10, x2
    3548:	d61f0140 	br	x10
    354c:	d5033f9f 	dsb	sy
    3550:	8b02014a 	add	x10, x10, x2
    3554:	d61f0140 	br	x10
    3558:	d5033f9f 	dsb	sy
    355c:	8b02014a 	add	x10, x10, x2
    3560:	d61f0140 	br	x10
    3564:	d5033f9f 	dsb	sy
    3568:	8b02014a 	add	x10, x10, x2
    356c:	d61f0140 	br	x10
    3570:	d5033f9f 	dsb	sy
    3574:	8b02014a 	add	x10, x10, x2
    3578:	d61f0140 	br	x10
    357c:	d5033f9f 	dsb	sy
    3580:	8b02014a 	add	x10, x10, x2
    3584:	d61f0140 	br	x10
    3588:	d5033f9f 	dsb	sy
    358c:	8b02014a 	add	x10, x10, x2
    3590:	d61f0140 	br	x10
    3594:	d5033f9f 	dsb	sy
    3598:	8b02014a 	add	x10, x10, x2
    359c:	d61f0140 	br	x10
    35a0:	d5033f9f 	dsb	sy
    35a4:	8b02014a 	add	x10, x10, x2
    35a8:	d61f0140 	br	x10
    35ac:	d5033f9f 	dsb	sy
    35b0:	8b02014a 	add	x10, x10, x2
    35b4:	d61f0140 	br	x10
    35b8:	d5033f9f 	dsb	sy
    35bc:	8b02014a 	add	x10, x10, x2
    35c0:	d61f0140 	br	x10
    35c4:	d5033f9f 	dsb	sy
    35c8:	8b02014a 	add	x10, x10, x2
    35cc:	d61f0140 	br	x10
    35d0:	d5033f9f 	dsb	sy
    35d4:	8b02014a 	add	x10, x10, x2
    35d8:	d61f0140 	br	x10
    35dc:	d5033f9f 	dsb	sy
    35e0:	8b02014a 	add	x10, x10, x2
    35e4:	d61f0140 	br	x10
    35e8:	d5033f9f 	dsb	sy
    35ec:	8b02014a 	add	x10, x10, x2
    35f0:	d61f0140 	br	x10
    35f4:	d5033f9f 	dsb	sy
    35f8:	8b02014a 	add	x10, x10, x2
    35fc:	d61f0140 	br	x10
    3600:	d5033f9f 	dsb	sy
    3604:	8b02014a 	add	x10, x10, x2
    3608:	d61f0140 	br	x10
    360c:	d5033f9f 	dsb	sy
    3610:	8b02014a 	add	x10, x10, x2
    3614:	d61f0140 	br	x10
    3618:	d5033f9f 	dsb	sy
    361c:	8b02014a 	add	x10, x10, x2
    3620:	d61f0140 	br	x10
    3624:	d5033f9f 	dsb	sy
    3628:	8b02014a 	add	x10, x10, x2
    362c:	d61f0140 	br	x10
    3630:	d5033f9f 	dsb	sy
    3634:	8b02014a 	add	x10, x10, x2
    3638:	d61f0140 	br	x10
    363c:	d5033f9f 	dsb	sy
    3640:	8b02014a 	add	x10, x10, x2
    3644:	d61f0140 	br	x10
    3648:	d5033f9f 	dsb	sy
    364c:	8b02014a 	add	x10, x10, x2
    3650:	d61f0140 	br	x10
    3654:	d5033f9f 	dsb	sy
    3658:	8b02014a 	add	x10, x10, x2
    365c:	d61f0140 	br	x10
    3660:	d5033f9f 	dsb	sy
    3664:	8b02014a 	add	x10, x10, x2
    3668:	d61f0140 	br	x10
    366c:	d5033f9f 	dsb	sy
    3670:	8b02014a 	add	x10, x10, x2
    3674:	d61f0140 	br	x10
    3678:	d5033f9f 	dsb	sy
    367c:	8b02014a 	add	x10, x10, x2
    3680:	d61f0140 	br	x10
    3684:	d5033f9f 	dsb	sy
    3688:	8b02014a 	add	x10, x10, x2
    368c:	d61f0140 	br	x10
    3690:	d5033f9f 	dsb	sy
    3694:	8b02014a 	add	x10, x10, x2
    3698:	d61f0140 	br	x10
    369c:	d5033f9f 	dsb	sy
    36a0:	8b02014a 	add	x10, x10, x2
    36a4:	d61f0140 	br	x10
    36a8:	d5033f9f 	dsb	sy
    36ac:	8b02014a 	add	x10, x10, x2
    36b0:	d61f0140 	br	x10
    36b4:	d5033f9f 	dsb	sy
    36b8:	8b02014a 	add	x10, x10, x2
    36bc:	d61f0140 	br	x10
    36c0:	d5033f9f 	dsb	sy
    36c4:	8b02014a 	add	x10, x10, x2
    36c8:	d61f0140 	br	x10
    36cc:	d5033f9f 	dsb	sy
    36d0:	8b02014a 	add	x10, x10, x2
    36d4:	d61f0140 	br	x10
    36d8:	d5033f9f 	dsb	sy
    36dc:	8b02014a 	add	x10, x10, x2
    36e0:	d61f0140 	br	x10
    36e4:	d5033f9f 	dsb	sy
    36e8:	8b02014a 	add	x10, x10, x2
    36ec:	d61f0140 	br	x10
    36f0:	d5033f9f 	dsb	sy
    36f4:	8b02014a 	add	x10, x10, x2
    36f8:	d61f0140 	br	x10
    36fc:	d5033f9f 	dsb	sy
    3700:	8b02014a 	add	x10, x10, x2
    3704:	d61f0140 	br	x10
    3708:	d5033f9f 	dsb	sy
    370c:	8b02014a 	add	x10, x10, x2
    3710:	d61f0140 	br	x10
    3714:	d5033f9f 	dsb	sy
    3718:	8b02014a 	add	x10, x10, x2
    371c:	d61f0140 	br	x10
    3720:	d5033f9f 	dsb	sy
    3724:	8b02014a 	add	x10, x10, x2
    3728:	d61f0140 	br	x10
    372c:	d5033f9f 	dsb	sy
    3730:	8b02014a 	add	x10, x10, x2
    3734:	d61f0140 	br	x10
    3738:	d5033f9f 	dsb	sy
    373c:	8b02014a 	add	x10, x10, x2
    3740:	d61f0140 	br	x10
    3744:	d5033f9f 	dsb	sy
    3748:	8b02014a 	add	x10, x10, x2
    374c:	d61f0140 	br	x10
    3750:	d5033f9f 	dsb	sy
    3754:	8b02014a 	add	x10, x10, x2
    3758:	d61f0140 	br	x10
    375c:	d5033f9f 	dsb	sy
    3760:	8b02014a 	add	x10, x10, x2
    3764:	d61f0140 	br	x10
    3768:	d5033f9f 	dsb	sy
    376c:	8b02014a 	add	x10, x10, x2
    3770:	d61f0140 	br	x10
    3774:	d5033f9f 	dsb	sy
    3778:	8b02014a 	add	x10, x10, x2
    377c:	d61f0140 	br	x10
    3780:	d5033f9f 	dsb	sy
    3784:	8b02014a 	add	x10, x10, x2
    3788:	d61f0140 	br	x10
    378c:	d5033f9f 	dsb	sy
    3790:	8b02014a 	add	x10, x10, x2
    3794:	d61f0140 	br	x10
    3798:	d5033f9f 	dsb	sy
    379c:	8b02014a 	add	x10, x10, x2
    37a0:	d61f0140 	br	x10
    37a4:	d5033f9f 	dsb	sy
    37a8:	8b02014a 	add	x10, x10, x2
    37ac:	d61f0140 	br	x10
    37b0:	d5033f9f 	dsb	sy
    37b4:	8b02014a 	add	x10, x10, x2
    37b8:	d61f0140 	br	x10
    37bc:	d5033f9f 	dsb	sy
    37c0:	8b02014a 	add	x10, x10, x2
    37c4:	d61f0140 	br	x10
    37c8:	d5033f9f 	dsb	sy
    37cc:	8b02014a 	add	x10, x10, x2
    37d0:	d61f0140 	br	x10
    37d4:	d5033f9f 	dsb	sy
    37d8:	8b02014a 	add	x10, x10, x2
    37dc:	d61f0140 	br	x10
    37e0:	d5033f9f 	dsb	sy
    37e4:	8b02014a 	add	x10, x10, x2
    37e8:	d61f0140 	br	x10
    37ec:	d5033f9f 	dsb	sy
    37f0:	8b02014a 	add	x10, x10, x2
    37f4:	d61f0140 	br	x10
    37f8:	d5033f9f 	dsb	sy
    37fc:	8b02014a 	add	x10, x10, x2
    3800:	d61f0140 	br	x10
    3804:	d5033f9f 	dsb	sy
    3808:	8b02014a 	add	x10, x10, x2
    380c:	d61f0140 	br	x10
    3810:	d5033f9f 	dsb	sy
    3814:	8b02014a 	add	x10, x10, x2
    3818:	d61f0140 	br	x10
    381c:	d5033f9f 	dsb	sy
    3820:	8b02014a 	add	x10, x10, x2
    3824:	d61f0140 	br	x10
    3828:	d5033f9f 	dsb	sy
    382c:	8b02014a 	add	x10, x10, x2
    3830:	d61f0140 	br	x10
    3834:	d5033f9f 	dsb	sy
    3838:	8b02014a 	add	x10, x10, x2
    383c:	d61f0140 	br	x10
    3840:	d5033f9f 	dsb	sy
    3844:	8b02014a 	add	x10, x10, x2
    3848:	d61f0140 	br	x10
    384c:	d5033f9f 	dsb	sy
    3850:	8b02014a 	add	x10, x10, x2
    3854:	d61f0140 	br	x10
    3858:	d5033f9f 	dsb	sy
    385c:	8b02014a 	add	x10, x10, x2
    3860:	d61f0140 	br	x10
    3864:	d5033f9f 	dsb	sy
    3868:	8b02014a 	add	x10, x10, x2
    386c:	d61f0140 	br	x10
    3870:	d5033f9f 	dsb	sy
    3874:	8b02014a 	add	x10, x10, x2
    3878:	d61f0140 	br	x10
    387c:	d5033f9f 	dsb	sy
    3880:	8b02014a 	add	x10, x10, x2
    3884:	d61f0140 	br	x10
    3888:	d5033f9f 	dsb	sy
    388c:	8b02014a 	add	x10, x10, x2
    3890:	d61f0140 	br	x10
    3894:	d5033f9f 	dsb	sy
    3898:	8b02014a 	add	x10, x10, x2
    389c:	d61f0140 	br	x10
    38a0:	d5033f9f 	dsb	sy
    38a4:	8b02014a 	add	x10, x10, x2
    38a8:	d61f0140 	br	x10
    38ac:	d5033f9f 	dsb	sy
    38b0:	8b02014a 	add	x10, x10, x2
    38b4:	d61f0140 	br	x10
    38b8:	d5033f9f 	dsb	sy
    38bc:	8b02014a 	add	x10, x10, x2
    38c0:	d61f0140 	br	x10
    38c4:	d5033f9f 	dsb	sy
    38c8:	8b02014a 	add	x10, x10, x2
    38cc:	d61f0140 	br	x10
    38d0:	d5033f9f 	dsb	sy
    38d4:	8b02014a 	add	x10, x10, x2
    38d8:	d61f0140 	br	x10
    38dc:	d5033f9f 	dsb	sy
    38e0:	8b02014a 	add	x10, x10, x2
    38e4:	d61f0140 	br	x10
    38e8:	d5033f9f 	dsb	sy
    38ec:	8b02014a 	add	x10, x10, x2
    38f0:	d61f0140 	br	x10
    38f4:	d5033f9f 	dsb	sy
    38f8:	8b02014a 	add	x10, x10, x2
    38fc:	d61f0140 	br	x10
    3900:	d5033f9f 	dsb	sy
    3904:	8b02014a 	add	x10, x10, x2
    3908:	d61f0140 	br	x10
    390c:	d5033f9f 	dsb	sy
    3910:	8b02014a 	add	x10, x10, x2
    3914:	d61f0140 	br	x10
    3918:	d5033f9f 	dsb	sy
    391c:	8b02014a 	add	x10, x10, x2
    3920:	d61f0140 	br	x10
    3924:	d5033f9f 	dsb	sy
    3928:	8b02014a 	add	x10, x10, x2
    392c:	d61f0140 	br	x10
    3930:	d5033f9f 	dsb	sy
    3934:	8b02014a 	add	x10, x10, x2
    3938:	d61f0140 	br	x10
    393c:	d5033f9f 	dsb	sy
    3940:	8b02014a 	add	x10, x10, x2
    3944:	d61f0140 	br	x10
    3948:	d5033f9f 	dsb	sy
    394c:	8b02014a 	add	x10, x10, x2
    3950:	d61f0140 	br	x10
    3954:	d5033f9f 	dsb	sy
    3958:	8b02014a 	add	x10, x10, x2
    395c:	d61f0140 	br	x10
    3960:	d5033f9f 	dsb	sy
    3964:	8b02014a 	add	x10, x10, x2
    3968:	d61f0140 	br	x10
    396c:	d5033f9f 	dsb	sy
    3970:	8b02014a 	add	x10, x10, x2
    3974:	d61f0140 	br	x10
    3978:	d5033f9f 	dsb	sy
    397c:	8b02014a 	add	x10, x10, x2
    3980:	d61f0140 	br	x10
    3984:	d5033f9f 	dsb	sy
    3988:	8b02014a 	add	x10, x10, x2
    398c:	d61f0140 	br	x10
    3990:	d5033f9f 	dsb	sy
    3994:	8b02014a 	add	x10, x10, x2
    3998:	d61f0140 	br	x10
    399c:	d5033f9f 	dsb	sy
    39a0:	8b02014a 	add	x10, x10, x2
    39a4:	d61f0140 	br	x10
    39a8:	d5033f9f 	dsb	sy
    39ac:	8b02014a 	add	x10, x10, x2
    39b0:	d61f0140 	br	x10
    39b4:	d5033f9f 	dsb	sy
    39b8:	8b02014a 	add	x10, x10, x2
    39bc:	d61f0140 	br	x10
    39c0:	d5033f9f 	dsb	sy
    39c4:	8b02014a 	add	x10, x10, x2
    39c8:	d61f0140 	br	x10
    39cc:	d5033f9f 	dsb	sy
    39d0:	8b02014a 	add	x10, x10, x2
    39d4:	d61f0140 	br	x10
    39d8:	d5033f9f 	dsb	sy
    39dc:	8b02014a 	add	x10, x10, x2
    39e0:	d61f0140 	br	x10
    39e4:	d5033f9f 	dsb	sy
    39e8:	8b02014a 	add	x10, x10, x2
    39ec:	d61f0140 	br	x10
    39f0:	d5033f9f 	dsb	sy
    39f4:	8b02014a 	add	x10, x10, x2
    39f8:	d61f0140 	br	x10
    39fc:	d5033f9f 	dsb	sy
    3a00:	8b02014a 	add	x10, x10, x2
    3a04:	d61f0140 	br	x10
    3a08:	d5033f9f 	dsb	sy
    3a0c:	8b02014a 	add	x10, x10, x2
    3a10:	d61f0140 	br	x10
    3a14:	d5033f9f 	dsb	sy
    3a18:	8b02014a 	add	x10, x10, x2
    3a1c:	d61f0140 	br	x10
    3a20:	d5033f9f 	dsb	sy
    3a24:	8b02014a 	add	x10, x10, x2
    3a28:	d61f0140 	br	x10
    3a2c:	d5033f9f 	dsb	sy
    3a30:	8b02014a 	add	x10, x10, x2
    3a34:	d61f0140 	br	x10
    3a38:	d5033f9f 	dsb	sy
    3a3c:	8b02014a 	add	x10, x10, x2
    3a40:	d61f0140 	br	x10
    3a44:	d5033f9f 	dsb	sy
    3a48:	8b02014a 	add	x10, x10, x2
    3a4c:	d61f0140 	br	x10
    3a50:	d5033f9f 	dsb	sy
    3a54:	8b02014a 	add	x10, x10, x2
    3a58:	d61f0140 	br	x10
    3a5c:	d5033f9f 	dsb	sy
    3a60:	8b02014a 	add	x10, x10, x2
    3a64:	d61f0140 	br	x10
    3a68:	d5033f9f 	dsb	sy
    3a6c:	8b02014a 	add	x10, x10, x2
    3a70:	d61f0140 	br	x10
    3a74:	d5033f9f 	dsb	sy
    3a78:	8b02014a 	add	x10, x10, x2
    3a7c:	d61f0140 	br	x10
    3a80:	d5033f9f 	dsb	sy
    3a84:	8b02014a 	add	x10, x10, x2
    3a88:	d61f0140 	br	x10
    3a8c:	d5033f9f 	dsb	sy
    3a90:	8b02014a 	add	x10, x10, x2
    3a94:	d61f0140 	br	x10
    3a98:	d5033f9f 	dsb	sy
    3a9c:	8b02014a 	add	x10, x10, x2
    3aa0:	d61f0140 	br	x10
    3aa4:	d5033f9f 	dsb	sy
    3aa8:	8b02014a 	add	x10, x10, x2
    3aac:	d61f0140 	br	x10
    3ab0:	d5033f9f 	dsb	sy
    3ab4:	8b02014a 	add	x10, x10, x2
    3ab8:	d61f0140 	br	x10
    3abc:	d5033f9f 	dsb	sy
    3ac0:	8b02014a 	add	x10, x10, x2
    3ac4:	d61f0140 	br	x10
    3ac8:	d5033f9f 	dsb	sy
    3acc:	8b02014a 	add	x10, x10, x2
    3ad0:	d61f0140 	br	x10
    3ad4:	d5033f9f 	dsb	sy
    3ad8:	8b02014a 	add	x10, x10, x2
    3adc:	d61f0140 	br	x10
    3ae0:	d5033f9f 	dsb	sy
    3ae4:	8b02014a 	add	x10, x10, x2
    3ae8:	d61f0140 	br	x10
    3aec:	d5033f9f 	dsb	sy
    3af0:	8b02014a 	add	x10, x10, x2
    3af4:	d61f0140 	br	x10
    3af8:	d5033f9f 	dsb	sy
    3afc:	8b02014a 	add	x10, x10, x2
    3b00:	d61f0140 	br	x10
    3b04:	d5033f9f 	dsb	sy
    3b08:	8b02014a 	add	x10, x10, x2
    3b0c:	d61f0140 	br	x10
    3b10:	d5033f9f 	dsb	sy
    3b14:	8b02014a 	add	x10, x10, x2
    3b18:	d61f0140 	br	x10
    3b1c:	d5033f9f 	dsb	sy
    3b20:	8b02014a 	add	x10, x10, x2
    3b24:	d61f0140 	br	x10
    3b28:	d5033f9f 	dsb	sy
    3b2c:	8b02014a 	add	x10, x10, x2
    3b30:	d61f0140 	br	x10
    3b34:	d5033f9f 	dsb	sy
    3b38:	8b02014a 	add	x10, x10, x2
    3b3c:	d61f0140 	br	x10
    3b40:	d5033f9f 	dsb	sy
    3b44:	8b02014a 	add	x10, x10, x2
    3b48:	d61f0140 	br	x10
    3b4c:	d5033f9f 	dsb	sy
    3b50:	8b02014a 	add	x10, x10, x2
    3b54:	d61f0140 	br	x10
    3b58:	d5033f9f 	dsb	sy
    3b5c:	8b02014a 	add	x10, x10, x2
    3b60:	d61f0140 	br	x10
    3b64:	d5033f9f 	dsb	sy
    3b68:	8b02014a 	add	x10, x10, x2
    3b6c:	d61f0140 	br	x10
    3b70:	d5033f9f 	dsb	sy
    3b74:	8b02014a 	add	x10, x10, x2
    3b78:	d61f0140 	br	x10
    3b7c:	d5033f9f 	dsb	sy
    3b80:	8b02014a 	add	x10, x10, x2
    3b84:	d61f0140 	br	x10
    3b88:	d5033f9f 	dsb	sy
    3b8c:	8b02014a 	add	x10, x10, x2
    3b90:	d61f0140 	br	x10
    3b94:	d5033f9f 	dsb	sy
    3b98:	8b02014a 	add	x10, x10, x2
    3b9c:	d61f0140 	br	x10
    3ba0:	d5033f9f 	dsb	sy
    3ba4:	8b02014a 	add	x10, x10, x2
    3ba8:	d61f0140 	br	x10
    3bac:	d5033f9f 	dsb	sy
    3bb0:	8b02014a 	add	x10, x10, x2
    3bb4:	d61f0140 	br	x10
    3bb8:	d5033f9f 	dsb	sy
    3bbc:	8b02014a 	add	x10, x10, x2
    3bc0:	d61f0140 	br	x10
    3bc4:	d5033f9f 	dsb	sy
    3bc8:	8b02014a 	add	x10, x10, x2
    3bcc:	d61f0140 	br	x10
    3bd0:	d5033f9f 	dsb	sy
    3bd4:	8b02014a 	add	x10, x10, x2
    3bd8:	d61f0140 	br	x10
    3bdc:	d5033f9f 	dsb	sy
    3be0:	8b02014a 	add	x10, x10, x2
    3be4:	d61f0140 	br	x10
    3be8:	d5033f9f 	dsb	sy
    3bec:	8b02014a 	add	x10, x10, x2
    3bf0:	d61f0140 	br	x10
    3bf4:	d5033f9f 	dsb	sy
    3bf8:	8b02014a 	add	x10, x10, x2
    3bfc:	d61f0140 	br	x10
    3c00:	d5033f9f 	dsb	sy
    3c04:	8b02014a 	add	x10, x10, x2
    3c08:	d61f0140 	br	x10
    3c0c:	d5033f9f 	dsb	sy
    3c10:	8b02014a 	add	x10, x10, x2
    3c14:	d61f0140 	br	x10
    3c18:	d5033f9f 	dsb	sy
    3c1c:	8b02014a 	add	x10, x10, x2
    3c20:	d61f0140 	br	x10
    3c24:	d5033f9f 	dsb	sy
    3c28:	8b02014a 	add	x10, x10, x2
    3c2c:	d61f0140 	br	x10
    3c30:	d5033f9f 	dsb	sy
    3c34:	8b02014a 	add	x10, x10, x2
    3c38:	d61f0140 	br	x10
    3c3c:	d5033f9f 	dsb	sy
    3c40:	8b02014a 	add	x10, x10, x2
    3c44:	d61f0140 	br	x10
    3c48:	d5033f9f 	dsb	sy
    3c4c:	8b02014a 	add	x10, x10, x2
    3c50:	d61f0140 	br	x10
    3c54:	d5033f9f 	dsb	sy
    3c58:	8b02014a 	add	x10, x10, x2
    3c5c:	d61f0140 	br	x10
    3c60:	d5033f9f 	dsb	sy
    3c64:	8b02014a 	add	x10, x10, x2
    3c68:	d61f0140 	br	x10
    3c6c:	d5033f9f 	dsb	sy
    3c70:	8b02014a 	add	x10, x10, x2
    3c74:	d61f0140 	br	x10
    3c78:	d5033f9f 	dsb	sy
    3c7c:	8b02014a 	add	x10, x10, x2
    3c80:	d61f0140 	br	x10
    3c84:	d5033f9f 	dsb	sy
    3c88:	8b02014a 	add	x10, x10, x2
    3c8c:	d61f0140 	br	x10
    3c90:	d5033f9f 	dsb	sy
    3c94:	8b02014a 	add	x10, x10, x2
    3c98:	d61f0140 	br	x10
    3c9c:	d5033f9f 	dsb	sy
    3ca0:	8b02014a 	add	x10, x10, x2
    3ca4:	d61f0140 	br	x10
    3ca8:	d5033f9f 	dsb	sy
    3cac:	8b02014a 	add	x10, x10, x2
    3cb0:	d61f0140 	br	x10
    3cb4:	d5033f9f 	dsb	sy
    3cb8:	8b02014a 	add	x10, x10, x2
    3cbc:	d61f0140 	br	x10
    3cc0:	d5033f9f 	dsb	sy
    3cc4:	8b02014a 	add	x10, x10, x2
    3cc8:	d61f0140 	br	x10
    3ccc:	d5033f9f 	dsb	sy
    3cd0:	8b02014a 	add	x10, x10, x2
    3cd4:	d61f0140 	br	x10
    3cd8:	d5033f9f 	dsb	sy
    3cdc:	8b02014a 	add	x10, x10, x2
    3ce0:	d61f0140 	br	x10
    3ce4:	d5033f9f 	dsb	sy
    3ce8:	8b02014a 	add	x10, x10, x2
    3cec:	d61f0140 	br	x10
    3cf0:	d5033f9f 	dsb	sy
    3cf4:	8b02014a 	add	x10, x10, x2
    3cf8:	d61f0140 	br	x10
    3cfc:	d5033f9f 	dsb	sy
    3d00:	8b02014a 	add	x10, x10, x2
    3d04:	d61f0140 	br	x10
    3d08:	d5033f9f 	dsb	sy
    3d0c:	8b02014a 	add	x10, x10, x2
    3d10:	d61f0140 	br	x10
    3d14:	d5033f9f 	dsb	sy
    3d18:	8b02014a 	add	x10, x10, x2
    3d1c:	d61f0140 	br	x10
    3d20:	d5033f9f 	dsb	sy
    3d24:	8b02014a 	add	x10, x10, x2
    3d28:	d61f0140 	br	x10
    3d2c:	d5033f9f 	dsb	sy
    3d30:	8b02014a 	add	x10, x10, x2
    3d34:	d61f0140 	br	x10
    3d38:	d5033f9f 	dsb	sy
    3d3c:	8b02014a 	add	x10, x10, x2
    3d40:	d61f0140 	br	x10
    3d44:	d5033f9f 	dsb	sy
    3d48:	8b02014a 	add	x10, x10, x2
    3d4c:	d61f0140 	br	x10
    3d50:	d5033f9f 	dsb	sy
    3d54:	8b02014a 	add	x10, x10, x2
    3d58:	d61f0140 	br	x10
    3d5c:	d5033f9f 	dsb	sy
    3d60:	8b02014a 	add	x10, x10, x2
    3d64:	d61f0140 	br	x10
    3d68:	d5033f9f 	dsb	sy
    3d6c:	8b02014a 	add	x10, x10, x2
    3d70:	d61f0140 	br	x10
    3d74:	d5033f9f 	dsb	sy
    3d78:	8b02014a 	add	x10, x10, x2
    3d7c:	d61f0140 	br	x10
    3d80:	d5033f9f 	dsb	sy
    3d84:	8b02014a 	add	x10, x10, x2
    3d88:	d61f0140 	br	x10
    3d8c:	d5033f9f 	dsb	sy
    3d90:	8b02014a 	add	x10, x10, x2
    3d94:	d61f0140 	br	x10
    3d98:	d5033f9f 	dsb	sy
    3d9c:	8b02014a 	add	x10, x10, x2
    3da0:	d61f0140 	br	x10
    3da4:	d5033f9f 	dsb	sy
    3da8:	8b02014a 	add	x10, x10, x2
    3dac:	d61f0140 	br	x10
    3db0:	d5033f9f 	dsb	sy
    3db4:	8b02014a 	add	x10, x10, x2
    3db8:	d61f0140 	br	x10
    3dbc:	d5033f9f 	dsb	sy
    3dc0:	8b02014a 	add	x10, x10, x2
    3dc4:	d61f0140 	br	x10
    3dc8:	d5033f9f 	dsb	sy
    3dcc:	8b02014a 	add	x10, x10, x2
    3dd0:	d61f0140 	br	x10
    3dd4:	d5033f9f 	dsb	sy
    3dd8:	8b02014a 	add	x10, x10, x2
    3ddc:	d61f0140 	br	x10
    3de0:	d5033f9f 	dsb	sy
    3de4:	8b02014a 	add	x10, x10, x2
    3de8:	d61f0140 	br	x10
    3dec:	d5033f9f 	dsb	sy
    3df0:	8b02014a 	add	x10, x10, x2
    3df4:	d61f0140 	br	x10
    3df8:	d5033f9f 	dsb	sy
    3dfc:	8b02014a 	add	x10, x10, x2
    3e00:	d61f0140 	br	x10
    3e04:	d5033f9f 	dsb	sy
    3e08:	8b02014a 	add	x10, x10, x2
    3e0c:	d61f0140 	br	x10
    3e10:	d5033f9f 	dsb	sy
    3e14:	8b02014a 	add	x10, x10, x2
    3e18:	d61f0140 	br	x10
    3e1c:	d5033f9f 	dsb	sy
    3e20:	8b02014a 	add	x10, x10, x2
    3e24:	d61f0140 	br	x10
    3e28:	d5033f9f 	dsb	sy
    3e2c:	8b02014a 	add	x10, x10, x2
    3e30:	d61f0140 	br	x10
    3e34:	d5033f9f 	dsb	sy
    3e38:	8b02014a 	add	x10, x10, x2
    3e3c:	d61f0140 	br	x10
    3e40:	d5033f9f 	dsb	sy
    3e44:	8b02014a 	add	x10, x10, x2
    3e48:	d61f0140 	br	x10
    3e4c:	d5033f9f 	dsb	sy
    3e50:	8b02014a 	add	x10, x10, x2
    3e54:	d61f0140 	br	x10
    3e58:	d5033f9f 	dsb	sy
    3e5c:	8b02014a 	add	x10, x10, x2
    3e60:	d61f0140 	br	x10
    3e64:	d5033f9f 	dsb	sy
    3e68:	8b02014a 	add	x10, x10, x2
    3e6c:	d61f0140 	br	x10
    3e70:	d5033f9f 	dsb	sy
    3e74:	8b02014a 	add	x10, x10, x2
    3e78:	d61f0140 	br	x10
    3e7c:	d5033f9f 	dsb	sy
    3e80:	8b02014a 	add	x10, x10, x2
    3e84:	d61f0140 	br	x10
    3e88:	d5033f9f 	dsb	sy
    3e8c:	8b02014a 	add	x10, x10, x2
    3e90:	d61f0140 	br	x10
    3e94:	d5033f9f 	dsb	sy
    3e98:	8b02014a 	add	x10, x10, x2
    3e9c:	d61f0140 	br	x10
    3ea0:	d5033f9f 	dsb	sy
    3ea4:	8b02014a 	add	x10, x10, x2
    3ea8:	d61f0140 	br	x10
    3eac:	d5033f9f 	dsb	sy
    3eb0:	8b02014a 	add	x10, x10, x2
    3eb4:	d61f0140 	br	x10
    3eb8:	d5033f9f 	dsb	sy
    3ebc:	8b02014a 	add	x10, x10, x2
    3ec0:	d61f0140 	br	x10
    3ec4:	d5033f9f 	dsb	sy
    3ec8:	8b02014a 	add	x10, x10, x2
    3ecc:	d61f0140 	br	x10
    3ed0:	d5033f9f 	dsb	sy
    3ed4:	8b02014a 	add	x10, x10, x2
    3ed8:	d61f0140 	br	x10
    3edc:	d5033f9f 	dsb	sy
    3ee0:	8b02014a 	add	x10, x10, x2
    3ee4:	d61f0140 	br	x10
    3ee8:	d5033f9f 	dsb	sy
    3eec:	8b02014a 	add	x10, x10, x2
    3ef0:	d61f0140 	br	x10
    3ef4:	d5033f9f 	dsb	sy
    3ef8:	8b02014a 	add	x10, x10, x2
    3efc:	d61f0140 	br	x10
    3f00:	d5033f9f 	dsb	sy
    3f04:	8b02014a 	add	x10, x10, x2
    3f08:	d61f0140 	br	x10
    3f0c:	d5033f9f 	dsb	sy
    3f10:	8b02014a 	add	x10, x10, x2
    3f14:	d61f0140 	br	x10
    3f18:	d5033f9f 	dsb	sy
    3f1c:	8b02014a 	add	x10, x10, x2
    3f20:	d61f0140 	br	x10
    3f24:	d5033f9f 	dsb	sy
    3f28:	8b02014a 	add	x10, x10, x2
    3f2c:	d61f0140 	br	x10
    3f30:	d5033f9f 	dsb	sy
    3f34:	8b02014a 	add	x10, x10, x2
    3f38:	d61f0140 	br	x10
    3f3c:	d5033f9f 	dsb	sy
    3f40:	8b02014a 	add	x10, x10, x2
    3f44:	d61f0140 	br	x10
    3f48:	d5033f9f 	dsb	sy
    3f4c:	8b02014a 	add	x10, x10, x2
    3f50:	d61f0140 	br	x10
    3f54:	d5033f9f 	dsb	sy
    3f58:	8b02014a 	add	x10, x10, x2
    3f5c:	d61f0140 	br	x10
    3f60:	d5033f9f 	dsb	sy
    3f64:	8b02014a 	add	x10, x10, x2
    3f68:	d61f0140 	br	x10
    3f6c:	d5033f9f 	dsb	sy
    3f70:	8b02014a 	add	x10, x10, x2
    3f74:	d61f0140 	br	x10
    3f78:	d5033f9f 	dsb	sy
    3f7c:	8b02014a 	add	x10, x10, x2
    3f80:	d61f0140 	br	x10
    3f84:	d5033f9f 	dsb	sy
    3f88:	8b02014a 	add	x10, x10, x2
    3f8c:	d61f0140 	br	x10
    3f90:	d5033f9f 	dsb	sy
    3f94:	8b02014a 	add	x10, x10, x2
    3f98:	d61f0140 	br	x10
    3f9c:	d5033f9f 	dsb	sy
    3fa0:	8b02014a 	add	x10, x10, x2
    3fa4:	d61f0140 	br	x10
    3fa8:	d5033f9f 	dsb	sy
    3fac:	8b02014a 	add	x10, x10, x2
    3fb0:	d61f0140 	br	x10
    3fb4:	d5033f9f 	dsb	sy
    3fb8:	8b02014a 	add	x10, x10, x2
    3fbc:	d61f0140 	br	x10
    3fc0:	d5033f9f 	dsb	sy
    3fc4:	8b02014a 	add	x10, x10, x2
    3fc8:	d61f0140 	br	x10
    3fcc:	d5033f9f 	dsb	sy
    3fd0:	8b02014a 	add	x10, x10, x2
    3fd4:	d61f0140 	br	x10
    3fd8:	d5033f9f 	dsb	sy
    3fdc:	8b02014a 	add	x10, x10, x2
    3fe0:	d61f0140 	br	x10
    3fe4:	d5033f9f 	dsb	sy
    3fe8:	8b02014a 	add	x10, x10, x2
    3fec:	d61f0140 	br	x10
    3ff0:	d5033f9f 	dsb	sy
    3ff4:	8b02014a 	add	x10, x10, x2
    3ff8:	d61f0140 	br	x10
    3ffc:	d5033f9f 	dsb	sy
    4000:	8b02014a 	add	x10, x10, x2
    4004:	d61f0140 	br	x10
    4008:	d5033f9f 	dsb	sy
    400c:	8b02014a 	add	x10, x10, x2
    4010:	d61f0140 	br	x10
    4014:	d5033f9f 	dsb	sy
    4018:	8b02014a 	add	x10, x10, x2
    401c:	d61f0140 	br	x10
    4020:	d5033f9f 	dsb	sy
    4024:	8b02014a 	add	x10, x10, x2
    4028:	d61f0140 	br	x10
    402c:	d5033f9f 	dsb	sy
    4030:	8b02014a 	add	x10, x10, x2
    4034:	d61f0140 	br	x10
    4038:	d5033f9f 	dsb	sy
    403c:	8b02014a 	add	x10, x10, x2
    4040:	d61f0140 	br	x10
    4044:	d5033f9f 	dsb	sy
    4048:	8b02014a 	add	x10, x10, x2
    404c:	d61f0140 	br	x10
    4050:	d5033f9f 	dsb	sy
    4054:	8b02014a 	add	x10, x10, x2
    4058:	d61f0140 	br	x10
    405c:	d5033f9f 	dsb	sy
    4060:	8b02014a 	add	x10, x10, x2
    4064:	d61f0140 	br	x10
    4068:	d5033f9f 	dsb	sy
    406c:	8b02014a 	add	x10, x10, x2
    4070:	d61f0140 	br	x10
    4074:	d5033f9f 	dsb	sy
    4078:	8b02014a 	add	x10, x10, x2
    407c:	d61f0140 	br	x10
    4080:	d5033f9f 	dsb	sy
    4084:	8b02014a 	add	x10, x10, x2
    4088:	d61f0140 	br	x10
    408c:	d5033f9f 	dsb	sy
    4090:	8b02014a 	add	x10, x10, x2
    4094:	d61f0140 	br	x10
    4098:	d5033f9f 	dsb	sy
    409c:	8b02014a 	add	x10, x10, x2
    40a0:	d61f0140 	br	x10
    40a4:	d5033f9f 	dsb	sy
    40a8:	8b02014a 	add	x10, x10, x2
    40ac:	d61f0140 	br	x10
    40b0:	d5033f9f 	dsb	sy
    40b4:	8b02014a 	add	x10, x10, x2
    40b8:	d61f0140 	br	x10
    40bc:	d5033f9f 	dsb	sy
    40c0:	8b02014a 	add	x10, x10, x2
    40c4:	d61f0140 	br	x10
    40c8:	d5033f9f 	dsb	sy
    40cc:	8b02014a 	add	x10, x10, x2
    40d0:	d61f0140 	br	x10
    40d4:	d5033f9f 	dsb	sy
    40d8:	8b02014a 	add	x10, x10, x2
    40dc:	d61f0140 	br	x10
    40e0:	d5033f9f 	dsb	sy
    40e4:	8b02014a 	add	x10, x10, x2
    40e8:	d61f0140 	br	x10
    40ec:	d5033f9f 	dsb	sy
    40f0:	8b02014a 	add	x10, x10, x2
    40f4:	d61f0140 	br	x10
    40f8:	d5033f9f 	dsb	sy
    40fc:	8b02014a 	add	x10, x10, x2
    4100:	d61f0140 	br	x10
    4104:	d5033f9f 	dsb	sy
    4108:	8b02014a 	add	x10, x10, x2
    410c:	d61f0140 	br	x10
    4110:	d5033f9f 	dsb	sy
    4114:	8b02014a 	add	x10, x10, x2
    4118:	d61f0140 	br	x10
    411c:	d5033f9f 	dsb	sy
    4120:	8b02014a 	add	x10, x10, x2
    4124:	d61f0140 	br	x10
    4128:	d5033f9f 	dsb	sy
    412c:	8b02014a 	add	x10, x10, x2
    4130:	d61f0140 	br	x10
    4134:	d5033f9f 	dsb	sy
    4138:	8b02014a 	add	x10, x10, x2
    413c:	d61f0140 	br	x10
    4140:	d5033f9f 	dsb	sy
    4144:	8b02014a 	add	x10, x10, x2
    4148:	d61f0140 	br	x10
    414c:	d5033f9f 	dsb	sy
    4150:	8b02014a 	add	x10, x10, x2
    4154:	d61f0140 	br	x10
    4158:	d5033f9f 	dsb	sy
    415c:	8b02014a 	add	x10, x10, x2
    4160:	d61f0140 	br	x10
    4164:	d5033f9f 	dsb	sy
    4168:	8b02014a 	add	x10, x10, x2
    416c:	d61f0140 	br	x10
    4170:	d5033f9f 	dsb	sy
    4174:	8b02014a 	add	x10, x10, x2
    4178:	d61f0140 	br	x10
    417c:	d5033f9f 	dsb	sy
    4180:	8b02014a 	add	x10, x10, x2
    4184:	d61f0140 	br	x10
    4188:	d5033f9f 	dsb	sy
    418c:	8b02014a 	add	x10, x10, x2
    4190:	d61f0140 	br	x10
    4194:	d5033f9f 	dsb	sy
    4198:	8b02014a 	add	x10, x10, x2
    419c:	d61f0140 	br	x10
    41a0:	d5033f9f 	dsb	sy
    41a4:	8b02014a 	add	x10, x10, x2
    41a8:	d61f0140 	br	x10
    41ac:	d5033f9f 	dsb	sy
    41b0:	8b02014a 	add	x10, x10, x2
    41b4:	d61f0140 	br	x10
    41b8:	d5033f9f 	dsb	sy
    41bc:	8b02014a 	add	x10, x10, x2
    41c0:	d61f0140 	br	x10
    41c4:	d5033f9f 	dsb	sy
    41c8:	8b02014a 	add	x10, x10, x2
    41cc:	d61f0140 	br	x10
    41d0:	d5033f9f 	dsb	sy
    41d4:	8b02014a 	add	x10, x10, x2
    41d8:	d61f0140 	br	x10
    41dc:	d5033f9f 	dsb	sy
    41e0:	8b02014a 	add	x10, x10, x2
    41e4:	d61f0140 	br	x10
    41e8:	d5033f9f 	dsb	sy
    41ec:	8b02014a 	add	x10, x10, x2
    41f0:	d61f0140 	br	x10
    41f4:	d5033f9f 	dsb	sy
    41f8:	8b02014a 	add	x10, x10, x2
    41fc:	d61f0140 	br	x10
    4200:	d5033f9f 	dsb	sy
    4204:	8b02014a 	add	x10, x10, x2
    4208:	d61f0140 	br	x10
    420c:	d5033f9f 	dsb	sy
    4210:	8b02014a 	add	x10, x10, x2
    4214:	d61f0140 	br	x10
    4218:	d5033f9f 	dsb	sy
    421c:	8b02014a 	add	x10, x10, x2
    4220:	d61f0140 	br	x10
    4224:	d5033f9f 	dsb	sy
    4228:	8b02014a 	add	x10, x10, x2
    422c:	d61f0140 	br	x10
    4230:	d5033f9f 	dsb	sy
    4234:	8b02014a 	add	x10, x10, x2
    4238:	d61f0140 	br	x10
    423c:	d5033f9f 	dsb	sy
    4240:	8b02014a 	add	x10, x10, x2
    4244:	d61f0140 	br	x10
    4248:	d5033f9f 	dsb	sy
    424c:	8b02014a 	add	x10, x10, x2
    4250:	d61f0140 	br	x10
    4254:	d5033f9f 	dsb	sy
    4258:	8b02014a 	add	x10, x10, x2
    425c:	d61f0140 	br	x10
    4260:	d5033f9f 	dsb	sy
    4264:	8b02014a 	add	x10, x10, x2
    4268:	d61f0140 	br	x10
    426c:	d5033f9f 	dsb	sy
    4270:	8b02014a 	add	x10, x10, x2
    4274:	d61f0140 	br	x10
    4278:	d5033f9f 	dsb	sy
    427c:	8b02014a 	add	x10, x10, x2
    4280:	d61f0140 	br	x10
    4284:	d5033f9f 	dsb	sy
    4288:	8b02014a 	add	x10, x10, x2
    428c:	d61f0140 	br	x10
    4290:	d5033f9f 	dsb	sy
    4294:	8b02014a 	add	x10, x10, x2
    4298:	d61f0140 	br	x10
    429c:	d5033f9f 	dsb	sy
    42a0:	8b02014a 	add	x10, x10, x2
    42a4:	d61f0140 	br	x10
    42a8:	d5033f9f 	dsb	sy
    42ac:	8b02014a 	add	x10, x10, x2
    42b0:	d61f0140 	br	x10
    42b4:	d5033f9f 	dsb	sy
    42b8:	8b02014a 	add	x10, x10, x2
    42bc:	d61f0140 	br	x10
    42c0:	d5033f9f 	dsb	sy
    42c4:	8b02014a 	add	x10, x10, x2
    42c8:	d61f0140 	br	x10
    42cc:	d5033f9f 	dsb	sy
    42d0:	8b02014a 	add	x10, x10, x2
    42d4:	d61f0140 	br	x10
    42d8:	d5033f9f 	dsb	sy
    42dc:	8b02014a 	add	x10, x10, x2
    42e0:	d61f0140 	br	x10
    42e4:	d5033f9f 	dsb	sy
    42e8:	8b02014a 	add	x10, x10, x2
    42ec:	d61f0140 	br	x10
    42f0:	d5033f9f 	dsb	sy
    42f4:	8b02014a 	add	x10, x10, x2
    42f8:	d61f0140 	br	x10
    42fc:	d5033f9f 	dsb	sy
    4300:	8b02014a 	add	x10, x10, x2
    4304:	d61f0140 	br	x10
    4308:	d5033f9f 	dsb	sy
    430c:	8b02014a 	add	x10, x10, x2
    4310:	d61f0140 	br	x10
    4314:	d5033f9f 	dsb	sy
    4318:	8b02014a 	add	x10, x10, x2
    431c:	d61f0140 	br	x10
    4320:	d5033f9f 	dsb	sy
    4324:	8b02014a 	add	x10, x10, x2
    4328:	d61f0140 	br	x10
    432c:	d5033f9f 	dsb	sy
    4330:	8b02014a 	add	x10, x10, x2
    4334:	d61f0140 	br	x10
    4338:	d5033f9f 	dsb	sy
    433c:	8b02014a 	add	x10, x10, x2
    4340:	d61f0140 	br	x10
    4344:	d5033f9f 	dsb	sy
    4348:	8b02014a 	add	x10, x10, x2
    434c:	d61f0140 	br	x10
    4350:	d5033f9f 	dsb	sy
    4354:	8b02014a 	add	x10, x10, x2
    4358:	d61f0140 	br	x10
    435c:	d5033f9f 	dsb	sy
    4360:	8b02014a 	add	x10, x10, x2
    4364:	d61f0140 	br	x10
    4368:	d5033f9f 	dsb	sy
    436c:	8b02014a 	add	x10, x10, x2
    4370:	d61f0140 	br	x10
    4374:	d5033f9f 	dsb	sy
    4378:	8b02014a 	add	x10, x10, x2
    437c:	d61f0140 	br	x10
    4380:	d5033f9f 	dsb	sy
    4384:	8b02014a 	add	x10, x10, x2
    4388:	d61f0140 	br	x10
    438c:	d5033f9f 	dsb	sy
    4390:	8b02014a 	add	x10, x10, x2
    4394:	d61f0140 	br	x10
    4398:	d5033f9f 	dsb	sy
    439c:	8b02014a 	add	x10, x10, x2
    43a0:	d61f0140 	br	x10
    43a4:	d5033f9f 	dsb	sy
    43a8:	8b02014a 	add	x10, x10, x2
    43ac:	d61f0140 	br	x10
    43b0:	d5033f9f 	dsb	sy
    43b4:	8b02014a 	add	x10, x10, x2
    43b8:	d61f0140 	br	x10
    43bc:	d5033f9f 	dsb	sy
    43c0:	8b02014a 	add	x10, x10, x2
    43c4:	d61f0140 	br	x10
    43c8:	d5033f9f 	dsb	sy
    43cc:	8b02014a 	add	x10, x10, x2
    43d0:	d61f0140 	br	x10
    43d4:	d5033f9f 	dsb	sy
    43d8:	8b02014a 	add	x10, x10, x2
    43dc:	d61f0140 	br	x10
    43e0:	d5033f9f 	dsb	sy
    43e4:	8b02014a 	add	x10, x10, x2
    43e8:	d61f0140 	br	x10
    43ec:	d5033f9f 	dsb	sy
    43f0:	8b02014a 	add	x10, x10, x2
    43f4:	d61f0140 	br	x10
    43f8:	d5033f9f 	dsb	sy
    43fc:	8b02014a 	add	x10, x10, x2
    4400:	d61f0140 	br	x10
    4404:	d5033f9f 	dsb	sy
    4408:	8b02014a 	add	x10, x10, x2
    440c:	d61f0140 	br	x10
    4410:	d5033f9f 	dsb	sy
    4414:	8b02014a 	add	x10, x10, x2
    4418:	d61f0140 	br	x10
    441c:	d5033f9f 	dsb	sy
    4420:	8b02014a 	add	x10, x10, x2
    4424:	d61f0140 	br	x10
    4428:	d5033f9f 	dsb	sy
    442c:	8b02014a 	add	x10, x10, x2
    4430:	d61f0140 	br	x10
    4434:	d5033f9f 	dsb	sy
    4438:	8b02014a 	add	x10, x10, x2
    443c:	d61f0140 	br	x10
    4440:	d5033f9f 	dsb	sy
    4444:	8b02014a 	add	x10, x10, x2
    4448:	d61f0140 	br	x10
    444c:	d5033f9f 	dsb	sy
    4450:	8b02014a 	add	x10, x10, x2
    4454:	d61f0140 	br	x10
    4458:	d5033f9f 	dsb	sy
    445c:	8b02014a 	add	x10, x10, x2
    4460:	d61f0140 	br	x10
    4464:	d5033f9f 	dsb	sy
    4468:	8b02014a 	add	x10, x10, x2
    446c:	d61f0140 	br	x10
    4470:	d5033f9f 	dsb	sy
    4474:	8b02014a 	add	x10, x10, x2
    4478:	d61f0140 	br	x10
    447c:	d5033f9f 	dsb	sy
    4480:	8b02014a 	add	x10, x10, x2
    4484:	d61f0140 	br	x10
    4488:	d5033f9f 	dsb	sy
    448c:	8b02014a 	add	x10, x10, x2
    4490:	d61f0140 	br	x10
    4494:	d5033f9f 	dsb	sy
    4498:	8b02014a 	add	x10, x10, x2
    449c:	d61f0140 	br	x10
    44a0:	d5033f9f 	dsb	sy
    44a4:	8b02014a 	add	x10, x10, x2
    44a8:	d61f0140 	br	x10
    44ac:	d5033f9f 	dsb	sy
    44b0:	8b02014a 	add	x10, x10, x2
    44b4:	d61f0140 	br	x10
    44b8:	d5033f9f 	dsb	sy
    44bc:	8b02014a 	add	x10, x10, x2
    44c0:	d61f0140 	br	x10
    44c4:	d5033f9f 	dsb	sy
    44c8:	8b02014a 	add	x10, x10, x2
    44cc:	d61f0140 	br	x10
    44d0:	d5033f9f 	dsb	sy
    44d4:	8b02014a 	add	x10, x10, x2
    44d8:	d61f0140 	br	x10
    44dc:	d5033f9f 	dsb	sy
    44e0:	8b02014a 	add	x10, x10, x2
    44e4:	d61f0140 	br	x10
    44e8:	d5033f9f 	dsb	sy
    44ec:	8b02014a 	add	x10, x10, x2
    44f0:	d61f0140 	br	x10
    44f4:	d5033f9f 	dsb	sy
    44f8:	8b02014a 	add	x10, x10, x2
    44fc:	d61f0140 	br	x10
    4500:	d5033f9f 	dsb	sy
    4504:	8b02014a 	add	x10, x10, x2
    4508:	d61f0140 	br	x10
    450c:	d5033f9f 	dsb	sy
    4510:	8b02014a 	add	x10, x10, x2
    4514:	d61f0140 	br	x10
    4518:	d5033f9f 	dsb	sy
    451c:	8b02014a 	add	x10, x10, x2
    4520:	d61f0140 	br	x10
    4524:	d5033f9f 	dsb	sy
    4528:	8b02014a 	add	x10, x10, x2
    452c:	d61f0140 	br	x10
    4530:	d5033f9f 	dsb	sy
    4534:	8b02014a 	add	x10, x10, x2
    4538:	d61f0140 	br	x10
    453c:	d5033f9f 	dsb	sy
    4540:	8b02014a 	add	x10, x10, x2
    4544:	d61f0140 	br	x10
    4548:	d5033f9f 	dsb	sy
    454c:	8b02014a 	add	x10, x10, x2
    4550:	d61f0140 	br	x10
    4554:	d5033f9f 	dsb	sy
    4558:	8b02014a 	add	x10, x10, x2
    455c:	d61f0140 	br	x10
    4560:	d5033f9f 	dsb	sy
    4564:	8b02014a 	add	x10, x10, x2
    4568:	d61f0140 	br	x10
    456c:	d5033f9f 	dsb	sy
    4570:	8b02014a 	add	x10, x10, x2
    4574:	d61f0140 	br	x10
    4578:	d5033f9f 	dsb	sy
    457c:	8b02014a 	add	x10, x10, x2
    4580:	d61f0140 	br	x10
    4584:	d5033f9f 	dsb	sy
    4588:	8b02014a 	add	x10, x10, x2
    458c:	d61f0140 	br	x10
    4590:	d5033f9f 	dsb	sy
    4594:	8b02014a 	add	x10, x10, x2
    4598:	d61f0140 	br	x10
    459c:	d5033f9f 	dsb	sy
    45a0:	8b02014a 	add	x10, x10, x2
    45a4:	d61f0140 	br	x10
    45a8:	d5033f9f 	dsb	sy
    45ac:	8b02014a 	add	x10, x10, x2
    45b0:	d61f0140 	br	x10
    45b4:	d5033f9f 	dsb	sy
    45b8:	8b02014a 	add	x10, x10, x2
    45bc:	d61f0140 	br	x10
    45c0:	d5033f9f 	dsb	sy
    45c4:	8b02014a 	add	x10, x10, x2
    45c8:	d61f0140 	br	x10
    45cc:	d5033f9f 	dsb	sy
    45d0:	8b02014a 	add	x10, x10, x2
    45d4:	d61f0140 	br	x10
    45d8:	d5033f9f 	dsb	sy
    45dc:	8b02014a 	add	x10, x10, x2
    45e0:	d61f0140 	br	x10
    45e4:	d5033f9f 	dsb	sy
    45e8:	8b02014a 	add	x10, x10, x2
    45ec:	d61f0140 	br	x10
    45f0:	d5033f9f 	dsb	sy
    45f4:	8b02014a 	add	x10, x10, x2
    45f8:	d61f0140 	br	x10
    45fc:	d5033f9f 	dsb	sy
    4600:	8b02014a 	add	x10, x10, x2
    4604:	d61f0140 	br	x10
    4608:	d5033f9f 	dsb	sy
    460c:	8b02014a 	add	x10, x10, x2
    4610:	d61f0140 	br	x10
    4614:	d5033f9f 	dsb	sy
    4618:	8b02014a 	add	x10, x10, x2
    461c:	d61f0140 	br	x10
    4620:	d5033f9f 	dsb	sy
    4624:	8b02014a 	add	x10, x10, x2
    4628:	d61f0140 	br	x10
    462c:	d5033f9f 	dsb	sy
    4630:	8b02014a 	add	x10, x10, x2
    4634:	d61f0140 	br	x10
    4638:	d5033f9f 	dsb	sy
    463c:	8b02014a 	add	x10, x10, x2
    4640:	d61f0140 	br	x10
    4644:	d5033f9f 	dsb	sy
    4648:	8b02014a 	add	x10, x10, x2
    464c:	d61f0140 	br	x10
    4650:	d5033f9f 	dsb	sy
    4654:	8b02014a 	add	x10, x10, x2
    4658:	d61f0140 	br	x10
    465c:	d5033f9f 	dsb	sy
    4660:	8b02014a 	add	x10, x10, x2
    4664:	d61f0140 	br	x10
    4668:	d5033f9f 	dsb	sy
    466c:	8b02014a 	add	x10, x10, x2
    4670:	d61f0140 	br	x10
    4674:	d5033f9f 	dsb	sy
    4678:	8b02014a 	add	x10, x10, x2
    467c:	d61f0140 	br	x10
    4680:	d5033f9f 	dsb	sy
    4684:	8b02014a 	add	x10, x10, x2
    4688:	d61f0140 	br	x10
    468c:	d5033f9f 	dsb	sy
    4690:	8b02014a 	add	x10, x10, x2
    4694:	d61f0140 	br	x10
    4698:	d5033f9f 	dsb	sy
    469c:	8b02014a 	add	x10, x10, x2
    46a0:	d61f0140 	br	x10
    46a4:	d5033f9f 	dsb	sy
    46a8:	8b02014a 	add	x10, x10, x2
    46ac:	d61f0140 	br	x10
    46b0:	d5033f9f 	dsb	sy
    46b4:	8b02014a 	add	x10, x10, x2
    46b8:	d61f0140 	br	x10
    46bc:	d5033f9f 	dsb	sy
    46c0:	8b02014a 	add	x10, x10, x2
    46c4:	d61f0140 	br	x10
    46c8:	d5033f9f 	dsb	sy
    46cc:	8b02014a 	add	x10, x10, x2
    46d0:	d61f0140 	br	x10
    46d4:	d5033f9f 	dsb	sy
    46d8:	8b02014a 	add	x10, x10, x2
    46dc:	d61f0140 	br	x10
    46e0:	d5033f9f 	dsb	sy
    46e4:	8b02014a 	add	x10, x10, x2
    46e8:	d61f0140 	br	x10
    46ec:	d5033f9f 	dsb	sy
    46f0:	8b02014a 	add	x10, x10, x2
    46f4:	d61f0140 	br	x10
    46f8:	d5033f9f 	dsb	sy
    46fc:	8b02014a 	add	x10, x10, x2
    4700:	d61f0140 	br	x10
    4704:	d5033f9f 	dsb	sy
    4708:	8b02014a 	add	x10, x10, x2
    470c:	d61f0140 	br	x10
    4710:	d5033f9f 	dsb	sy
    4714:	8b02014a 	add	x10, x10, x2
    4718:	d61f0140 	br	x10
    471c:	d5033f9f 	dsb	sy
    4720:	8b02014a 	add	x10, x10, x2
    4724:	d61f0140 	br	x10
    4728:	d5033f9f 	dsb	sy
    472c:	8b02014a 	add	x10, x10, x2
    4730:	d61f0140 	br	x10
    4734:	d5033f9f 	dsb	sy
    4738:	8b02014a 	add	x10, x10, x2
    473c:	d61f0140 	br	x10
    4740:	d5033f9f 	dsb	sy
    4744:	8b02014a 	add	x10, x10, x2
    4748:	d61f0140 	br	x10
    474c:	d5033f9f 	dsb	sy
    4750:	8b02014a 	add	x10, x10, x2
    4754:	d61f0140 	br	x10
    4758:	d5033f9f 	dsb	sy
    475c:	8b02014a 	add	x10, x10, x2
    4760:	d61f0140 	br	x10
    4764:	d5033f9f 	dsb	sy
    4768:	8b02014a 	add	x10, x10, x2
    476c:	d61f0140 	br	x10
    4770:	d5033f9f 	dsb	sy
    4774:	8b02014a 	add	x10, x10, x2
    4778:	d61f0140 	br	x10
    477c:	d5033f9f 	dsb	sy
    4780:	8b02014a 	add	x10, x10, x2
    4784:	d61f0140 	br	x10
    4788:	d5033f9f 	dsb	sy
    478c:	8b02014a 	add	x10, x10, x2
    4790:	d61f0140 	br	x10
    4794:	d5033f9f 	dsb	sy
    4798:	8b02014a 	add	x10, x10, x2
    479c:	d61f0140 	br	x10
    47a0:	d5033f9f 	dsb	sy
    47a4:	8b02014a 	add	x10, x10, x2
    47a8:	d61f0140 	br	x10
    47ac:	d5033f9f 	dsb	sy
    47b0:	8b02014a 	add	x10, x10, x2
    47b4:	d61f0140 	br	x10
    47b8:	d5033f9f 	dsb	sy
    47bc:	8b02014a 	add	x10, x10, x2
    47c0:	d61f0140 	br	x10
    47c4:	d5033f9f 	dsb	sy
    47c8:	8b02014a 	add	x10, x10, x2
    47cc:	d61f0140 	br	x10
    47d0:	d5033f9f 	dsb	sy
    47d4:	8b02014a 	add	x10, x10, x2
    47d8:	d61f0140 	br	x10
    47dc:	d5033f9f 	dsb	sy
    47e0:	8b02014a 	add	x10, x10, x2
    47e4:	d61f0140 	br	x10
    47e8:	d5033f9f 	dsb	sy
    47ec:	8b02014a 	add	x10, x10, x2
    47f0:	d61f0140 	br	x10
    47f4:	d5033f9f 	dsb	sy
    47f8:	8b02014a 	add	x10, x10, x2
    47fc:	d61f0140 	br	x10
    4800:	d5033f9f 	dsb	sy
    4804:	8b02014a 	add	x10, x10, x2
    4808:	d61f0140 	br	x10
    480c:	d5033f9f 	dsb	sy
    4810:	8b02014a 	add	x10, x10, x2
    4814:	d61f0140 	br	x10
    4818:	d5033f9f 	dsb	sy
    481c:	8b02014a 	add	x10, x10, x2
    4820:	d61f0140 	br	x10
    4824:	d5033f9f 	dsb	sy
    4828:	8b02014a 	add	x10, x10, x2
    482c:	d61f0140 	br	x10
    4830:	d5033f9f 	dsb	sy
    4834:	8b02014a 	add	x10, x10, x2
    4838:	d61f0140 	br	x10
    483c:	d5033f9f 	dsb	sy
    4840:	8b02014a 	add	x10, x10, x2
    4844:	d61f0140 	br	x10
    4848:	d5033f9f 	dsb	sy
    484c:	8b02014a 	add	x10, x10, x2
    4850:	d61f0140 	br	x10
    4854:	d5033f9f 	dsb	sy
    4858:	8b02014a 	add	x10, x10, x2
    485c:	d61f0140 	br	x10
    4860:	d5033f9f 	dsb	sy
    4864:	8b02014a 	add	x10, x10, x2
    4868:	d61f0140 	br	x10
    486c:	d5033f9f 	dsb	sy
    4870:	8b02014a 	add	x10, x10, x2
    4874:	d61f0140 	br	x10
    4878:	d5033f9f 	dsb	sy
    487c:	8b02014a 	add	x10, x10, x2
    4880:	d61f0140 	br	x10
    4884:	d5033f9f 	dsb	sy
    4888:	8b02014a 	add	x10, x10, x2
    488c:	d61f0140 	br	x10
    4890:	d5033f9f 	dsb	sy
    4894:	8b02014a 	add	x10, x10, x2
    4898:	d61f0140 	br	x10
    489c:	d5033f9f 	dsb	sy
    48a0:	8b02014a 	add	x10, x10, x2
    48a4:	d61f0140 	br	x10
    48a8:	d5033f9f 	dsb	sy
    48ac:	8b02014a 	add	x10, x10, x2
    48b0:	d61f0140 	br	x10
    48b4:	d5033f9f 	dsb	sy
    48b8:	8b02014a 	add	x10, x10, x2
    48bc:	d61f0140 	br	x10
    48c0:	d5033f9f 	dsb	sy
    48c4:	8b02014a 	add	x10, x10, x2
    48c8:	d61f0140 	br	x10
    48cc:	d5033f9f 	dsb	sy
    48d0:	8b02014a 	add	x10, x10, x2
    48d4:	d61f0140 	br	x10
    48d8:	d5033f9f 	dsb	sy
    48dc:	8b02014a 	add	x10, x10, x2
    48e0:	d61f0140 	br	x10
    48e4:	d5033f9f 	dsb	sy
    48e8:	8b02014a 	add	x10, x10, x2
    48ec:	d61f0140 	br	x10
    48f0:	d5033f9f 	dsb	sy
    48f4:	8b02014a 	add	x10, x10, x2
    48f8:	d61f0140 	br	x10
    48fc:	d5033f9f 	dsb	sy
    4900:	8b02014a 	add	x10, x10, x2
    4904:	d61f0140 	br	x10
    4908:	d5033f9f 	dsb	sy
    490c:	8b02014a 	add	x10, x10, x2
    4910:	d61f0140 	br	x10
    4914:	d5033f9f 	dsb	sy
    4918:	8b02014a 	add	x10, x10, x2
    491c:	d61f0140 	br	x10
    4920:	d5033f9f 	dsb	sy
    4924:	8b02014a 	add	x10, x10, x2
    4928:	d61f0140 	br	x10
    492c:	d5033f9f 	dsb	sy
    4930:	8b02014a 	add	x10, x10, x2
    4934:	d61f0140 	br	x10
    4938:	d5033f9f 	dsb	sy
    493c:	8b02014a 	add	x10, x10, x2
    4940:	d61f0140 	br	x10
    4944:	d5033f9f 	dsb	sy
    4948:	8b02014a 	add	x10, x10, x2
    494c:	d61f0140 	br	x10
    4950:	d5033f9f 	dsb	sy
    4954:	8b02014a 	add	x10, x10, x2
    4958:	d61f0140 	br	x10
    495c:	d5033f9f 	dsb	sy
    4960:	8b02014a 	add	x10, x10, x2
    4964:	d61f0140 	br	x10
    4968:	d5033f9f 	dsb	sy
    496c:	8b02014a 	add	x10, x10, x2
    4970:	d61f0140 	br	x10
    4974:	d5033f9f 	dsb	sy
    4978:	8b02014a 	add	x10, x10, x2
    497c:	d61f0140 	br	x10
    4980:	d5033f9f 	dsb	sy
    4984:	8b02014a 	add	x10, x10, x2
    4988:	d61f0140 	br	x10
    498c:	d5033f9f 	dsb	sy
    4990:	8b02014a 	add	x10, x10, x2
    4994:	d61f0140 	br	x10
    4998:	d5033f9f 	dsb	sy
    499c:	8b02014a 	add	x10, x10, x2
    49a0:	d61f0140 	br	x10
    49a4:	d5033f9f 	dsb	sy
    49a8:	8b02014a 	add	x10, x10, x2
    49ac:	d61f0140 	br	x10
    49b0:	d5033f9f 	dsb	sy
    49b4:	8b02014a 	add	x10, x10, x2
    49b8:	d61f0140 	br	x10
    49bc:	d5033f9f 	dsb	sy
    49c0:	8b02014a 	add	x10, x10, x2
    49c4:	d61f0140 	br	x10
    49c8:	d5033f9f 	dsb	sy
    49cc:	8b02014a 	add	x10, x10, x2
    49d0:	d61f0140 	br	x10
    49d4:	d5033f9f 	dsb	sy
    49d8:	8b02014a 	add	x10, x10, x2
    49dc:	d61f0140 	br	x10
    49e0:	d5033f9f 	dsb	sy
    49e4:	8b02014a 	add	x10, x10, x2
    49e8:	d61f0140 	br	x10
    49ec:	d5033f9f 	dsb	sy
    49f0:	8b02014a 	add	x10, x10, x2
    49f4:	d61f0140 	br	x10
    49f8:	d5033f9f 	dsb	sy
    49fc:	8b02014a 	add	x10, x10, x2
    4a00:	d61f0140 	br	x10
    4a04:	d5033f9f 	dsb	sy
    4a08:	8b02014a 	add	x10, x10, x2
    4a0c:	d61f0140 	br	x10
    4a10:	d5033f9f 	dsb	sy
    4a14:	8b02014a 	add	x10, x10, x2
    4a18:	d61f0140 	br	x10
    4a1c:	d5033f9f 	dsb	sy
    4a20:	8b02014a 	add	x10, x10, x2
    4a24:	d61f0140 	br	x10
    4a28:	d5033f9f 	dsb	sy
    4a2c:	8b02014a 	add	x10, x10, x2
    4a30:	d61f0140 	br	x10
    4a34:	d5033f9f 	dsb	sy
    4a38:	8b02014a 	add	x10, x10, x2
    4a3c:	d61f0140 	br	x10
    4a40:	d5033f9f 	dsb	sy
    4a44:	8b02014a 	add	x10, x10, x2
    4a48:	d61f0140 	br	x10
    4a4c:	d5033f9f 	dsb	sy
    4a50:	8b02014a 	add	x10, x10, x2
    4a54:	d61f0140 	br	x10
    4a58:	d5033f9f 	dsb	sy
    4a5c:	8b02014a 	add	x10, x10, x2
    4a60:	d61f0140 	br	x10
    4a64:	d5033f9f 	dsb	sy
    4a68:	8b02014a 	add	x10, x10, x2
    4a6c:	d61f0140 	br	x10
    4a70:	d5033f9f 	dsb	sy
    4a74:	8b02014a 	add	x10, x10, x2
    4a78:	d61f0140 	br	x10
    4a7c:	d5033f9f 	dsb	sy
    4a80:	8b02014a 	add	x10, x10, x2
    4a84:	d61f0140 	br	x10
    4a88:	d5033f9f 	dsb	sy
    4a8c:	8b02014a 	add	x10, x10, x2
    4a90:	d61f0140 	br	x10
    4a94:	d5033f9f 	dsb	sy
    4a98:	8b02014a 	add	x10, x10, x2
    4a9c:	d61f0140 	br	x10
    4aa0:	d5033f9f 	dsb	sy
    4aa4:	8b02014a 	add	x10, x10, x2
    4aa8:	d61f0140 	br	x10
    4aac:	d5033f9f 	dsb	sy
    4ab0:	8b02014a 	add	x10, x10, x2
    4ab4:	d61f0140 	br	x10
    4ab8:	d5033f9f 	dsb	sy
    4abc:	8b02014a 	add	x10, x10, x2
    4ac0:	d61f0140 	br	x10
    4ac4:	d5033f9f 	dsb	sy
    4ac8:	8b02014a 	add	x10, x10, x2
    4acc:	d61f0140 	br	x10
    4ad0:	d5033f9f 	dsb	sy
    4ad4:	8b02014a 	add	x10, x10, x2
    4ad8:	d61f0140 	br	x10
    4adc:	d5033f9f 	dsb	sy
    4ae0:	8b02014a 	add	x10, x10, x2
    4ae4:	d61f0140 	br	x10
    4ae8:	d5033f9f 	dsb	sy
    4aec:	8b02014a 	add	x10, x10, x2
    4af0:	d61f0140 	br	x10
    4af4:	d5033f9f 	dsb	sy
    4af8:	8b02014a 	add	x10, x10, x2
    4afc:	d61f0140 	br	x10
    4b00:	d5033f9f 	dsb	sy
    4b04:	8b02014a 	add	x10, x10, x2
    4b08:	d61f0140 	br	x10
    4b0c:	d5033f9f 	dsb	sy
    4b10:	8b02014a 	add	x10, x10, x2
    4b14:	d61f0140 	br	x10
    4b18:	d5033f9f 	dsb	sy
    4b1c:	8b02014a 	add	x10, x10, x2
    4b20:	d61f0140 	br	x10
    4b24:	d5033f9f 	dsb	sy
    4b28:	8b02014a 	add	x10, x10, x2
    4b2c:	d61f0140 	br	x10
    4b30:	d5033f9f 	dsb	sy
    4b34:	8b02014a 	add	x10, x10, x2
    4b38:	d61f0140 	br	x10
    4b3c:	d5033f9f 	dsb	sy
    4b40:	8b02014a 	add	x10, x10, x2
    4b44:	d61f0140 	br	x10
    4b48:	d5033f9f 	dsb	sy
    4b4c:	8b02014a 	add	x10, x10, x2
    4b50:	d61f0140 	br	x10
    4b54:	d5033f9f 	dsb	sy
    4b58:	8b02014a 	add	x10, x10, x2
    4b5c:	d61f0140 	br	x10
    4b60:	d5033f9f 	dsb	sy
    4b64:	8b02014a 	add	x10, x10, x2
    4b68:	d61f0140 	br	x10
    4b6c:	d5033f9f 	dsb	sy
    4b70:	8b02014a 	add	x10, x10, x2
    4b74:	d61f0140 	br	x10
    4b78:	d5033f9f 	dsb	sy
    4b7c:	8b02014a 	add	x10, x10, x2
    4b80:	d61f0140 	br	x10
    4b84:	d5033f9f 	dsb	sy
    4b88:	8b02014a 	add	x10, x10, x2
    4b8c:	d61f0140 	br	x10
    4b90:	d5033f9f 	dsb	sy
    4b94:	8b02014a 	add	x10, x10, x2
    4b98:	d61f0140 	br	x10
    4b9c:	d5033f9f 	dsb	sy
    4ba0:	8b02014a 	add	x10, x10, x2
    4ba4:	d61f0140 	br	x10
    4ba8:	d5033f9f 	dsb	sy
    4bac:	8b02014a 	add	x10, x10, x2
    4bb0:	d61f0140 	br	x10
    4bb4:	d5033f9f 	dsb	sy
    4bb8:	8b02014a 	add	x10, x10, x2
    4bbc:	d61f0140 	br	x10
    4bc0:	d5033f9f 	dsb	sy
    4bc4:	8b02014a 	add	x10, x10, x2
    4bc8:	d61f0140 	br	x10
    4bcc:	d5033f9f 	dsb	sy
    4bd0:	8b02014a 	add	x10, x10, x2
    4bd4:	d61f0140 	br	x10
    4bd8:	d5033f9f 	dsb	sy
    4bdc:	8b02014a 	add	x10, x10, x2
    4be0:	d61f0140 	br	x10
    4be4:	d5033f9f 	dsb	sy
    4be8:	8b02014a 	add	x10, x10, x2
    4bec:	d61f0140 	br	x10
    4bf0:	d5033f9f 	dsb	sy
    4bf4:	8b02014a 	add	x10, x10, x2
    4bf8:	d61f0140 	br	x10
    4bfc:	d5033f9f 	dsb	sy
    4c00:	8b02014a 	add	x10, x10, x2
    4c04:	d61f0140 	br	x10
    4c08:	d5033f9f 	dsb	sy
    4c0c:	8b02014a 	add	x10, x10, x2
    4c10:	d61f0140 	br	x10
    4c14:	d5033f9f 	dsb	sy
    4c18:	8b02014a 	add	x10, x10, x2
    4c1c:	d61f0140 	br	x10
    4c20:	d5033f9f 	dsb	sy
    4c24:	8b02014a 	add	x10, x10, x2
    4c28:	d61f0140 	br	x10
    4c2c:	d5033f9f 	dsb	sy
    4c30:	8b02014a 	add	x10, x10, x2
    4c34:	d61f0140 	br	x10
    4c38:	d5033f9f 	dsb	sy
    4c3c:	8b02014a 	add	x10, x10, x2
    4c40:	d61f0140 	br	x10
    4c44:	d5033f9f 	dsb	sy
    4c48:	8b02014a 	add	x10, x10, x2
    4c4c:	d61f0140 	br	x10
    4c50:	d5033f9f 	dsb	sy
    4c54:	8b02014a 	add	x10, x10, x2
    4c58:	d61f0140 	br	x10
    4c5c:	d5033f9f 	dsb	sy
    4c60:	8b02014a 	add	x10, x10, x2
    4c64:	d61f0140 	br	x10
    4c68:	d5033f9f 	dsb	sy
    4c6c:	8b02014a 	add	x10, x10, x2
    4c70:	d61f0140 	br	x10
    4c74:	d5033f9f 	dsb	sy
    4c78:	8b02014a 	add	x10, x10, x2
    4c7c:	d61f0140 	br	x10
    4c80:	d5033f9f 	dsb	sy
    4c84:	8b02014a 	add	x10, x10, x2
    4c88:	d61f0140 	br	x10
    4c8c:	d5033f9f 	dsb	sy
    4c90:	8b02014a 	add	x10, x10, x2
    4c94:	d61f0140 	br	x10
    4c98:	d5033f9f 	dsb	sy
    4c9c:	8b02014a 	add	x10, x10, x2
    4ca0:	d61f0140 	br	x10
    4ca4:	d5033f9f 	dsb	sy
    4ca8:	8b02014a 	add	x10, x10, x2
    4cac:	d61f0140 	br	x10
    4cb0:	d5033f9f 	dsb	sy
    4cb4:	8b02014a 	add	x10, x10, x2
    4cb8:	d61f0140 	br	x10
    4cbc:	d5033f9f 	dsb	sy
    4cc0:	8b02014a 	add	x10, x10, x2
    4cc4:	d61f0140 	br	x10
    4cc8:	d5033f9f 	dsb	sy
    4ccc:	8b02014a 	add	x10, x10, x2
    4cd0:	d61f0140 	br	x10
    4cd4:	d5033f9f 	dsb	sy
    4cd8:	8b02014a 	add	x10, x10, x2
    4cdc:	d61f0140 	br	x10
    4ce0:	d5033f9f 	dsb	sy
    4ce4:	8b02014a 	add	x10, x10, x2
    4ce8:	d61f0140 	br	x10
    4cec:	d5033f9f 	dsb	sy
    4cf0:	8b02014a 	add	x10, x10, x2
    4cf4:	d61f0140 	br	x10
    4cf8:	d5033f9f 	dsb	sy
    4cfc:	8b02014a 	add	x10, x10, x2
    4d00:	d61f0140 	br	x10
    4d04:	d5033f9f 	dsb	sy
    4d08:	8b02014a 	add	x10, x10, x2
    4d0c:	d61f0140 	br	x10
    4d10:	d5033f9f 	dsb	sy
    4d14:	8b02014a 	add	x10, x10, x2
    4d18:	d61f0140 	br	x10
    4d1c:	d5033f9f 	dsb	sy
    4d20:	8b02014a 	add	x10, x10, x2
    4d24:	d61f0140 	br	x10
    4d28:	d5033f9f 	dsb	sy
    4d2c:	8b02014a 	add	x10, x10, x2
    4d30:	d61f0140 	br	x10
    4d34:	d5033f9f 	dsb	sy
    4d38:	8b02014a 	add	x10, x10, x2
    4d3c:	d61f0140 	br	x10
    4d40:	d5033f9f 	dsb	sy
    4d44:	8b02014a 	add	x10, x10, x2
    4d48:	d61f0140 	br	x10
    4d4c:	d5033f9f 	dsb	sy
    4d50:	8b02014a 	add	x10, x10, x2
    4d54:	d61f0140 	br	x10
    4d58:	d5033f9f 	dsb	sy
    4d5c:	8b02014a 	add	x10, x10, x2
    4d60:	d61f0140 	br	x10
    4d64:	d5033f9f 	dsb	sy
    4d68:	8b02014a 	add	x10, x10, x2
    4d6c:	d61f0140 	br	x10
    4d70:	d5033f9f 	dsb	sy
    4d74:	8b02014a 	add	x10, x10, x2
    4d78:	d61f0140 	br	x10
    4d7c:	d5033f9f 	dsb	sy
    4d80:	8b02014a 	add	x10, x10, x2
    4d84:	d61f0140 	br	x10
    4d88:	d5033f9f 	dsb	sy
    4d8c:	8b02014a 	add	x10, x10, x2
    4d90:	d61f0140 	br	x10
    4d94:	d5033f9f 	dsb	sy
    4d98:	8b02014a 	add	x10, x10, x2
    4d9c:	d61f0140 	br	x10
    4da0:	d5033f9f 	dsb	sy
    4da4:	8b02014a 	add	x10, x10, x2
    4da8:	d61f0140 	br	x10
    4dac:	d5033f9f 	dsb	sy
    4db0:	8b02014a 	add	x10, x10, x2
    4db4:	d61f0140 	br	x10
    4db8:	d5033f9f 	dsb	sy
    4dbc:	8b02014a 	add	x10, x10, x2
    4dc0:	d61f0140 	br	x10
    4dc4:	d5033f9f 	dsb	sy
    4dc8:	8b02014a 	add	x10, x10, x2
    4dcc:	d61f0140 	br	x10
    4dd0:	d5033f9f 	dsb	sy
    4dd4:	8b02014a 	add	x10, x10, x2
    4dd8:	d61f0140 	br	x10
    4ddc:	d5033f9f 	dsb	sy
    4de0:	8b02014a 	add	x10, x10, x2
    4de4:	d61f0140 	br	x10
    4de8:	d5033f9f 	dsb	sy
    4dec:	8b02014a 	add	x10, x10, x2
    4df0:	d61f0140 	br	x10
    4df4:	d5033f9f 	dsb	sy
    4df8:	8b02014a 	add	x10, x10, x2
    4dfc:	d61f0140 	br	x10
    4e00:	d5033f9f 	dsb	sy
    4e04:	8b02014a 	add	x10, x10, x2
    4e08:	d61f0140 	br	x10
    4e0c:	d5033f9f 	dsb	sy
    4e10:	8b02014a 	add	x10, x10, x2
    4e14:	d61f0140 	br	x10
    4e18:	d5033f9f 	dsb	sy
    4e1c:	8b02014a 	add	x10, x10, x2
    4e20:	d61f0140 	br	x10
    4e24:	d5033f9f 	dsb	sy
    4e28:	8b02014a 	add	x10, x10, x2
    4e2c:	d61f0140 	br	x10
    4e30:	d5033f9f 	dsb	sy
    4e34:	8b02014a 	add	x10, x10, x2
    4e38:	d61f0140 	br	x10
    4e3c:	d5033f9f 	dsb	sy
    4e40:	8b02014a 	add	x10, x10, x2
    4e44:	d61f0140 	br	x10
    4e48:	d5033f9f 	dsb	sy
    4e4c:	8b02014a 	add	x10, x10, x2
    4e50:	d61f0140 	br	x10
    4e54:	d5033f9f 	dsb	sy
    4e58:	8b02014a 	add	x10, x10, x2
    4e5c:	d61f0140 	br	x10
    4e60:	d5033f9f 	dsb	sy
    4e64:	8b02014a 	add	x10, x10, x2
    4e68:	d61f0140 	br	x10
    4e6c:	d5033f9f 	dsb	sy
    4e70:	8b02014a 	add	x10, x10, x2
    4e74:	d61f0140 	br	x10
    4e78:	d5033f9f 	dsb	sy
    4e7c:	8b02014a 	add	x10, x10, x2
    4e80:	d61f0140 	br	x10
    4e84:	d5033f9f 	dsb	sy
    4e88:	8b02014a 	add	x10, x10, x2
    4e8c:	d61f0140 	br	x10
    4e90:	d5033f9f 	dsb	sy
    4e94:	8b02014a 	add	x10, x10, x2
    4e98:	d61f0140 	br	x10
    4e9c:	d5033f9f 	dsb	sy
    4ea0:	8b02014a 	add	x10, x10, x2
    4ea4:	d61f0140 	br	x10
    4ea8:	d5033f9f 	dsb	sy
    4eac:	8b02014a 	add	x10, x10, x2
    4eb0:	d61f0140 	br	x10
    4eb4:	d5033f9f 	dsb	sy
    4eb8:	8b02014a 	add	x10, x10, x2
    4ebc:	d61f0140 	br	x10
    4ec0:	d5033f9f 	dsb	sy
    4ec4:	8b02014a 	add	x10, x10, x2
    4ec8:	d61f0140 	br	x10
    4ecc:	d5033f9f 	dsb	sy
    4ed0:	8b02014a 	add	x10, x10, x2
    4ed4:	d61f0140 	br	x10
    4ed8:	d5033f9f 	dsb	sy
    4edc:	8b02014a 	add	x10, x10, x2
    4ee0:	d61f0140 	br	x10
    4ee4:	d5033f9f 	dsb	sy
    4ee8:	8b02014a 	add	x10, x10, x2
    4eec:	d61f0140 	br	x10
    4ef0:	d5033f9f 	dsb	sy
    4ef4:	8b02014a 	add	x10, x10, x2
    4ef8:	d61f0140 	br	x10
    4efc:	d5033f9f 	dsb	sy
    4f00:	8b02014a 	add	x10, x10, x2
    4f04:	d61f0140 	br	x10
    4f08:	d5033f9f 	dsb	sy
    4f0c:	8b02014a 	add	x10, x10, x2
    4f10:	d61f0140 	br	x10
    4f14:	d5033f9f 	dsb	sy
    4f18:	8b02014a 	add	x10, x10, x2
    4f1c:	d61f0140 	br	x10
    4f20:	d5033f9f 	dsb	sy
    4f24:	8b02014a 	add	x10, x10, x2
    4f28:	d61f0140 	br	x10
    4f2c:	d5033f9f 	dsb	sy
    4f30:	8b02014a 	add	x10, x10, x2
    4f34:	d61f0140 	br	x10
    4f38:	d5033f9f 	dsb	sy
    4f3c:	8b02014a 	add	x10, x10, x2
    4f40:	d61f0140 	br	x10
    4f44:	d5033f9f 	dsb	sy
    4f48:	8b02014a 	add	x10, x10, x2
    4f4c:	d61f0140 	br	x10
    4f50:	d5033f9f 	dsb	sy
    4f54:	8b02014a 	add	x10, x10, x2
    4f58:	d61f0140 	br	x10
    4f5c:	d5033f9f 	dsb	sy
    4f60:	8b02014a 	add	x10, x10, x2
    4f64:	d61f0140 	br	x10
    4f68:	d5033f9f 	dsb	sy
    4f6c:	8b02014a 	add	x10, x10, x2
    4f70:	d61f0140 	br	x10
    4f74:	d5033f9f 	dsb	sy
    4f78:	8b02014a 	add	x10, x10, x2
    4f7c:	d61f0140 	br	x10
    4f80:	d5033f9f 	dsb	sy
    4f84:	8b02014a 	add	x10, x10, x2
    4f88:	d61f0140 	br	x10
    4f8c:	d5033f9f 	dsb	sy
    4f90:	8b02014a 	add	x10, x10, x2
    4f94:	d61f0140 	br	x10
    4f98:	d5033f9f 	dsb	sy
    4f9c:	8b02014a 	add	x10, x10, x2
    4fa0:	d61f0140 	br	x10
    4fa4:	d5033f9f 	dsb	sy
    4fa8:	8b02014a 	add	x10, x10, x2
    4fac:	d61f0140 	br	x10
    4fb0:	d5033f9f 	dsb	sy
    4fb4:	8b02014a 	add	x10, x10, x2
    4fb8:	d61f0140 	br	x10
    4fbc:	d5033f9f 	dsb	sy
    4fc0:	8b02014a 	add	x10, x10, x2
    4fc4:	d61f0140 	br	x10
    4fc8:	d5033f9f 	dsb	sy
    4fcc:	8b02014a 	add	x10, x10, x2
    4fd0:	d61f0140 	br	x10
    4fd4:	d5033f9f 	dsb	sy
    4fd8:	8b02014a 	add	x10, x10, x2
    4fdc:	d61f0140 	br	x10
    4fe0:	d5033f9f 	dsb	sy
    4fe4:	8b02014a 	add	x10, x10, x2
    4fe8:	d61f0140 	br	x10
    4fec:	d5033f9f 	dsb	sy
    4ff0:	8b02014a 	add	x10, x10, x2
    4ff4:	d61f0140 	br	x10
    4ff8:	d5033f9f 	dsb	sy
    4ffc:	8b02014a 	add	x10, x10, x2
    5000:	d61f0140 	br	x10
    5004:	d5033f9f 	dsb	sy
    5008:	8b02014a 	add	x10, x10, x2
    500c:	d61f0140 	br	x10
    5010:	d5033f9f 	dsb	sy
    5014:	8b02014a 	add	x10, x10, x2
    5018:	d61f0140 	br	x10
    501c:	d5033f9f 	dsb	sy
    5020:	8b02014a 	add	x10, x10, x2
    5024:	d61f0140 	br	x10
    5028:	d5033f9f 	dsb	sy
    502c:	8b02014a 	add	x10, x10, x2
    5030:	d61f0140 	br	x10
    5034:	d5033f9f 	dsb	sy
    5038:	8b02014a 	add	x10, x10, x2
    503c:	d61f0140 	br	x10
    5040:	d5033f9f 	dsb	sy
    5044:	8b02014a 	add	x10, x10, x2
    5048:	d61f0140 	br	x10
    504c:	d5033f9f 	dsb	sy
    5050:	8b02014a 	add	x10, x10, x2
    5054:	d61f0140 	br	x10
    5058:	d5033f9f 	dsb	sy
    505c:	8b02014a 	add	x10, x10, x2
    5060:	d61f0140 	br	x10
    5064:	d5033f9f 	dsb	sy
    5068:	8b02014a 	add	x10, x10, x2
    506c:	d61f0140 	br	x10
    5070:	d5033f9f 	dsb	sy
    5074:	8b02014a 	add	x10, x10, x2
    5078:	d61f0140 	br	x10
    507c:	d5033f9f 	dsb	sy
    5080:	8b02014a 	add	x10, x10, x2
    5084:	d61f0140 	br	x10
    5088:	d5033f9f 	dsb	sy
    508c:	8b02014a 	add	x10, x10, x2
    5090:	d61f0140 	br	x10
    5094:	d5033f9f 	dsb	sy
    5098:	8b02014a 	add	x10, x10, x2
    509c:	d61f0140 	br	x10
    50a0:	d5033f9f 	dsb	sy
    50a4:	8b02014a 	add	x10, x10, x2
    50a8:	d61f0140 	br	x10
    50ac:	d5033f9f 	dsb	sy
    50b0:	8b02014a 	add	x10, x10, x2
    50b4:	d61f0140 	br	x10
    50b8:	d5033f9f 	dsb	sy
    50bc:	8b02014a 	add	x10, x10, x2
    50c0:	d61f0140 	br	x10
    50c4:	d5033f9f 	dsb	sy
    50c8:	8b02014a 	add	x10, x10, x2
    50cc:	d61f0140 	br	x10
    50d0:	d5033f9f 	dsb	sy
    50d4:	8b02014a 	add	x10, x10, x2
    50d8:	d61f0140 	br	x10
    50dc:	d5033f9f 	dsb	sy
    50e0:	8b02014a 	add	x10, x10, x2
    50e4:	d61f0140 	br	x10
    50e8:	d5033f9f 	dsb	sy
    50ec:	8b02014a 	add	x10, x10, x2
    50f0:	d61f0140 	br	x10
    50f4:	d5033f9f 	dsb	sy
    50f8:	8b02014a 	add	x10, x10, x2
    50fc:	d61f0140 	br	x10
    5100:	d5033f9f 	dsb	sy
    5104:	8b02014a 	add	x10, x10, x2
    5108:	d61f0140 	br	x10
    510c:	d5033f9f 	dsb	sy
    5110:	8b02014a 	add	x10, x10, x2
    5114:	d61f0140 	br	x10
    5118:	d5033f9f 	dsb	sy
    511c:	8b02014a 	add	x10, x10, x2
    5120:	d61f0140 	br	x10
    5124:	d5033f9f 	dsb	sy
    5128:	8b02014a 	add	x10, x10, x2
    512c:	d61f0140 	br	x10
    5130:	d5033f9f 	dsb	sy
    5134:	8b02014a 	add	x10, x10, x2
    5138:	d61f0140 	br	x10
    513c:	d5033f9f 	dsb	sy
    5140:	8b02014a 	add	x10, x10, x2
    5144:	d61f0140 	br	x10
    5148:	d5033f9f 	dsb	sy
    514c:	8b02014a 	add	x10, x10, x2
    5150:	d61f0140 	br	x10
    5154:	d5033f9f 	dsb	sy
    5158:	8b02014a 	add	x10, x10, x2
    515c:	d61f0140 	br	x10
    5160:	d5033f9f 	dsb	sy
    5164:	8b02014a 	add	x10, x10, x2
    5168:	d61f0140 	br	x10
    516c:	d5033f9f 	dsb	sy
    5170:	8b02014a 	add	x10, x10, x2
    5174:	d61f0140 	br	x10
    5178:	d5033f9f 	dsb	sy
    517c:	8b02014a 	add	x10, x10, x2
    5180:	d61f0140 	br	x10
    5184:	d5033f9f 	dsb	sy
    5188:	8b02014a 	add	x10, x10, x2
    518c:	d61f0140 	br	x10
    5190:	d5033f9f 	dsb	sy
    5194:	8b02014a 	add	x10, x10, x2
    5198:	d61f0140 	br	x10
    519c:	d5033f9f 	dsb	sy
    51a0:	8b02014a 	add	x10, x10, x2
    51a4:	d61f0140 	br	x10
    51a8:	d5033f9f 	dsb	sy
    51ac:	8b02014a 	add	x10, x10, x2
    51b0:	d61f0140 	br	x10
    51b4:	d5033f9f 	dsb	sy
    51b8:	8b02014a 	add	x10, x10, x2
    51bc:	d61f0140 	br	x10
    51c0:	d5033f9f 	dsb	sy
    51c4:	8b02014a 	add	x10, x10, x2
    51c8:	d61f0140 	br	x10
    51cc:	d5033f9f 	dsb	sy
    51d0:	8b02014a 	add	x10, x10, x2
    51d4:	d61f0140 	br	x10
    51d8:	d5033f9f 	dsb	sy
    51dc:	8b02014a 	add	x10, x10, x2
    51e0:	d61f0140 	br	x10
    51e4:	d5033f9f 	dsb	sy
    51e8:	8b02014a 	add	x10, x10, x2
    51ec:	d61f0140 	br	x10
    51f0:	d5033f9f 	dsb	sy
    51f4:	8b02014a 	add	x10, x10, x2
    51f8:	d61f0140 	br	x10
    51fc:	d5033f9f 	dsb	sy
    5200:	8b02014a 	add	x10, x10, x2
    5204:	d61f0140 	br	x10
    5208:	d5033f9f 	dsb	sy
    520c:	8b02014a 	add	x10, x10, x2
    5210:	d61f0140 	br	x10
    5214:	d5033f9f 	dsb	sy
    5218:	8b02014a 	add	x10, x10, x2
    521c:	d61f0140 	br	x10
    5220:	d5033f9f 	dsb	sy
    5224:	8b02014a 	add	x10, x10, x2
    5228:	d61f0140 	br	x10
    522c:	d5033f9f 	dsb	sy
    5230:	8b02014a 	add	x10, x10, x2
    5234:	d61f0140 	br	x10
    5238:	d5033f9f 	dsb	sy
    523c:	8b02014a 	add	x10, x10, x2
    5240:	d61f0140 	br	x10
    5244:	d5033f9f 	dsb	sy
    5248:	8b02014a 	add	x10, x10, x2
    524c:	d61f0140 	br	x10
    5250:	d5033f9f 	dsb	sy
    5254:	8b02014a 	add	x10, x10, x2
    5258:	d61f0140 	br	x10
    525c:	d5033f9f 	dsb	sy
    5260:	8b02014a 	add	x10, x10, x2
    5264:	d61f0140 	br	x10
    5268:	d5033f9f 	dsb	sy
    526c:	8b02014a 	add	x10, x10, x2
    5270:	d61f0140 	br	x10
    5274:	d5033f9f 	dsb	sy
    5278:	8b02014a 	add	x10, x10, x2
    527c:	d61f0140 	br	x10
    5280:	d5033f9f 	dsb	sy
    5284:	8b02014a 	add	x10, x10, x2
    5288:	d61f0140 	br	x10
    528c:	d5033f9f 	dsb	sy
    5290:	8b02014a 	add	x10, x10, x2
    5294:	d61f0140 	br	x10
    5298:	d5033f9f 	dsb	sy
    529c:	8b02014a 	add	x10, x10, x2
    52a0:	d61f0140 	br	x10
    52a4:	d5033f9f 	dsb	sy
    52a8:	8b02014a 	add	x10, x10, x2
    52ac:	d61f0140 	br	x10
    52b0:	d5033f9f 	dsb	sy
    52b4:	8b02014a 	add	x10, x10, x2
    52b8:	d61f0140 	br	x10
    52bc:	d5033f9f 	dsb	sy
    52c0:	8b02014a 	add	x10, x10, x2
    52c4:	d61f0140 	br	x10
    52c8:	d5033f9f 	dsb	sy
    52cc:	8b02014a 	add	x10, x10, x2
    52d0:	d61f0140 	br	x10
    52d4:	d5033f9f 	dsb	sy
    52d8:	8b02014a 	add	x10, x10, x2
    52dc:	d61f0140 	br	x10
    52e0:	d5033f9f 	dsb	sy
    52e4:	8b02014a 	add	x10, x10, x2
    52e8:	d61f0140 	br	x10
    52ec:	d5033f9f 	dsb	sy
    52f0:	8b02014a 	add	x10, x10, x2
    52f4:	d61f0140 	br	x10
    52f8:	d5033f9f 	dsb	sy
    52fc:	8b02014a 	add	x10, x10, x2
    5300:	d61f0140 	br	x10
    5304:	d5033f9f 	dsb	sy
    5308:	8b02014a 	add	x10, x10, x2
    530c:	d61f0140 	br	x10
    5310:	d5033f9f 	dsb	sy
    5314:	8b02014a 	add	x10, x10, x2
    5318:	d61f0140 	br	x10
    531c:	d5033f9f 	dsb	sy
    5320:	8b02014a 	add	x10, x10, x2
    5324:	d61f0140 	br	x10
    5328:	d5033f9f 	dsb	sy
    532c:	8b02014a 	add	x10, x10, x2
    5330:	d61f0140 	br	x10
    5334:	d5033f9f 	dsb	sy
    5338:	8b02014a 	add	x10, x10, x2
    533c:	d61f0140 	br	x10
    5340:	d5033f9f 	dsb	sy
    5344:	8b02014a 	add	x10, x10, x2
    5348:	d61f0140 	br	x10
    534c:	d5033f9f 	dsb	sy
    5350:	8b02014a 	add	x10, x10, x2
    5354:	d61f0140 	br	x10
    5358:	d5033f9f 	dsb	sy
    535c:	8b02014a 	add	x10, x10, x2
    5360:	d61f0140 	br	x10
    5364:	d5033f9f 	dsb	sy
    5368:	8b02014a 	add	x10, x10, x2
    536c:	d61f0140 	br	x10
    5370:	d5033f9f 	dsb	sy
    5374:	8b02014a 	add	x10, x10, x2
    5378:	d61f0140 	br	x10
    537c:	d5033f9f 	dsb	sy
    5380:	8b02014a 	add	x10, x10, x2
    5384:	d61f0140 	br	x10
    5388:	d5033f9f 	dsb	sy
    538c:	8b02014a 	add	x10, x10, x2
    5390:	d61f0140 	br	x10
    5394:	d5033f9f 	dsb	sy
    5398:	8b02014a 	add	x10, x10, x2
    539c:	d61f0140 	br	x10
    53a0:	d5033f9f 	dsb	sy
    53a4:	8b02014a 	add	x10, x10, x2
    53a8:	d61f0140 	br	x10
    53ac:	d5033f9f 	dsb	sy
    53b0:	8b02014a 	add	x10, x10, x2
    53b4:	d61f0140 	br	x10
    53b8:	d5033f9f 	dsb	sy
    53bc:	8b02014a 	add	x10, x10, x2
    53c0:	d61f0140 	br	x10
    53c4:	d5033f9f 	dsb	sy
    53c8:	8b02014a 	add	x10, x10, x2
    53cc:	d61f0140 	br	x10
    53d0:	d5033f9f 	dsb	sy
    53d4:	8b02014a 	add	x10, x10, x2
    53d8:	d61f0140 	br	x10
    53dc:	d5033f9f 	dsb	sy
    53e0:	8b02014a 	add	x10, x10, x2
    53e4:	d61f0140 	br	x10
    53e8:	d5033f9f 	dsb	sy
    53ec:	8b02014a 	add	x10, x10, x2
    53f0:	d61f0140 	br	x10
    53f4:	d5033f9f 	dsb	sy
    53f8:	8b02014a 	add	x10, x10, x2
    53fc:	d61f0140 	br	x10
    5400:	d5033f9f 	dsb	sy
    5404:	8b02014a 	add	x10, x10, x2
    5408:	d61f0140 	br	x10
    540c:	d5033f9f 	dsb	sy
    5410:	8b02014a 	add	x10, x10, x2
    5414:	d61f0140 	br	x10
    5418:	d5033f9f 	dsb	sy
    541c:	8b02014a 	add	x10, x10, x2
    5420:	d61f0140 	br	x10
    5424:	d5033f9f 	dsb	sy
    5428:	8b02014a 	add	x10, x10, x2
    542c:	d61f0140 	br	x10
    5430:	d5033f9f 	dsb	sy
    5434:	8b02014a 	add	x10, x10, x2
    5438:	d61f0140 	br	x10
    543c:	d5033f9f 	dsb	sy
    5440:	8b02014a 	add	x10, x10, x2
    5444:	d61f0140 	br	x10
    5448:	d5033f9f 	dsb	sy
    544c:	8b02014a 	add	x10, x10, x2
    5450:	d61f0140 	br	x10
    5454:	d5033f9f 	dsb	sy
    5458:	8b02014a 	add	x10, x10, x2
    545c:	d61f0140 	br	x10
    5460:	d5033f9f 	dsb	sy
    5464:	8b02014a 	add	x10, x10, x2
    5468:	d61f0140 	br	x10
    546c:	d5033f9f 	dsb	sy
    5470:	8b02014a 	add	x10, x10, x2
    5474:	d61f0140 	br	x10
    5478:	d5033f9f 	dsb	sy
    547c:	8b02014a 	add	x10, x10, x2
    5480:	d61f0140 	br	x10
    5484:	d5033f9f 	dsb	sy
    5488:	8b02014a 	add	x10, x10, x2
    548c:	d61f0140 	br	x10
    5490:	d5033f9f 	dsb	sy
    5494:	8b02014a 	add	x10, x10, x2
    5498:	d61f0140 	br	x10
    549c:	d5033f9f 	dsb	sy
    54a0:	8b02014a 	add	x10, x10, x2
    54a4:	d61f0140 	br	x10
    54a8:	d5033f9f 	dsb	sy
    54ac:	8b02014a 	add	x10, x10, x2
    54b0:	d61f0140 	br	x10
    54b4:	d5033f9f 	dsb	sy
    54b8:	8b02014a 	add	x10, x10, x2
    54bc:	d61f0140 	br	x10
    54c0:	d5033f9f 	dsb	sy
    54c4:	8b02014a 	add	x10, x10, x2
    54c8:	d61f0140 	br	x10
    54cc:	d5033f9f 	dsb	sy
    54d0:	8b02014a 	add	x10, x10, x2
    54d4:	d61f0140 	br	x10
    54d8:	d5033f9f 	dsb	sy
    54dc:	8b02014a 	add	x10, x10, x2
    54e0:	d61f0140 	br	x10
    54e4:	d5033f9f 	dsb	sy
    54e8:	8b02014a 	add	x10, x10, x2
    54ec:	d61f0140 	br	x10
    54f0:	d5033f9f 	dsb	sy
    54f4:	8b02014a 	add	x10, x10, x2
    54f8:	d61f0140 	br	x10
    54fc:	d5033f9f 	dsb	sy
    5500:	8b02014a 	add	x10, x10, x2
    5504:	d61f0140 	br	x10
    5508:	d5033f9f 	dsb	sy
    550c:	8b02014a 	add	x10, x10, x2
    5510:	d61f0140 	br	x10
    5514:	d5033f9f 	dsb	sy
    5518:	8b02014a 	add	x10, x10, x2
    551c:	d61f0140 	br	x10
    5520:	d5033f9f 	dsb	sy
    5524:	8b02014a 	add	x10, x10, x2
    5528:	d61f0140 	br	x10
    552c:	d5033f9f 	dsb	sy
    5530:	8b02014a 	add	x10, x10, x2
    5534:	d61f0140 	br	x10
    5538:	d5033f9f 	dsb	sy
    553c:	8b02014a 	add	x10, x10, x2
    5540:	d61f0140 	br	x10
    5544:	d5033f9f 	dsb	sy
    5548:	8b02014a 	add	x10, x10, x2
    554c:	d61f0140 	br	x10
    5550:	d5033f9f 	dsb	sy
    5554:	8b02014a 	add	x10, x10, x2
    5558:	d61f0140 	br	x10
    555c:	d5033f9f 	dsb	sy
    5560:	8b02014a 	add	x10, x10, x2
    5564:	d61f0140 	br	x10
    5568:	d5033f9f 	dsb	sy
    556c:	8b02014a 	add	x10, x10, x2
    5570:	d61f0140 	br	x10
    5574:	d5033f9f 	dsb	sy
    5578:	8b02014a 	add	x10, x10, x2
    557c:	d61f0140 	br	x10
    5580:	d5033f9f 	dsb	sy
    5584:	8b02014a 	add	x10, x10, x2
    5588:	d61f0140 	br	x10
    558c:	d5033f9f 	dsb	sy
    5590:	8b02014a 	add	x10, x10, x2
    5594:	d61f0140 	br	x10
    5598:	d5033f9f 	dsb	sy
    559c:	8b02014a 	add	x10, x10, x2
    55a0:	d61f0140 	br	x10
    55a4:	d5033f9f 	dsb	sy
    55a8:	8b02014a 	add	x10, x10, x2
    55ac:	d61f0140 	br	x10
    55b0:	d5033f9f 	dsb	sy
    55b4:	8b02014a 	add	x10, x10, x2
    55b8:	d61f0140 	br	x10
    55bc:	d5033f9f 	dsb	sy
    55c0:	8b02014a 	add	x10, x10, x2
    55c4:	d61f0140 	br	x10
    55c8:	d5033f9f 	dsb	sy
    55cc:	8b02014a 	add	x10, x10, x2
    55d0:	d61f0140 	br	x10
    55d4:	d5033f9f 	dsb	sy
    55d8:	8b02014a 	add	x10, x10, x2
    55dc:	d61f0140 	br	x10
    55e0:	d5033f9f 	dsb	sy
    55e4:	8b02014a 	add	x10, x10, x2
    55e8:	d61f0140 	br	x10
    55ec:	d5033f9f 	dsb	sy
    55f0:	8b02014a 	add	x10, x10, x2
    55f4:	d61f0140 	br	x10
    55f8:	d5033f9f 	dsb	sy
    55fc:	8b02014a 	add	x10, x10, x2
    5600:	d61f0140 	br	x10
    5604:	d5033f9f 	dsb	sy
    5608:	8b02014a 	add	x10, x10, x2
    560c:	d61f0140 	br	x10
    5610:	d5033f9f 	dsb	sy
    5614:	8b02014a 	add	x10, x10, x2
    5618:	d61f0140 	br	x10
    561c:	d5033f9f 	dsb	sy
    5620:	8b02014a 	add	x10, x10, x2
    5624:	d61f0140 	br	x10
    5628:	d5033f9f 	dsb	sy
    562c:	8b02014a 	add	x10, x10, x2
    5630:	d61f0140 	br	x10
    5634:	d5033f9f 	dsb	sy
    5638:	8b02014a 	add	x10, x10, x2
    563c:	d61f0140 	br	x10
    5640:	d5033f9f 	dsb	sy
    5644:	8b02014a 	add	x10, x10, x2
    5648:	d61f0140 	br	x10
    564c:	d5033f9f 	dsb	sy
    5650:	8b02014a 	add	x10, x10, x2
    5654:	d61f0140 	br	x10
    5658:	d5033f9f 	dsb	sy
    565c:	8b02014a 	add	x10, x10, x2
    5660:	d61f0140 	br	x10
    5664:	d5033f9f 	dsb	sy
    5668:	8b02014a 	add	x10, x10, x2
    566c:	d61f0140 	br	x10
    5670:	d5033f9f 	dsb	sy
    5674:	8b02014a 	add	x10, x10, x2
    5678:	d61f0140 	br	x10
    567c:	d5033f9f 	dsb	sy
    5680:	8b02014a 	add	x10, x10, x2
    5684:	d61f0140 	br	x10
    5688:	d5033f9f 	dsb	sy
    568c:	8b02014a 	add	x10, x10, x2
    5690:	d61f0140 	br	x10
    5694:	d5033f9f 	dsb	sy
    5698:	8b02014a 	add	x10, x10, x2
    569c:	d61f0140 	br	x10
    56a0:	d5033f9f 	dsb	sy
    56a4:	8b02014a 	add	x10, x10, x2
    56a8:	d61f0140 	br	x10
    56ac:	d5033f9f 	dsb	sy
    56b0:	8b02014a 	add	x10, x10, x2
    56b4:	d61f0140 	br	x10
    56b8:	d5033f9f 	dsb	sy
    56bc:	8b02014a 	add	x10, x10, x2
    56c0:	d61f0140 	br	x10
    56c4:	d5033f9f 	dsb	sy
    56c8:	8b02014a 	add	x10, x10, x2
    56cc:	d61f0140 	br	x10
    56d0:	d5033f9f 	dsb	sy
    56d4:	8b02014a 	add	x10, x10, x2
    56d8:	d61f0140 	br	x10
    56dc:	d5033f9f 	dsb	sy
    56e0:	8b02014a 	add	x10, x10, x2
    56e4:	d61f0140 	br	x10
    56e8:	d5033f9f 	dsb	sy
    56ec:	8b02014a 	add	x10, x10, x2
    56f0:	d61f0140 	br	x10
    56f4:	d5033f9f 	dsb	sy
    56f8:	8b02014a 	add	x10, x10, x2
    56fc:	d61f0140 	br	x10
    5700:	d5033f9f 	dsb	sy
    5704:	8b02014a 	add	x10, x10, x2
    5708:	d61f0140 	br	x10
    570c:	d5033f9f 	dsb	sy
    5710:	8b02014a 	add	x10, x10, x2
    5714:	d61f0140 	br	x10
    5718:	d5033f9f 	dsb	sy
    571c:	8b02014a 	add	x10, x10, x2
    5720:	d61f0140 	br	x10
    5724:	d5033f9f 	dsb	sy
    5728:	8b02014a 	add	x10, x10, x2
    572c:	d61f0140 	br	x10
    5730:	d5033f9f 	dsb	sy
    5734:	8b02014a 	add	x10, x10, x2
    5738:	d61f0140 	br	x10
    573c:	d5033f9f 	dsb	sy
    5740:	8b02014a 	add	x10, x10, x2
    5744:	d61f0140 	br	x10
    5748:	d5033f9f 	dsb	sy
    574c:	8b02014a 	add	x10, x10, x2
    5750:	d61f0140 	br	x10
    5754:	d5033f9f 	dsb	sy
    5758:	8b02014a 	add	x10, x10, x2
    575c:	d61f0140 	br	x10
    5760:	d5033f9f 	dsb	sy
    5764:	8b02014a 	add	x10, x10, x2
    5768:	d61f0140 	br	x10
    576c:	d5033f9f 	dsb	sy
    5770:	8b02014a 	add	x10, x10, x2
    5774:	d61f0140 	br	x10
    5778:	d5033f9f 	dsb	sy
    577c:	8b02014a 	add	x10, x10, x2
    5780:	d61f0140 	br	x10
    5784:	d5033f9f 	dsb	sy
    5788:	8b02014a 	add	x10, x10, x2
    578c:	d61f0140 	br	x10
    5790:	d5033f9f 	dsb	sy
    5794:	8b02014a 	add	x10, x10, x2
    5798:	d61f0140 	br	x10
    579c:	d5033f9f 	dsb	sy
    57a0:	8b02014a 	add	x10, x10, x2
    57a4:	d61f0140 	br	x10
    57a8:	d5033f9f 	dsb	sy
    57ac:	8b02014a 	add	x10, x10, x2
    57b0:	d61f0140 	br	x10
    57b4:	d5033f9f 	dsb	sy
    57b8:	8b02014a 	add	x10, x10, x2
    57bc:	d61f0140 	br	x10
    57c0:	d5033f9f 	dsb	sy
    57c4:	8b02014a 	add	x10, x10, x2
    57c8:	d61f0140 	br	x10
    57cc:	d5033f9f 	dsb	sy
    57d0:	8b02014a 	add	x10, x10, x2
    57d4:	d61f0140 	br	x10
    57d8:	d5033f9f 	dsb	sy
    57dc:	8b02014a 	add	x10, x10, x2
    57e0:	d61f0140 	br	x10
    57e4:	d5033f9f 	dsb	sy
    57e8:	8b02014a 	add	x10, x10, x2
    57ec:	d61f0140 	br	x10
    57f0:	d5033f9f 	dsb	sy
    57f4:	8b02014a 	add	x10, x10, x2
    57f8:	d61f0140 	br	x10
    57fc:	d5033f9f 	dsb	sy
    5800:	8b02014a 	add	x10, x10, x2
    5804:	d61f0140 	br	x10
    5808:	d5033f9f 	dsb	sy
    580c:	8b02014a 	add	x10, x10, x2
    5810:	d61f0140 	br	x10
    5814:	d5033f9f 	dsb	sy
    5818:	8b02014a 	add	x10, x10, x2
    581c:	d61f0140 	br	x10
    5820:	d5033f9f 	dsb	sy
    5824:	8b02014a 	add	x10, x10, x2
    5828:	d61f0140 	br	x10
    582c:	d5033f9f 	dsb	sy
    5830:	8b02014a 	add	x10, x10, x2
    5834:	d61f0140 	br	x10
    5838:	d5033f9f 	dsb	sy
    583c:	8b02014a 	add	x10, x10, x2
    5840:	d61f0140 	br	x10
    5844:	d5033f9f 	dsb	sy
    5848:	8b02014a 	add	x10, x10, x2
    584c:	d61f0140 	br	x10
    5850:	d5033f9f 	dsb	sy
    5854:	8b02014a 	add	x10, x10, x2
    5858:	d61f0140 	br	x10
    585c:	d5033f9f 	dsb	sy
    5860:	8b02014a 	add	x10, x10, x2
    5864:	d61f0140 	br	x10
    5868:	d5033f9f 	dsb	sy
    586c:	8b02014a 	add	x10, x10, x2
    5870:	d61f0140 	br	x10
    5874:	d5033f9f 	dsb	sy
    5878:	8b02014a 	add	x10, x10, x2
    587c:	d61f0140 	br	x10
    5880:	d5033f9f 	dsb	sy
    5884:	8b02014a 	add	x10, x10, x2
    5888:	d61f0140 	br	x10
    588c:	d5033f9f 	dsb	sy
    5890:	8b02014a 	add	x10, x10, x2
    5894:	d61f0140 	br	x10
    5898:	d5033f9f 	dsb	sy
    589c:	8b02014a 	add	x10, x10, x2
    58a0:	d61f0140 	br	x10
    58a4:	d5033f9f 	dsb	sy
    58a8:	8b02014a 	add	x10, x10, x2
    58ac:	d61f0140 	br	x10
    58b0:	d5033f9f 	dsb	sy
    58b4:	8b02014a 	add	x10, x10, x2
    58b8:	d61f0140 	br	x10
    58bc:	d5033f9f 	dsb	sy
    58c0:	8b02014a 	add	x10, x10, x2
    58c4:	d61f0140 	br	x10
    58c8:	d5033f9f 	dsb	sy
    58cc:	8b02014a 	add	x10, x10, x2
    58d0:	d61f0140 	br	x10
    58d4:	d5033f9f 	dsb	sy
    58d8:	8b02014a 	add	x10, x10, x2
    58dc:	d61f0140 	br	x10
    58e0:	d5033f9f 	dsb	sy
    58e4:	8b02014a 	add	x10, x10, x2
    58e8:	d61f0140 	br	x10
    58ec:	d5033f9f 	dsb	sy
    58f0:	8b02014a 	add	x10, x10, x2
    58f4:	d61f0140 	br	x10
    58f8:	d5033f9f 	dsb	sy
    58fc:	8b02014a 	add	x10, x10, x2
    5900:	d61f0140 	br	x10
    5904:	d5033f9f 	dsb	sy
    5908:	8b02014a 	add	x10, x10, x2
    590c:	d61f0140 	br	x10
    5910:	d5033f9f 	dsb	sy
    5914:	8b02014a 	add	x10, x10, x2
    5918:	d61f0140 	br	x10
    591c:	d5033f9f 	dsb	sy
    5920:	8b02014a 	add	x10, x10, x2
    5924:	d61f0140 	br	x10
    5928:	d5033f9f 	dsb	sy
    592c:	8b02014a 	add	x10, x10, x2
    5930:	d61f0140 	br	x10
    5934:	d5033f9f 	dsb	sy
    5938:	8b02014a 	add	x10, x10, x2
    593c:	d61f0140 	br	x10
    5940:	d5033f9f 	dsb	sy
    5944:	8b02014a 	add	x10, x10, x2
    5948:	d61f0140 	br	x10
    594c:	d5033f9f 	dsb	sy
    5950:	8b02014a 	add	x10, x10, x2
    5954:	d61f0140 	br	x10
    5958:	d5033f9f 	dsb	sy
    595c:	8b02014a 	add	x10, x10, x2
    5960:	d61f0140 	br	x10
    5964:	d5033f9f 	dsb	sy
    5968:	8b02014a 	add	x10, x10, x2
    596c:	d61f0140 	br	x10
    5970:	d5033f9f 	dsb	sy
    5974:	8b02014a 	add	x10, x10, x2
    5978:	d61f0140 	br	x10
    597c:	d5033f9f 	dsb	sy
    5980:	8b02014a 	add	x10, x10, x2
    5984:	d61f0140 	br	x10
    5988:	d5033f9f 	dsb	sy
    598c:	8b02014a 	add	x10, x10, x2
    5990:	d61f0140 	br	x10
    5994:	d5033f9f 	dsb	sy
    5998:	8b02014a 	add	x10, x10, x2
    599c:	d61f0140 	br	x10
    59a0:	d5033f9f 	dsb	sy
    59a4:	8b02014a 	add	x10, x10, x2
    59a8:	d61f0140 	br	x10
    59ac:	d5033f9f 	dsb	sy
    59b0:	8b02014a 	add	x10, x10, x2
    59b4:	d61f0140 	br	x10
    59b8:	d5033f9f 	dsb	sy
    59bc:	8b02014a 	add	x10, x10, x2
    59c0:	d61f0140 	br	x10
    59c4:	d5033f9f 	dsb	sy
    59c8:	8b02014a 	add	x10, x10, x2
    59cc:	d61f0140 	br	x10
    59d0:	d5033f9f 	dsb	sy
    59d4:	8b02014a 	add	x10, x10, x2
    59d8:	d61f0140 	br	x10
    59dc:	d5033f9f 	dsb	sy
    59e0:	8b02014a 	add	x10, x10, x2
    59e4:	d61f0140 	br	x10
    59e8:	d5033f9f 	dsb	sy
    59ec:	8b02014a 	add	x10, x10, x2
    59f0:	d61f0140 	br	x10
    59f4:	d5033f9f 	dsb	sy
    59f8:	8b02014a 	add	x10, x10, x2
    59fc:	d61f0140 	br	x10
    5a00:	d5033f9f 	dsb	sy
    5a04:	8b02014a 	add	x10, x10, x2
    5a08:	d61f0140 	br	x10
    5a0c:	d5033f9f 	dsb	sy
    5a10:	8b02014a 	add	x10, x10, x2
    5a14:	d61f0140 	br	x10
    5a18:	d5033f9f 	dsb	sy
    5a1c:	8b02014a 	add	x10, x10, x2
    5a20:	d61f0140 	br	x10
    5a24:	d5033f9f 	dsb	sy
    5a28:	8b02014a 	add	x10, x10, x2
    5a2c:	d61f0140 	br	x10
    5a30:	d5033f9f 	dsb	sy
    5a34:	8b02014a 	add	x10, x10, x2
    5a38:	d61f0140 	br	x10
    5a3c:	d5033f9f 	dsb	sy
    5a40:	8b02014a 	add	x10, x10, x2
    5a44:	d61f0140 	br	x10
    5a48:	d5033f9f 	dsb	sy
    5a4c:	8b02014a 	add	x10, x10, x2
    5a50:	d61f0140 	br	x10
    5a54:	d5033f9f 	dsb	sy
    5a58:	8b02014a 	add	x10, x10, x2
    5a5c:	d61f0140 	br	x10
    5a60:	d5033f9f 	dsb	sy
    5a64:	8b02014a 	add	x10, x10, x2
    5a68:	d61f0140 	br	x10
    5a6c:	d5033f9f 	dsb	sy
    5a70:	8b02014a 	add	x10, x10, x2
    5a74:	d61f0140 	br	x10
    5a78:	d5033f9f 	dsb	sy
    5a7c:	8b02014a 	add	x10, x10, x2
    5a80:	d61f0140 	br	x10
    5a84:	d5033f9f 	dsb	sy
    5a88:	8b02014a 	add	x10, x10, x2
    5a8c:	d61f0140 	br	x10
    5a90:	d5033f9f 	dsb	sy
    5a94:	8b02014a 	add	x10, x10, x2
    5a98:	d61f0140 	br	x10
    5a9c:	d5033f9f 	dsb	sy
    5aa0:	8b02014a 	add	x10, x10, x2
    5aa4:	d61f0140 	br	x10
    5aa8:	d5033f9f 	dsb	sy
    5aac:	8b02014a 	add	x10, x10, x2
    5ab0:	d61f0140 	br	x10
    5ab4:	d5033f9f 	dsb	sy
    5ab8:	8b02014a 	add	x10, x10, x2
    5abc:	d61f0140 	br	x10
    5ac0:	d5033f9f 	dsb	sy
    5ac4:	8b02014a 	add	x10, x10, x2
    5ac8:	d61f0140 	br	x10
    5acc:	d5033f9f 	dsb	sy
    5ad0:	8b02014a 	add	x10, x10, x2
    5ad4:	d61f0140 	br	x10
    5ad8:	d5033f9f 	dsb	sy
    5adc:	8b02014a 	add	x10, x10, x2
    5ae0:	d61f0140 	br	x10
    5ae4:	d5033f9f 	dsb	sy
    5ae8:	8b02014a 	add	x10, x10, x2
    5aec:	d61f0140 	br	x10
    5af0:	d5033f9f 	dsb	sy
    5af4:	8b02014a 	add	x10, x10, x2
    5af8:	d61f0140 	br	x10
    5afc:	d5033f9f 	dsb	sy
    5b00:	8b02014a 	add	x10, x10, x2
    5b04:	d61f0140 	br	x10
    5b08:	d5033f9f 	dsb	sy
    5b0c:	8b02014a 	add	x10, x10, x2
    5b10:	d61f0140 	br	x10
    5b14:	d5033f9f 	dsb	sy
    5b18:	8b02014a 	add	x10, x10, x2
    5b1c:	d61f0140 	br	x10
    5b20:	d5033f9f 	dsb	sy
    5b24:	8b02014a 	add	x10, x10, x2
    5b28:	d61f0140 	br	x10
    5b2c:	d5033f9f 	dsb	sy
    5b30:	8b02014a 	add	x10, x10, x2
    5b34:	d61f0140 	br	x10
    5b38:	d5033f9f 	dsb	sy
    5b3c:	8b02014a 	add	x10, x10, x2
    5b40:	d61f0140 	br	x10
    5b44:	d5033f9f 	dsb	sy
    5b48:	8b02014a 	add	x10, x10, x2
    5b4c:	d61f0140 	br	x10
    5b50:	d5033f9f 	dsb	sy
    5b54:	8b02014a 	add	x10, x10, x2
    5b58:	d61f0140 	br	x10
    5b5c:	d5033f9f 	dsb	sy
    5b60:	8b02014a 	add	x10, x10, x2
    5b64:	d61f0140 	br	x10
    5b68:	d5033f9f 	dsb	sy
    5b6c:	8b02014a 	add	x10, x10, x2
    5b70:	d61f0140 	br	x10
    5b74:	d5033f9f 	dsb	sy
    5b78:	8b02014a 	add	x10, x10, x2
    5b7c:	d61f0140 	br	x10
    5b80:	d5033f9f 	dsb	sy
    5b84:	8b02014a 	add	x10, x10, x2
    5b88:	d61f0140 	br	x10
    5b8c:	d5033f9f 	dsb	sy
    5b90:	8b02014a 	add	x10, x10, x2
    5b94:	d61f0140 	br	x10
    5b98:	d5033f9f 	dsb	sy
    5b9c:	8b02014a 	add	x10, x10, x2
    5ba0:	d61f0140 	br	x10
    5ba4:	d5033f9f 	dsb	sy
    5ba8:	8b02014a 	add	x10, x10, x2
    5bac:	d61f0140 	br	x10
    5bb0:	d5033f9f 	dsb	sy
    5bb4:	8b02014a 	add	x10, x10, x2
    5bb8:	d61f0140 	br	x10
    5bbc:	d5033f9f 	dsb	sy
    5bc0:	8b02014a 	add	x10, x10, x2
    5bc4:	d61f0140 	br	x10
    5bc8:	d5033f9f 	dsb	sy
    5bcc:	8b02014a 	add	x10, x10, x2
    5bd0:	d61f0140 	br	x10
    5bd4:	d5033f9f 	dsb	sy
    5bd8:	8b02014a 	add	x10, x10, x2
    5bdc:	d61f0140 	br	x10
    5be0:	d5033f9f 	dsb	sy
    5be4:	8b02014a 	add	x10, x10, x2
    5be8:	d61f0140 	br	x10
    5bec:	d5033f9f 	dsb	sy
    5bf0:	8b02014a 	add	x10, x10, x2
    5bf4:	d61f0140 	br	x10
    5bf8:	d5033f9f 	dsb	sy
    5bfc:	8b02014a 	add	x10, x10, x2
    5c00:	d61f0140 	br	x10
    5c04:	d5033f9f 	dsb	sy
    5c08:	8b02014a 	add	x10, x10, x2
    5c0c:	d61f0140 	br	x10
    5c10:	d5033f9f 	dsb	sy
    5c14:	8b02014a 	add	x10, x10, x2
    5c18:	d61f0140 	br	x10
    5c1c:	d5033f9f 	dsb	sy
    5c20:	8b02014a 	add	x10, x10, x2
    5c24:	d61f0140 	br	x10
    5c28:	d5033f9f 	dsb	sy
    5c2c:	8b02014a 	add	x10, x10, x2
    5c30:	d61f0140 	br	x10
    5c34:	d5033f9f 	dsb	sy
    5c38:	8b02014a 	add	x10, x10, x2
    5c3c:	d61f0140 	br	x10
    5c40:	d5033f9f 	dsb	sy
    5c44:	8b02014a 	add	x10, x10, x2
    5c48:	d61f0140 	br	x10
    5c4c:	d5033f9f 	dsb	sy
    5c50:	8b02014a 	add	x10, x10, x2
    5c54:	d61f0140 	br	x10
    5c58:	d5033f9f 	dsb	sy
    5c5c:	8b02014a 	add	x10, x10, x2
    5c60:	d61f0140 	br	x10
    5c64:	d5033f9f 	dsb	sy
    5c68:	8b02014a 	add	x10, x10, x2
    5c6c:	d61f0140 	br	x10
    5c70:	d5033f9f 	dsb	sy
    5c74:	8b02014a 	add	x10, x10, x2
    5c78:	d61f0140 	br	x10
    5c7c:	d5033f9f 	dsb	sy
    5c80:	8b02014a 	add	x10, x10, x2
    5c84:	d61f0140 	br	x10
    5c88:	d5033f9f 	dsb	sy
    5c8c:	8b02014a 	add	x10, x10, x2
    5c90:	d61f0140 	br	x10
    5c94:	d5033f9f 	dsb	sy
    5c98:	8b02014a 	add	x10, x10, x2
    5c9c:	d61f0140 	br	x10
    5ca0:	d5033f9f 	dsb	sy
    5ca4:	8b02014a 	add	x10, x10, x2
    5ca8:	d61f0140 	br	x10
    5cac:	d5033f9f 	dsb	sy
    5cb0:	8b02014a 	add	x10, x10, x2
    5cb4:	d61f0140 	br	x10
    5cb8:	d5033f9f 	dsb	sy
    5cbc:	8b02014a 	add	x10, x10, x2
    5cc0:	d61f0140 	br	x10
    5cc4:	d5033f9f 	dsb	sy
    5cc8:	8b02014a 	add	x10, x10, x2
    5ccc:	d61f0140 	br	x10
    5cd0:	d5033f9f 	dsb	sy
    5cd4:	8b02014a 	add	x10, x10, x2
    5cd8:	d61f0140 	br	x10
    5cdc:	d5033f9f 	dsb	sy
    5ce0:	8b02014a 	add	x10, x10, x2
    5ce4:	d61f0140 	br	x10
    5ce8:	d5033f9f 	dsb	sy
    5cec:	8b02014a 	add	x10, x10, x2
    5cf0:	d61f0140 	br	x10
    5cf4:	d5033f9f 	dsb	sy
    5cf8:	8b02014a 	add	x10, x10, x2
    5cfc:	d61f0140 	br	x10
    5d00:	d5033f9f 	dsb	sy
    5d04:	8b02014a 	add	x10, x10, x2
    5d08:	d61f0140 	br	x10
    5d0c:	d5033f9f 	dsb	sy
    5d10:	8b02014a 	add	x10, x10, x2
    5d14:	d61f0140 	br	x10
    5d18:	d5033f9f 	dsb	sy
    5d1c:	8b02014a 	add	x10, x10, x2
    5d20:	d61f0140 	br	x10
    5d24:	d5033f9f 	dsb	sy
    5d28:	8b02014a 	add	x10, x10, x2
    5d2c:	d61f0140 	br	x10
    5d30:	d5033f9f 	dsb	sy
    5d34:	8b02014a 	add	x10, x10, x2
    5d38:	d61f0140 	br	x10
    5d3c:	d5033f9f 	dsb	sy
    5d40:	8b02014a 	add	x10, x10, x2
    5d44:	d61f0140 	br	x10
    5d48:	d5033f9f 	dsb	sy
    5d4c:	8b02014a 	add	x10, x10, x2
    5d50:	d61f0140 	br	x10
    5d54:	d5033f9f 	dsb	sy
    5d58:	8b02014a 	add	x10, x10, x2
    5d5c:	d61f0140 	br	x10
    5d60:	d5033f9f 	dsb	sy
    5d64:	8b02014a 	add	x10, x10, x2
    5d68:	d61f0140 	br	x10
    5d6c:	d5033f9f 	dsb	sy
    5d70:	8b02014a 	add	x10, x10, x2
    5d74:	d61f0140 	br	x10
    5d78:	d5033f9f 	dsb	sy
    5d7c:	8b02014a 	add	x10, x10, x2
    5d80:	d61f0140 	br	x10
    5d84:	d5033f9f 	dsb	sy
    5d88:	8b02014a 	add	x10, x10, x2
    5d8c:	d61f0140 	br	x10
    5d90:	d5033f9f 	dsb	sy
    5d94:	8b02014a 	add	x10, x10, x2
    5d98:	d61f0140 	br	x10
    5d9c:	d5033f9f 	dsb	sy
    5da0:	8b02014a 	add	x10, x10, x2
    5da4:	d61f0140 	br	x10
    5da8:	d5033f9f 	dsb	sy
    5dac:	8b02014a 	add	x10, x10, x2
    5db0:	d61f0140 	br	x10
    5db4:	d5033f9f 	dsb	sy
    5db8:	8b02014a 	add	x10, x10, x2
    5dbc:	d61f0140 	br	x10
    5dc0:	d5033f9f 	dsb	sy
    5dc4:	8b02014a 	add	x10, x10, x2
    5dc8:	d61f0140 	br	x10
    5dcc:	d5033f9f 	dsb	sy
    5dd0:	8b02014a 	add	x10, x10, x2
    5dd4:	d61f0140 	br	x10
    5dd8:	d5033f9f 	dsb	sy
    5ddc:	8b02014a 	add	x10, x10, x2
    5de0:	d61f0140 	br	x10
    5de4:	d5033f9f 	dsb	sy
    5de8:	8b02014a 	add	x10, x10, x2
    5dec:	d61f0140 	br	x10
    5df0:	d5033f9f 	dsb	sy
    5df4:	8b02014a 	add	x10, x10, x2
    5df8:	d61f0140 	br	x10
    5dfc:	d5033f9f 	dsb	sy
    5e00:	8b02014a 	add	x10, x10, x2
    5e04:	d61f0140 	br	x10
    5e08:	d5033f9f 	dsb	sy
    5e0c:	8b02014a 	add	x10, x10, x2
    5e10:	d61f0140 	br	x10
    5e14:	d5033f9f 	dsb	sy
    5e18:	8b02014a 	add	x10, x10, x2
    5e1c:	d61f0140 	br	x10
    5e20:	d5033f9f 	dsb	sy
    5e24:	8b02014a 	add	x10, x10, x2
    5e28:	d61f0140 	br	x10
    5e2c:	d5033f9f 	dsb	sy
    5e30:	8b02014a 	add	x10, x10, x2
    5e34:	d61f0140 	br	x10
    5e38:	d5033f9f 	dsb	sy
    5e3c:	8b02014a 	add	x10, x10, x2
    5e40:	d61f0140 	br	x10
    5e44:	d5033f9f 	dsb	sy
    5e48:	8b02014a 	add	x10, x10, x2
    5e4c:	d61f0140 	br	x10
    5e50:	d5033f9f 	dsb	sy
    5e54:	8b02014a 	add	x10, x10, x2
    5e58:	d61f0140 	br	x10
    5e5c:	d5033f9f 	dsb	sy
    5e60:	8b02014a 	add	x10, x10, x2
    5e64:	d61f0140 	br	x10
    5e68:	d5033f9f 	dsb	sy
    5e6c:	8b02014a 	add	x10, x10, x2
    5e70:	d61f0140 	br	x10
    5e74:	d5033f9f 	dsb	sy
    5e78:	8b02014a 	add	x10, x10, x2
    5e7c:	d61f0140 	br	x10
    5e80:	d5033f9f 	dsb	sy
    5e84:	8b02014a 	add	x10, x10, x2
    5e88:	d61f0140 	br	x10
    5e8c:	d5033f9f 	dsb	sy
    5e90:	8b02014a 	add	x10, x10, x2
    5e94:	d61f0140 	br	x10
    5e98:	d5033f9f 	dsb	sy
    5e9c:	8b02014a 	add	x10, x10, x2
    5ea0:	d61f0140 	br	x10
    5ea4:	d5033f9f 	dsb	sy
    5ea8:	8b02014a 	add	x10, x10, x2
    5eac:	d61f0140 	br	x10
    5eb0:	d5033f9f 	dsb	sy
    5eb4:	8b02014a 	add	x10, x10, x2
    5eb8:	d61f0140 	br	x10
    5ebc:	d5033f9f 	dsb	sy
    5ec0:	8b02014a 	add	x10, x10, x2
    5ec4:	d61f0140 	br	x10
    5ec8:	d5033f9f 	dsb	sy
    5ecc:	8b02014a 	add	x10, x10, x2
    5ed0:	d61f0140 	br	x10
    5ed4:	d5033f9f 	dsb	sy
    5ed8:	8b02014a 	add	x10, x10, x2
    5edc:	d61f0140 	br	x10
    5ee0:	d5033f9f 	dsb	sy
    5ee4:	8b02014a 	add	x10, x10, x2
    5ee8:	d61f0140 	br	x10
    5eec:	d5033f9f 	dsb	sy
    5ef0:	8b02014a 	add	x10, x10, x2
    5ef4:	d61f0140 	br	x10
    5ef8:	d5033f9f 	dsb	sy
    5efc:	8b02014a 	add	x10, x10, x2
    5f00:	d61f0140 	br	x10
    5f04:	d5033f9f 	dsb	sy
    5f08:	8b02014a 	add	x10, x10, x2
    5f0c:	d61f0140 	br	x10
    5f10:	d5033f9f 	dsb	sy
    5f14:	8b02014a 	add	x10, x10, x2
    5f18:	d61f0140 	br	x10
    5f1c:	d5033f9f 	dsb	sy
    5f20:	8b02014a 	add	x10, x10, x2
    5f24:	d61f0140 	br	x10
    5f28:	d5033f9f 	dsb	sy
    5f2c:	8b02014a 	add	x10, x10, x2
    5f30:	d61f0140 	br	x10
    5f34:	d5033f9f 	dsb	sy
    5f38:	8b02014a 	add	x10, x10, x2
    5f3c:	d61f0140 	br	x10
    5f40:	d5033f9f 	dsb	sy
    5f44:	8b02014a 	add	x10, x10, x2
    5f48:	d61f0140 	br	x10
    5f4c:	d5033f9f 	dsb	sy
    5f50:	8b02014a 	add	x10, x10, x2
    5f54:	d61f0140 	br	x10
    5f58:	d5033f9f 	dsb	sy
    5f5c:	8b02014a 	add	x10, x10, x2
    5f60:	d61f0140 	br	x10
    5f64:	d5033f9f 	dsb	sy
    5f68:	8b02014a 	add	x10, x10, x2
    5f6c:	d61f0140 	br	x10
    5f70:	d5033f9f 	dsb	sy
    5f74:	8b02014a 	add	x10, x10, x2
    5f78:	d61f0140 	br	x10
    5f7c:	d5033f9f 	dsb	sy
    5f80:	8b02014a 	add	x10, x10, x2
    5f84:	d61f0140 	br	x10
    5f88:	d5033f9f 	dsb	sy
    5f8c:	8b02014a 	add	x10, x10, x2
    5f90:	d61f0140 	br	x10
    5f94:	d5033f9f 	dsb	sy
    5f98:	8b02014a 	add	x10, x10, x2
    5f9c:	d61f0140 	br	x10
    5fa0:	d5033f9f 	dsb	sy
    5fa4:	8b02014a 	add	x10, x10, x2
    5fa8:	d61f0140 	br	x10
    5fac:	d5033f9f 	dsb	sy
    5fb0:	8b02014a 	add	x10, x10, x2
    5fb4:	d61f0140 	br	x10
    5fb8:	d5033f9f 	dsb	sy
    5fbc:	8b02014a 	add	x10, x10, x2
    5fc0:	d61f0140 	br	x10
    5fc4:	d5033f9f 	dsb	sy
    5fc8:	8b02014a 	add	x10, x10, x2
    5fcc:	d61f0140 	br	x10
    5fd0:	d5033f9f 	dsb	sy
    5fd4:	8b02014a 	add	x10, x10, x2
    5fd8:	d61f0140 	br	x10
    5fdc:	d5033f9f 	dsb	sy
    5fe0:	8b02014a 	add	x10, x10, x2
    5fe4:	d61f0140 	br	x10
    5fe8:	d5033f9f 	dsb	sy
    5fec:	8b02014a 	add	x10, x10, x2
    5ff0:	d61f0140 	br	x10
    5ff4:	d5033f9f 	dsb	sy
    5ff8:	8b02014a 	add	x10, x10, x2
    5ffc:	d61f0140 	br	x10
    6000:	d5033f9f 	dsb	sy
    6004:	8b02014a 	add	x10, x10, x2
    6008:	d61f0140 	br	x10
    600c:	d5033f9f 	dsb	sy
    6010:	8b02014a 	add	x10, x10, x2
    6014:	d61f0140 	br	x10
    6018:	d5033f9f 	dsb	sy
    601c:	8b02014a 	add	x10, x10, x2
    6020:	d61f0140 	br	x10
    6024:	d5033f9f 	dsb	sy
    6028:	8b02014a 	add	x10, x10, x2
    602c:	d61f0140 	br	x10
    6030:	d5033f9f 	dsb	sy
    6034:	8b02014a 	add	x10, x10, x2
    6038:	d61f0140 	br	x10
    603c:	d5033f9f 	dsb	sy
    6040:	8b02014a 	add	x10, x10, x2
    6044:	d61f0140 	br	x10
    6048:	d5033f9f 	dsb	sy
    604c:	8b02014a 	add	x10, x10, x2
    6050:	d61f0140 	br	x10
    6054:	d5033f9f 	dsb	sy
    6058:	8b02014a 	add	x10, x10, x2
    605c:	d61f0140 	br	x10
    6060:	d5033f9f 	dsb	sy
    6064:	8b02014a 	add	x10, x10, x2
    6068:	d61f0140 	br	x10
    606c:	d5033f9f 	dsb	sy
    6070:	8b02014a 	add	x10, x10, x2
    6074:	d61f0140 	br	x10
    6078:	d5033f9f 	dsb	sy
    607c:	8b02014a 	add	x10, x10, x2
    6080:	d61f0140 	br	x10
    6084:	d5033f9f 	dsb	sy
    6088:	8b02014a 	add	x10, x10, x2
    608c:	d61f0140 	br	x10
    6090:	d5033f9f 	dsb	sy
    6094:	8b02014a 	add	x10, x10, x2
    6098:	d61f0140 	br	x10
    609c:	d5033f9f 	dsb	sy
    60a0:	8b02014a 	add	x10, x10, x2
    60a4:	d61f0140 	br	x10
    60a8:	d5033f9f 	dsb	sy
    60ac:	8b02014a 	add	x10, x10, x2
    60b0:	d61f0140 	br	x10
    60b4:	d5033f9f 	dsb	sy
    60b8:	8b02014a 	add	x10, x10, x2
    60bc:	d61f0140 	br	x10
    60c0:	d5033f9f 	dsb	sy
    60c4:	8b02014a 	add	x10, x10, x2
    60c8:	d61f0140 	br	x10
    60cc:	d5033f9f 	dsb	sy
    60d0:	8b02014a 	add	x10, x10, x2
    60d4:	d61f0140 	br	x10
    60d8:	d5033f9f 	dsb	sy
    60dc:	8b02014a 	add	x10, x10, x2
    60e0:	d61f0140 	br	x10
    60e4:	d5033f9f 	dsb	sy
    60e8:	8b02014a 	add	x10, x10, x2
    60ec:	d61f0140 	br	x10
    60f0:	d5033f9f 	dsb	sy
    60f4:	8b02014a 	add	x10, x10, x2
    60f8:	d61f0140 	br	x10
    60fc:	d5033f9f 	dsb	sy
    6100:	8b02014a 	add	x10, x10, x2
    6104:	d61f0140 	br	x10
    6108:	d5033f9f 	dsb	sy
    610c:	8b02014a 	add	x10, x10, x2
    6110:	d61f0140 	br	x10
    6114:	d5033f9f 	dsb	sy
    6118:	8b02014a 	add	x10, x10, x2
    611c:	d61f0140 	br	x10
    6120:	d5033f9f 	dsb	sy
    6124:	8b02014a 	add	x10, x10, x2
    6128:	d61f0140 	br	x10
    612c:	d5033f9f 	dsb	sy
    6130:	8b02014a 	add	x10, x10, x2
    6134:	d61f0140 	br	x10
    6138:	d5033f9f 	dsb	sy
    613c:	8b02014a 	add	x10, x10, x2
    6140:	d61f0140 	br	x10
    6144:	d5033f9f 	dsb	sy
    6148:	8b02014a 	add	x10, x10, x2
    614c:	d61f0140 	br	x10
    6150:	d5033f9f 	dsb	sy
    6154:	8b02014a 	add	x10, x10, x2
    6158:	d61f0140 	br	x10
    615c:	d5033f9f 	dsb	sy
    6160:	8b02014a 	add	x10, x10, x2
    6164:	d61f0140 	br	x10
    6168:	d5033f9f 	dsb	sy
    616c:	8b02014a 	add	x10, x10, x2
    6170:	d61f0140 	br	x10
    6174:	d5033f9f 	dsb	sy
    6178:	8b02014a 	add	x10, x10, x2
    617c:	d61f0140 	br	x10
    6180:	d5033f9f 	dsb	sy
    6184:	8b02014a 	add	x10, x10, x2
    6188:	d61f0140 	br	x10
    618c:	d5033f9f 	dsb	sy
    6190:	8b02014a 	add	x10, x10, x2
    6194:	d61f0140 	br	x10
    6198:	d5033f9f 	dsb	sy
    619c:	8b02014a 	add	x10, x10, x2
    61a0:	d61f0140 	br	x10
    61a4:	d5033f9f 	dsb	sy
    61a8:	8b02014a 	add	x10, x10, x2
    61ac:	d61f0140 	br	x10
    61b0:	d5033f9f 	dsb	sy
    61b4:	8b02014a 	add	x10, x10, x2
    61b8:	d61f0140 	br	x10
    61bc:	d5033f9f 	dsb	sy
    61c0:	8b02014a 	add	x10, x10, x2
    61c4:	d61f0140 	br	x10
    61c8:	d5033f9f 	dsb	sy
    61cc:	8b02014a 	add	x10, x10, x2
    61d0:	d61f0140 	br	x10
    61d4:	d5033f9f 	dsb	sy
    61d8:	8b02014a 	add	x10, x10, x2
    61dc:	d61f0140 	br	x10
    61e0:	d5033f9f 	dsb	sy
    61e4:	8b02014a 	add	x10, x10, x2
    61e8:	d61f0140 	br	x10
    61ec:	d5033f9f 	dsb	sy
    61f0:	8b02014a 	add	x10, x10, x2
    61f4:	d61f0140 	br	x10
    61f8:	d5033f9f 	dsb	sy
    61fc:	8b02014a 	add	x10, x10, x2
    6200:	d61f0140 	br	x10
    6204:	d5033f9f 	dsb	sy
    6208:	8b02014a 	add	x10, x10, x2
    620c:	d61f0140 	br	x10
    6210:	d5033f9f 	dsb	sy
    6214:	8b02014a 	add	x10, x10, x2
    6218:	d61f0140 	br	x10
    621c:	d5033f9f 	dsb	sy
    6220:	8b02014a 	add	x10, x10, x2
    6224:	d61f0140 	br	x10
    6228:	d5033f9f 	dsb	sy
    622c:	8b02014a 	add	x10, x10, x2
    6230:	d61f0140 	br	x10
    6234:	d5033f9f 	dsb	sy
    6238:	8b02014a 	add	x10, x10, x2
    623c:	d61f0140 	br	x10
    6240:	d5033f9f 	dsb	sy
    6244:	8b02014a 	add	x10, x10, x2
    6248:	d61f0140 	br	x10
    624c:	d5033f9f 	dsb	sy
    6250:	8b02014a 	add	x10, x10, x2
    6254:	d61f0140 	br	x10
    6258:	d5033f9f 	dsb	sy
    625c:	8b02014a 	add	x10, x10, x2
    6260:	d61f0140 	br	x10
    6264:	d5033f9f 	dsb	sy
    6268:	8b02014a 	add	x10, x10, x2
    626c:	d61f0140 	br	x10
    6270:	d5033f9f 	dsb	sy
    6274:	8b02014a 	add	x10, x10, x2
    6278:	d61f0140 	br	x10
    627c:	d5033f9f 	dsb	sy
    6280:	8b02014a 	add	x10, x10, x2
    6284:	d61f0140 	br	x10
    6288:	d5033f9f 	dsb	sy
    628c:	8b02014a 	add	x10, x10, x2
    6290:	d61f0140 	br	x10
    6294:	d5033f9f 	dsb	sy
    6298:	8b02014a 	add	x10, x10, x2
    629c:	d61f0140 	br	x10
    62a0:	d5033f9f 	dsb	sy
    62a4:	8b02014a 	add	x10, x10, x2
    62a8:	d61f0140 	br	x10
    62ac:	d5033f9f 	dsb	sy
    62b0:	8b02014a 	add	x10, x10, x2
    62b4:	d61f0140 	br	x10
    62b8:	d5033f9f 	dsb	sy
    62bc:	8b02014a 	add	x10, x10, x2
    62c0:	d61f0140 	br	x10
    62c4:	d5033f9f 	dsb	sy
    62c8:	8b02014a 	add	x10, x10, x2
    62cc:	d61f0140 	br	x10
    62d0:	d5033f9f 	dsb	sy
    62d4:	8b02014a 	add	x10, x10, x2
    62d8:	d61f0140 	br	x10
    62dc:	d5033f9f 	dsb	sy
    62e0:	8b02014a 	add	x10, x10, x2
    62e4:	d61f0140 	br	x10
    62e8:	d5033f9f 	dsb	sy
    62ec:	8b02014a 	add	x10, x10, x2
    62f0:	d61f0140 	br	x10
    62f4:	d5033f9f 	dsb	sy
    62f8:	8b02014a 	add	x10, x10, x2
    62fc:	d61f0140 	br	x10
    6300:	d5033f9f 	dsb	sy
    6304:	8b02014a 	add	x10, x10, x2
    6308:	d61f0140 	br	x10
    630c:	d5033f9f 	dsb	sy
    6310:	8b02014a 	add	x10, x10, x2
    6314:	d61f0140 	br	x10
    6318:	d5033f9f 	dsb	sy
    631c:	8b02014a 	add	x10, x10, x2
    6320:	d61f0140 	br	x10
    6324:	d5033f9f 	dsb	sy
    6328:	8b02014a 	add	x10, x10, x2
    632c:	d61f0140 	br	x10
    6330:	d5033f9f 	dsb	sy
    6334:	8b02014a 	add	x10, x10, x2
    6338:	d61f0140 	br	x10
    633c:	d5033f9f 	dsb	sy
    6340:	8b02014a 	add	x10, x10, x2
    6344:	d61f0140 	br	x10
    6348:	d5033f9f 	dsb	sy
    634c:	8b02014a 	add	x10, x10, x2
    6350:	d61f0140 	br	x10
    6354:	d5033f9f 	dsb	sy
    6358:	8b02014a 	add	x10, x10, x2
    635c:	d61f0140 	br	x10
    6360:	d5033f9f 	dsb	sy
    6364:	8b02014a 	add	x10, x10, x2
    6368:	d61f0140 	br	x10
    636c:	d5033f9f 	dsb	sy
    6370:	8b02014a 	add	x10, x10, x2
    6374:	d61f0140 	br	x10
    6378:	d5033f9f 	dsb	sy
    637c:	8b02014a 	add	x10, x10, x2
    6380:	d61f0140 	br	x10
    6384:	d5033f9f 	dsb	sy
    6388:	8b02014a 	add	x10, x10, x2
    638c:	d61f0140 	br	x10
    6390:	d5033f9f 	dsb	sy
    6394:	8b02014a 	add	x10, x10, x2
    6398:	d61f0140 	br	x10
    639c:	d5033f9f 	dsb	sy
    63a0:	8b02014a 	add	x10, x10, x2
    63a4:	d61f0140 	br	x10
    63a8:	d5033f9f 	dsb	sy
    63ac:	8b02014a 	add	x10, x10, x2
    63b0:	d61f0140 	br	x10
    63b4:	d5033f9f 	dsb	sy
    63b8:	8b02014a 	add	x10, x10, x2
    63bc:	d61f0140 	br	x10
    63c0:	d5033f9f 	dsb	sy
    63c4:	8b02014a 	add	x10, x10, x2
    63c8:	d61f0140 	br	x10
    63cc:	d5033f9f 	dsb	sy
    63d0:	8b02014a 	add	x10, x10, x2
    63d4:	d61f0140 	br	x10
    63d8:	d5033f9f 	dsb	sy
    63dc:	8b02014a 	add	x10, x10, x2
    63e0:	d61f0140 	br	x10
    63e4:	d5033f9f 	dsb	sy
    63e8:	8b02014a 	add	x10, x10, x2
    63ec:	d61f0140 	br	x10
    63f0:	d5033f9f 	dsb	sy
    63f4:	8b02014a 	add	x10, x10, x2
    63f8:	d61f0140 	br	x10
    63fc:	d5033f9f 	dsb	sy
    6400:	8b02014a 	add	x10, x10, x2
    6404:	d61f0140 	br	x10
    6408:	d5033f9f 	dsb	sy
    640c:	8b02014a 	add	x10, x10, x2
    6410:	d61f0140 	br	x10
    6414:	d5033f9f 	dsb	sy
    6418:	8b02014a 	add	x10, x10, x2
    641c:	d61f0140 	br	x10
    6420:	d5033f9f 	dsb	sy
    6424:	8b02014a 	add	x10, x10, x2
    6428:	d61f0140 	br	x10
    642c:	d5033f9f 	dsb	sy
    6430:	8b02014a 	add	x10, x10, x2
    6434:	d61f0140 	br	x10
    6438:	d5033f9f 	dsb	sy
    643c:	8b02014a 	add	x10, x10, x2
    6440:	d61f0140 	br	x10
    6444:	d5033f9f 	dsb	sy
    6448:	8b02014a 	add	x10, x10, x2
    644c:	d61f0140 	br	x10
    6450:	d5033f9f 	dsb	sy
    6454:	8b02014a 	add	x10, x10, x2
    6458:	d61f0140 	br	x10
    645c:	d5033f9f 	dsb	sy
    6460:	8b02014a 	add	x10, x10, x2
    6464:	d61f0140 	br	x10
    6468:	d5033f9f 	dsb	sy
    646c:	8b02014a 	add	x10, x10, x2
    6470:	d61f0140 	br	x10
    6474:	d5033f9f 	dsb	sy
    6478:	8b02014a 	add	x10, x10, x2
    647c:	d61f0140 	br	x10
    6480:	d5033f9f 	dsb	sy
    6484:	8b02014a 	add	x10, x10, x2
    6488:	d61f0140 	br	x10
    648c:	d5033f9f 	dsb	sy
    6490:	8b02014a 	add	x10, x10, x2
    6494:	d61f0140 	br	x10
    6498:	d5033f9f 	dsb	sy
    649c:	8b02014a 	add	x10, x10, x2
    64a0:	d61f0140 	br	x10
    64a4:	d5033f9f 	dsb	sy
    64a8:	8b02014a 	add	x10, x10, x2
    64ac:	d61f0140 	br	x10
    64b0:	d5033f9f 	dsb	sy
    64b4:	8b02014a 	add	x10, x10, x2
    64b8:	d61f0140 	br	x10
    64bc:	d5033f9f 	dsb	sy
    64c0:	8b02014a 	add	x10, x10, x2
    64c4:	d61f0140 	br	x10
    64c8:	d5033f9f 	dsb	sy
    64cc:	8b02014a 	add	x10, x10, x2
    64d0:	d61f0140 	br	x10
    64d4:	d5033f9f 	dsb	sy
    64d8:	8b02014a 	add	x10, x10, x2
    64dc:	d61f0140 	br	x10
    64e0:	d5033f9f 	dsb	sy
    64e4:	8b02014a 	add	x10, x10, x2
    64e8:	d61f0140 	br	x10
    64ec:	d5033f9f 	dsb	sy
    64f0:	8b02014a 	add	x10, x10, x2
    64f4:	d61f0140 	br	x10
    64f8:	d5033f9f 	dsb	sy
    64fc:	8b02014a 	add	x10, x10, x2
    6500:	d61f0140 	br	x10
    6504:	d5033f9f 	dsb	sy
    6508:	8b02014a 	add	x10, x10, x2
    650c:	d61f0140 	br	x10
    6510:	d5033f9f 	dsb	sy
    6514:	8b02014a 	add	x10, x10, x2
    6518:	d61f0140 	br	x10
    651c:	d5033f9f 	dsb	sy
    6520:	8b02014a 	add	x10, x10, x2
    6524:	d61f0140 	br	x10
    6528:	d5033f9f 	dsb	sy
    652c:	8b02014a 	add	x10, x10, x2
    6530:	d61f0140 	br	x10
    6534:	d5033f9f 	dsb	sy
    6538:	8b02014a 	add	x10, x10, x2
    653c:	d61f0140 	br	x10
    6540:	d5033f9f 	dsb	sy
    6544:	8b02014a 	add	x10, x10, x2
    6548:	d61f0140 	br	x10
    654c:	d5033f9f 	dsb	sy
    6550:	8b02014a 	add	x10, x10, x2
    6554:	d61f0140 	br	x10
    6558:	d5033f9f 	dsb	sy
    655c:	8b02014a 	add	x10, x10, x2
    6560:	d61f0140 	br	x10
    6564:	d5033f9f 	dsb	sy
    6568:	8b02014a 	add	x10, x10, x2
    656c:	d61f0140 	br	x10
    6570:	d5033f9f 	dsb	sy
    6574:	8b02014a 	add	x10, x10, x2
    6578:	d61f0140 	br	x10
    657c:	d5033f9f 	dsb	sy
    6580:	8b02014a 	add	x10, x10, x2
    6584:	d61f0140 	br	x10
    6588:	d5033f9f 	dsb	sy
    658c:	8b02014a 	add	x10, x10, x2
    6590:	d61f0140 	br	x10
    6594:	d5033f9f 	dsb	sy
    6598:	8b02014a 	add	x10, x10, x2
    659c:	d61f0140 	br	x10
    65a0:	d5033f9f 	dsb	sy
    65a4:	8b02014a 	add	x10, x10, x2
    65a8:	d61f0140 	br	x10
    65ac:	d5033f9f 	dsb	sy
    65b0:	8b02014a 	add	x10, x10, x2
    65b4:	d61f0140 	br	x10
    65b8:	d5033f9f 	dsb	sy
    65bc:	8b02014a 	add	x10, x10, x2
    65c0:	d61f0140 	br	x10
    65c4:	d5033f9f 	dsb	sy
    65c8:	8b02014a 	add	x10, x10, x2
    65cc:	d61f0140 	br	x10
    65d0:	d5033f9f 	dsb	sy
    65d4:	8b02014a 	add	x10, x10, x2
    65d8:	d61f0140 	br	x10
    65dc:	d5033f9f 	dsb	sy
    65e0:	8b02014a 	add	x10, x10, x2
    65e4:	d61f0140 	br	x10
    65e8:	d5033f9f 	dsb	sy
    65ec:	8b02014a 	add	x10, x10, x2
    65f0:	d61f0140 	br	x10
    65f4:	d5033f9f 	dsb	sy
    65f8:	8b02014a 	add	x10, x10, x2
    65fc:	d61f0140 	br	x10
    6600:	d5033f9f 	dsb	sy
    6604:	8b02014a 	add	x10, x10, x2
    6608:	d61f0140 	br	x10
    660c:	d5033f9f 	dsb	sy
    6610:	8b02014a 	add	x10, x10, x2
    6614:	d61f0140 	br	x10
    6618:	d5033f9f 	dsb	sy
    661c:	8b02014a 	add	x10, x10, x2
    6620:	d61f0140 	br	x10
    6624:	d5033f9f 	dsb	sy
    6628:	8b02014a 	add	x10, x10, x2
    662c:	d61f0140 	br	x10
    6630:	d5033f9f 	dsb	sy
    6634:	8b02014a 	add	x10, x10, x2
    6638:	d61f0140 	br	x10
    663c:	d5033f9f 	dsb	sy
    6640:	8b02014a 	add	x10, x10, x2
    6644:	d61f0140 	br	x10
    6648:	d5033f9f 	dsb	sy
    664c:	8b02014a 	add	x10, x10, x2
    6650:	d61f0140 	br	x10
    6654:	d5033f9f 	dsb	sy
    6658:	8b02014a 	add	x10, x10, x2
    665c:	d61f0140 	br	x10
    6660:	d5033f9f 	dsb	sy
    6664:	8b02014a 	add	x10, x10, x2
    6668:	d61f0140 	br	x10
    666c:	d5033f9f 	dsb	sy
    6670:	8b02014a 	add	x10, x10, x2
    6674:	d61f0140 	br	x10
    6678:	d5033f9f 	dsb	sy
    667c:	8b02014a 	add	x10, x10, x2
    6680:	d61f0140 	br	x10
    6684:	d5033f9f 	dsb	sy
    6688:	8b02014a 	add	x10, x10, x2
    668c:	d61f0140 	br	x10
    6690:	d5033f9f 	dsb	sy
    6694:	8b02014a 	add	x10, x10, x2
    6698:	d61f0140 	br	x10
    669c:	d5033f9f 	dsb	sy
    66a0:	8b02014a 	add	x10, x10, x2
    66a4:	d61f0140 	br	x10
    66a8:	d5033f9f 	dsb	sy
    66ac:	8b02014a 	add	x10, x10, x2
    66b0:	d61f0140 	br	x10
    66b4:	d5033f9f 	dsb	sy
    66b8:	8b02014a 	add	x10, x10, x2
    66bc:	d61f0140 	br	x10
    66c0:	d5033f9f 	dsb	sy
    66c4:	8b02014a 	add	x10, x10, x2
    66c8:	d61f0140 	br	x10
    66cc:	d5033f9f 	dsb	sy
    66d0:	8b02014a 	add	x10, x10, x2
    66d4:	d61f0140 	br	x10
    66d8:	d5033f9f 	dsb	sy
    66dc:	8b02014a 	add	x10, x10, x2
    66e0:	d61f0140 	br	x10
    66e4:	d5033f9f 	dsb	sy
    66e8:	8b02014a 	add	x10, x10, x2
    66ec:	d61f0140 	br	x10
    66f0:	d5033f9f 	dsb	sy
    66f4:	8b02014a 	add	x10, x10, x2
    66f8:	d61f0140 	br	x10
    66fc:	d5033f9f 	dsb	sy
    6700:	8b02014a 	add	x10, x10, x2
    6704:	d61f0140 	br	x10
    6708:	d5033f9f 	dsb	sy
    670c:	8b02014a 	add	x10, x10, x2
    6710:	d61f0140 	br	x10
    6714:	d5033f9f 	dsb	sy
    6718:	8b02014a 	add	x10, x10, x2
    671c:	d61f0140 	br	x10
    6720:	d5033f9f 	dsb	sy
    6724:	8b02014a 	add	x10, x10, x2
    6728:	d61f0140 	br	x10
    672c:	d5033f9f 	dsb	sy
    6730:	8b02014a 	add	x10, x10, x2
    6734:	d61f0140 	br	x10
    6738:	d5033f9f 	dsb	sy
    673c:	8b02014a 	add	x10, x10, x2
    6740:	d61f0140 	br	x10
    6744:	d5033f9f 	dsb	sy
    6748:	8b02014a 	add	x10, x10, x2
    674c:	d61f0140 	br	x10
    6750:	d5033f9f 	dsb	sy
    6754:	8b02014a 	add	x10, x10, x2
    6758:	d61f0140 	br	x10
    675c:	d5033f9f 	dsb	sy
    6760:	8b02014a 	add	x10, x10, x2
    6764:	d61f0140 	br	x10
    6768:	d5033f9f 	dsb	sy
    676c:	8b02014a 	add	x10, x10, x2
    6770:	d61f0140 	br	x10
    6774:	d5033f9f 	dsb	sy
    6778:	8b02014a 	add	x10, x10, x2
    677c:	d61f0140 	br	x10
    6780:	d5033f9f 	dsb	sy
    6784:	8b02014a 	add	x10, x10, x2
    6788:	d61f0140 	br	x10
    678c:	d5033f9f 	dsb	sy
    6790:	8b02014a 	add	x10, x10, x2
    6794:	d61f0140 	br	x10
    6798:	d5033f9f 	dsb	sy
    679c:	8b02014a 	add	x10, x10, x2
    67a0:	d61f0140 	br	x10
    67a4:	d5033f9f 	dsb	sy
    67a8:	8b02014a 	add	x10, x10, x2
    67ac:	d61f0140 	br	x10
    67b0:	d5033f9f 	dsb	sy
    67b4:	8b02014a 	add	x10, x10, x2
    67b8:	d61f0140 	br	x10
    67bc:	d5033f9f 	dsb	sy
    67c0:	8b02014a 	add	x10, x10, x2
    67c4:	d61f0140 	br	x10
    67c8:	d5033f9f 	dsb	sy
    67cc:	8b02014a 	add	x10, x10, x2
    67d0:	d61f0140 	br	x10
    67d4:	d5033f9f 	dsb	sy
    67d8:	8b02014a 	add	x10, x10, x2
    67dc:	d61f0140 	br	x10
    67e0:	d5033f9f 	dsb	sy
    67e4:	8b02014a 	add	x10, x10, x2
    67e8:	d61f0140 	br	x10
    67ec:	d5033f9f 	dsb	sy
    67f0:	8b02014a 	add	x10, x10, x2
    67f4:	d61f0140 	br	x10
    67f8:	d5033f9f 	dsb	sy
    67fc:	8b02014a 	add	x10, x10, x2
    6800:	d61f0140 	br	x10
    6804:	d5033f9f 	dsb	sy
    6808:	8b02014a 	add	x10, x10, x2
    680c:	d61f0140 	br	x10
    6810:	d5033f9f 	dsb	sy
    6814:	8b02014a 	add	x10, x10, x2
    6818:	d61f0140 	br	x10
    681c:	d5033f9f 	dsb	sy
    6820:	8b02014a 	add	x10, x10, x2
    6824:	d61f0140 	br	x10
    6828:	d5033f9f 	dsb	sy
    682c:	8b02014a 	add	x10, x10, x2
    6830:	d61f0140 	br	x10
    6834:	d5033f9f 	dsb	sy
    6838:	8b02014a 	add	x10, x10, x2
    683c:	d61f0140 	br	x10
    6840:	d5033f9f 	dsb	sy
    6844:	8b02014a 	add	x10, x10, x2
    6848:	d61f0140 	br	x10
    684c:	d5033f9f 	dsb	sy
    6850:	8b02014a 	add	x10, x10, x2
    6854:	d61f0140 	br	x10
    6858:	d5033f9f 	dsb	sy
    685c:	8b02014a 	add	x10, x10, x2
    6860:	d61f0140 	br	x10
    6864:	d5033f9f 	dsb	sy
    6868:	8b02014a 	add	x10, x10, x2
    686c:	d61f0140 	br	x10
    6870:	d5033f9f 	dsb	sy
    6874:	8b02014a 	add	x10, x10, x2
    6878:	d61f0140 	br	x10
    687c:	d5033f9f 	dsb	sy
    6880:	8b02014a 	add	x10, x10, x2
    6884:	d61f0140 	br	x10
    6888:	d5033f9f 	dsb	sy
    688c:	8b02014a 	add	x10, x10, x2
    6890:	d61f0140 	br	x10
    6894:	d5033f9f 	dsb	sy
    6898:	8b02014a 	add	x10, x10, x2
    689c:	d61f0140 	br	x10
    68a0:	d5033f9f 	dsb	sy
    68a4:	8b02014a 	add	x10, x10, x2
    68a8:	d61f0140 	br	x10
    68ac:	d5033f9f 	dsb	sy
    68b0:	8b02014a 	add	x10, x10, x2
    68b4:	d61f0140 	br	x10
    68b8:	d5033f9f 	dsb	sy
    68bc:	8b02014a 	add	x10, x10, x2
    68c0:	d61f0140 	br	x10
    68c4:	d5033f9f 	dsb	sy
    68c8:	8b02014a 	add	x10, x10, x2
    68cc:	d61f0140 	br	x10
    68d0:	d5033f9f 	dsb	sy
    68d4:	8b02014a 	add	x10, x10, x2
    68d8:	d61f0140 	br	x10
    68dc:	d5033f9f 	dsb	sy
    68e0:	8b02014a 	add	x10, x10, x2
    68e4:	d61f0140 	br	x10
    68e8:	d5033f9f 	dsb	sy
    68ec:	8b02014a 	add	x10, x10, x2
    68f0:	d61f0140 	br	x10
    68f4:	d5033f9f 	dsb	sy
    68f8:	8b02014a 	add	x10, x10, x2
    68fc:	d61f0140 	br	x10
    6900:	d5033f9f 	dsb	sy
    6904:	8b02014a 	add	x10, x10, x2
    6908:	d61f0140 	br	x10
    690c:	d5033f9f 	dsb	sy
    6910:	8b02014a 	add	x10, x10, x2
    6914:	d61f0140 	br	x10
    6918:	d5033f9f 	dsb	sy
    691c:	8b02014a 	add	x10, x10, x2
    6920:	d61f0140 	br	x10
    6924:	d5033f9f 	dsb	sy
    6928:	8b02014a 	add	x10, x10, x2
    692c:	d61f0140 	br	x10
    6930:	d5033f9f 	dsb	sy
    6934:	8b02014a 	add	x10, x10, x2
    6938:	d61f0140 	br	x10
    693c:	d5033f9f 	dsb	sy
    6940:	8b02014a 	add	x10, x10, x2
    6944:	d61f0140 	br	x10
    6948:	d5033f9f 	dsb	sy
    694c:	8b02014a 	add	x10, x10, x2
    6950:	d61f0140 	br	x10
    6954:	d5033f9f 	dsb	sy
    6958:	8b02014a 	add	x10, x10, x2
    695c:	d61f0140 	br	x10
    6960:	d5033f9f 	dsb	sy
    6964:	8b02014a 	add	x10, x10, x2
    6968:	d61f0140 	br	x10
    696c:	d5033f9f 	dsb	sy
    6970:	8b02014a 	add	x10, x10, x2
    6974:	d61f0140 	br	x10
    6978:	d5033f9f 	dsb	sy
    697c:	8b02014a 	add	x10, x10, x2
    6980:	d61f0140 	br	x10
    6984:	d5033f9f 	dsb	sy
    6988:	8b02014a 	add	x10, x10, x2
    698c:	d61f0140 	br	x10
    6990:	d5033f9f 	dsb	sy
    6994:	8b02014a 	add	x10, x10, x2
    6998:	d61f0140 	br	x10
    699c:	d5033f9f 	dsb	sy
    69a0:	8b02014a 	add	x10, x10, x2
    69a4:	d61f0140 	br	x10
    69a8:	d5033f9f 	dsb	sy
    69ac:	8b02014a 	add	x10, x10, x2
    69b0:	d61f0140 	br	x10
    69b4:	d5033f9f 	dsb	sy
    69b8:	8b02014a 	add	x10, x10, x2
    69bc:	d61f0140 	br	x10
    69c0:	d5033f9f 	dsb	sy
    69c4:	8b02014a 	add	x10, x10, x2
    69c8:	d61f0140 	br	x10
    69cc:	d5033f9f 	dsb	sy
    69d0:	8b02014a 	add	x10, x10, x2
    69d4:	d61f0140 	br	x10
    69d8:	d5033f9f 	dsb	sy
    69dc:	8b02014a 	add	x10, x10, x2
    69e0:	d61f0140 	br	x10
    69e4:	d5033f9f 	dsb	sy
    69e8:	8b02014a 	add	x10, x10, x2
    69ec:	d61f0140 	br	x10
    69f0:	d5033f9f 	dsb	sy
    69f4:	8b02014a 	add	x10, x10, x2
    69f8:	d61f0140 	br	x10
    69fc:	d5033f9f 	dsb	sy
    6a00:	8b02014a 	add	x10, x10, x2
    6a04:	d61f0140 	br	x10
    6a08:	d5033f9f 	dsb	sy
    6a0c:	8b02014a 	add	x10, x10, x2
    6a10:	d61f0140 	br	x10
    6a14:	d5033f9f 	dsb	sy
    6a18:	8b02014a 	add	x10, x10, x2
    6a1c:	d61f0140 	br	x10
    6a20:	d5033f9f 	dsb	sy
    6a24:	8b02014a 	add	x10, x10, x2
    6a28:	d61f0140 	br	x10
    6a2c:	d5033f9f 	dsb	sy
    6a30:	8b02014a 	add	x10, x10, x2
    6a34:	d61f0140 	br	x10
    6a38:	d5033f9f 	dsb	sy
    6a3c:	8b02014a 	add	x10, x10, x2
    6a40:	d61f0140 	br	x10
    6a44:	d5033f9f 	dsb	sy
    6a48:	8b02014a 	add	x10, x10, x2
    6a4c:	d61f0140 	br	x10
    6a50:	d5033f9f 	dsb	sy
    6a54:	8b02014a 	add	x10, x10, x2
    6a58:	d61f0140 	br	x10
    6a5c:	d5033f9f 	dsb	sy
    6a60:	8b02014a 	add	x10, x10, x2
    6a64:	d61f0140 	br	x10
    6a68:	d5033f9f 	dsb	sy
    6a6c:	8b02014a 	add	x10, x10, x2
    6a70:	d61f0140 	br	x10
    6a74:	d5033f9f 	dsb	sy
    6a78:	8b02014a 	add	x10, x10, x2
    6a7c:	d61f0140 	br	x10
    6a80:	d5033f9f 	dsb	sy
    6a84:	8b02014a 	add	x10, x10, x2
    6a88:	d61f0140 	br	x10
    6a8c:	d5033f9f 	dsb	sy
    6a90:	8b02014a 	add	x10, x10, x2
    6a94:	d61f0140 	br	x10
    6a98:	d5033f9f 	dsb	sy
    6a9c:	8b02014a 	add	x10, x10, x2
    6aa0:	d61f0140 	br	x10
    6aa4:	d5033f9f 	dsb	sy
    6aa8:	8b02014a 	add	x10, x10, x2
    6aac:	d61f0140 	br	x10
    6ab0:	d5033f9f 	dsb	sy
    6ab4:	8b02014a 	add	x10, x10, x2
    6ab8:	d61f0140 	br	x10
    6abc:	d5033f9f 	dsb	sy
    6ac0:	8b02014a 	add	x10, x10, x2
    6ac4:	d61f0140 	br	x10
    6ac8:	d5033f9f 	dsb	sy
    6acc:	8b02014a 	add	x10, x10, x2
    6ad0:	d61f0140 	br	x10
    6ad4:	d5033f9f 	dsb	sy
    6ad8:	8b02014a 	add	x10, x10, x2
    6adc:	d61f0140 	br	x10
    6ae0:	d5033f9f 	dsb	sy
    6ae4:	8b02014a 	add	x10, x10, x2
    6ae8:	d61f0140 	br	x10
    6aec:	d5033f9f 	dsb	sy
    6af0:	8b02014a 	add	x10, x10, x2
    6af4:	d61f0140 	br	x10
    6af8:	d5033f9f 	dsb	sy
    6afc:	8b02014a 	add	x10, x10, x2
    6b00:	d61f0140 	br	x10
    6b04:	d5033f9f 	dsb	sy
    6b08:	8b02014a 	add	x10, x10, x2
    6b0c:	d61f0140 	br	x10
    6b10:	d5033f9f 	dsb	sy
    6b14:	8b02014a 	add	x10, x10, x2
    6b18:	d61f0140 	br	x10
    6b1c:	d5033f9f 	dsb	sy
    6b20:	8b02014a 	add	x10, x10, x2
    6b24:	d61f0140 	br	x10
    6b28:	d5033f9f 	dsb	sy
    6b2c:	8b02014a 	add	x10, x10, x2
    6b30:	d61f0140 	br	x10
    6b34:	d5033f9f 	dsb	sy
    6b38:	8b02014a 	add	x10, x10, x2
    6b3c:	d61f0140 	br	x10
    6b40:	d5033f9f 	dsb	sy
    6b44:	8b02014a 	add	x10, x10, x2
    6b48:	d61f0140 	br	x10
    6b4c:	d5033f9f 	dsb	sy
    6b50:	8b02014a 	add	x10, x10, x2
    6b54:	d61f0140 	br	x10
    6b58:	d5033f9f 	dsb	sy
    6b5c:	8b02014a 	add	x10, x10, x2
    6b60:	d61f0140 	br	x10
    6b64:	d5033f9f 	dsb	sy
    6b68:	8b02014a 	add	x10, x10, x2
    6b6c:	d61f0140 	br	x10
    6b70:	d5033f9f 	dsb	sy
    6b74:	8b02014a 	add	x10, x10, x2
    6b78:	d61f0140 	br	x10
    6b7c:	d5033f9f 	dsb	sy
    6b80:	8b02014a 	add	x10, x10, x2
    6b84:	d61f0140 	br	x10
    6b88:	d5033f9f 	dsb	sy
    6b8c:	8b02014a 	add	x10, x10, x2
    6b90:	d61f0140 	br	x10
    6b94:	d5033f9f 	dsb	sy
    6b98:	8b02014a 	add	x10, x10, x2
    6b9c:	d61f0140 	br	x10
    6ba0:	d5033f9f 	dsb	sy
    6ba4:	8b02014a 	add	x10, x10, x2
    6ba8:	d61f0140 	br	x10
    6bac:	d5033f9f 	dsb	sy
    6bb0:	8b02014a 	add	x10, x10, x2
    6bb4:	d61f0140 	br	x10
    6bb8:	d5033f9f 	dsb	sy
    6bbc:	8b02014a 	add	x10, x10, x2
    6bc0:	d61f0140 	br	x10
    6bc4:	d5033f9f 	dsb	sy
    6bc8:	8b02014a 	add	x10, x10, x2
    6bcc:	d61f0140 	br	x10
    6bd0:	d5033f9f 	dsb	sy
    6bd4:	8b02014a 	add	x10, x10, x2
    6bd8:	d61f0140 	br	x10
    6bdc:	d5033f9f 	dsb	sy
    6be0:	8b02014a 	add	x10, x10, x2
    6be4:	d61f0140 	br	x10
    6be8:	d5033f9f 	dsb	sy
    6bec:	8b02014a 	add	x10, x10, x2
    6bf0:	d61f0140 	br	x10
    6bf4:	d5033f9f 	dsb	sy
    6bf8:	8b02014a 	add	x10, x10, x2
    6bfc:	d61f0140 	br	x10
    6c00:	d5033f9f 	dsb	sy
    6c04:	8b02014a 	add	x10, x10, x2
    6c08:	d61f0140 	br	x10
    6c0c:	d5033f9f 	dsb	sy
    6c10:	8b02014a 	add	x10, x10, x2
    6c14:	d61f0140 	br	x10
    6c18:	d5033f9f 	dsb	sy
    6c1c:	8b02014a 	add	x10, x10, x2
    6c20:	d61f0140 	br	x10
    6c24:	d5033f9f 	dsb	sy
    6c28:	8b02014a 	add	x10, x10, x2
    6c2c:	d61f0140 	br	x10
    6c30:	d5033f9f 	dsb	sy
    6c34:	8b02014a 	add	x10, x10, x2
    6c38:	d61f0140 	br	x10
    6c3c:	d5033f9f 	dsb	sy
    6c40:	8b02014a 	add	x10, x10, x2
    6c44:	d61f0140 	br	x10
    6c48:	d5033f9f 	dsb	sy
    6c4c:	8b02014a 	add	x10, x10, x2
    6c50:	d61f0140 	br	x10
    6c54:	d5033f9f 	dsb	sy
    6c58:	8b02014a 	add	x10, x10, x2
    6c5c:	d61f0140 	br	x10
    6c60:	d5033f9f 	dsb	sy
    6c64:	8b02014a 	add	x10, x10, x2
    6c68:	d61f0140 	br	x10
    6c6c:	d5033f9f 	dsb	sy
    6c70:	8b02014a 	add	x10, x10, x2
    6c74:	d61f0140 	br	x10
    6c78:	d5033f9f 	dsb	sy
    6c7c:	8b02014a 	add	x10, x10, x2
    6c80:	d61f0140 	br	x10
    6c84:	d5033f9f 	dsb	sy
    6c88:	8b02014a 	add	x10, x10, x2
    6c8c:	d61f0140 	br	x10
    6c90:	d5033f9f 	dsb	sy
    6c94:	8b02014a 	add	x10, x10, x2
    6c98:	d61f0140 	br	x10
    6c9c:	d5033f9f 	dsb	sy
    6ca0:	8b02014a 	add	x10, x10, x2
    6ca4:	d61f0140 	br	x10
    6ca8:	d5033f9f 	dsb	sy
    6cac:	8b02014a 	add	x10, x10, x2
    6cb0:	d61f0140 	br	x10
    6cb4:	d5033f9f 	dsb	sy
    6cb8:	8b02014a 	add	x10, x10, x2
    6cbc:	d61f0140 	br	x10
    6cc0:	d5033f9f 	dsb	sy
    6cc4:	8b02014a 	add	x10, x10, x2
    6cc8:	d61f0140 	br	x10
    6ccc:	d5033f9f 	dsb	sy
    6cd0:	8b02014a 	add	x10, x10, x2
    6cd4:	d61f0140 	br	x10
    6cd8:	d5033f9f 	dsb	sy
    6cdc:	8b02014a 	add	x10, x10, x2
    6ce0:	d61f0140 	br	x10
    6ce4:	d5033f9f 	dsb	sy
    6ce8:	8b02014a 	add	x10, x10, x2
    6cec:	d61f0140 	br	x10
    6cf0:	d5033f9f 	dsb	sy
    6cf4:	8b02014a 	add	x10, x10, x2
    6cf8:	d61f0140 	br	x10
    6cfc:	d5033f9f 	dsb	sy
    6d00:	8b02014a 	add	x10, x10, x2
    6d04:	d61f0140 	br	x10
    6d08:	d5033f9f 	dsb	sy
    6d0c:	8b02014a 	add	x10, x10, x2
    6d10:	d61f0140 	br	x10
    6d14:	d5033f9f 	dsb	sy
    6d18:	8b02014a 	add	x10, x10, x2
    6d1c:	d61f0140 	br	x10
    6d20:	d5033f9f 	dsb	sy
    6d24:	8b02014a 	add	x10, x10, x2
    6d28:	d61f0140 	br	x10
    6d2c:	d5033f9f 	dsb	sy
    6d30:	8b02014a 	add	x10, x10, x2
    6d34:	d61f0140 	br	x10
    6d38:	d5033f9f 	dsb	sy
    6d3c:	8b02014a 	add	x10, x10, x2
    6d40:	d61f0140 	br	x10
    6d44:	d5033f9f 	dsb	sy
    6d48:	8b02014a 	add	x10, x10, x2
    6d4c:	d61f0140 	br	x10
    6d50:	d5033f9f 	dsb	sy
    6d54:	8b02014a 	add	x10, x10, x2
    6d58:	d61f0140 	br	x10
    6d5c:	d5033f9f 	dsb	sy
    6d60:	8b02014a 	add	x10, x10, x2
    6d64:	d61f0140 	br	x10
    6d68:	d5033f9f 	dsb	sy
    6d6c:	8b02014a 	add	x10, x10, x2
    6d70:	d61f0140 	br	x10
    6d74:	d5033f9f 	dsb	sy
    6d78:	8b02014a 	add	x10, x10, x2
    6d7c:	d61f0140 	br	x10
    6d80:	d5033f9f 	dsb	sy
    6d84:	8b02014a 	add	x10, x10, x2
    6d88:	d61f0140 	br	x10
    6d8c:	d5033f9f 	dsb	sy
    6d90:	8b02014a 	add	x10, x10, x2
    6d94:	d61f0140 	br	x10
    6d98:	d5033f9f 	dsb	sy
    6d9c:	8b02014a 	add	x10, x10, x2
    6da0:	d61f0140 	br	x10
    6da4:	d5033f9f 	dsb	sy
    6da8:	8b02014a 	add	x10, x10, x2
    6dac:	d61f0140 	br	x10
    6db0:	d5033f9f 	dsb	sy
    6db4:	8b02014a 	add	x10, x10, x2
    6db8:	d61f0140 	br	x10
    6dbc:	d5033f9f 	dsb	sy
    6dc0:	8b02014a 	add	x10, x10, x2
    6dc4:	d61f0140 	br	x10
    6dc8:	d5033f9f 	dsb	sy
    6dcc:	8b02014a 	add	x10, x10, x2
    6dd0:	d61f0140 	br	x10
    6dd4:	d5033f9f 	dsb	sy
    6dd8:	8b02014a 	add	x10, x10, x2
    6ddc:	d61f0140 	br	x10
    6de0:	d5033f9f 	dsb	sy
    6de4:	8b02014a 	add	x10, x10, x2
    6de8:	d61f0140 	br	x10
    6dec:	d5033f9f 	dsb	sy
    6df0:	8b02014a 	add	x10, x10, x2
    6df4:	d61f0140 	br	x10
    6df8:	d5033f9f 	dsb	sy
    6dfc:	8b02014a 	add	x10, x10, x2
    6e00:	d61f0140 	br	x10
    6e04:	d5033f9f 	dsb	sy
    6e08:	8b02014a 	add	x10, x10, x2
    6e0c:	d61f0140 	br	x10
    6e10:	d5033f9f 	dsb	sy
    6e14:	8b02014a 	add	x10, x10, x2
    6e18:	d61f0140 	br	x10
    6e1c:	d5033f9f 	dsb	sy
    6e20:	8b02014a 	add	x10, x10, x2
    6e24:	d61f0140 	br	x10
    6e28:	d5033f9f 	dsb	sy
    6e2c:	8b02014a 	add	x10, x10, x2
    6e30:	d61f0140 	br	x10
    6e34:	d5033f9f 	dsb	sy
    6e38:	8b02014a 	add	x10, x10, x2
    6e3c:	d61f0140 	br	x10
    6e40:	d5033f9f 	dsb	sy
    6e44:	8b02014a 	add	x10, x10, x2
    6e48:	d61f0140 	br	x10
    6e4c:	d5033f9f 	dsb	sy
    6e50:	8b02014a 	add	x10, x10, x2
    6e54:	d61f0140 	br	x10
    6e58:	d5033f9f 	dsb	sy
    6e5c:	8b02014a 	add	x10, x10, x2
    6e60:	d61f0140 	br	x10
    6e64:	d5033f9f 	dsb	sy
    6e68:	8b02014a 	add	x10, x10, x2
    6e6c:	d61f0140 	br	x10
    6e70:	d5033f9f 	dsb	sy
    6e74:	8b02014a 	add	x10, x10, x2
    6e78:	d61f0140 	br	x10
    6e7c:	d5033f9f 	dsb	sy
    6e80:	8b02014a 	add	x10, x10, x2
    6e84:	d61f0140 	br	x10
    6e88:	d5033f9f 	dsb	sy
    6e8c:	8b02014a 	add	x10, x10, x2
    6e90:	d61f0140 	br	x10
    6e94:	d5033f9f 	dsb	sy
    6e98:	8b02014a 	add	x10, x10, x2
    6e9c:	d61f0140 	br	x10
    6ea0:	d5033f9f 	dsb	sy
    6ea4:	8b02014a 	add	x10, x10, x2
    6ea8:	d61f0140 	br	x10
    6eac:	d5033f9f 	dsb	sy
    6eb0:	8b02014a 	add	x10, x10, x2
    6eb4:	d61f0140 	br	x10
    6eb8:	d5033f9f 	dsb	sy
    6ebc:	8b02014a 	add	x10, x10, x2
    6ec0:	d61f0140 	br	x10
    6ec4:	d5033f9f 	dsb	sy
    6ec8:	8b02014a 	add	x10, x10, x2
    6ecc:	d61f0140 	br	x10
    6ed0:	d5033f9f 	dsb	sy
    6ed4:	8b02014a 	add	x10, x10, x2
    6ed8:	d61f0140 	br	x10
    6edc:	d5033f9f 	dsb	sy
    6ee0:	8b02014a 	add	x10, x10, x2
    6ee4:	d61f0140 	br	x10
    6ee8:	d5033f9f 	dsb	sy
    6eec:	8b02014a 	add	x10, x10, x2
    6ef0:	d61f0140 	br	x10
    6ef4:	d5033f9f 	dsb	sy
    6ef8:	8b02014a 	add	x10, x10, x2
    6efc:	d61f0140 	br	x10
    6f00:	d5033f9f 	dsb	sy
    6f04:	8b02014a 	add	x10, x10, x2
    6f08:	d61f0140 	br	x10
    6f0c:	d5033f9f 	dsb	sy
    6f10:	8b02014a 	add	x10, x10, x2
    6f14:	d61f0140 	br	x10
    6f18:	d5033f9f 	dsb	sy
    6f1c:	8b02014a 	add	x10, x10, x2
    6f20:	d61f0140 	br	x10
    6f24:	d5033f9f 	dsb	sy
    6f28:	8b02014a 	add	x10, x10, x2
    6f2c:	d61f0140 	br	x10
    6f30:	d5033f9f 	dsb	sy
    6f34:	8b02014a 	add	x10, x10, x2
    6f38:	d61f0140 	br	x10
    6f3c:	d5033f9f 	dsb	sy
    6f40:	8b02014a 	add	x10, x10, x2
    6f44:	d61f0140 	br	x10
    6f48:	d5033f9f 	dsb	sy
    6f4c:	8b02014a 	add	x10, x10, x2
    6f50:	d61f0140 	br	x10
    6f54:	d5033f9f 	dsb	sy
    6f58:	8b02014a 	add	x10, x10, x2
    6f5c:	d61f0140 	br	x10
    6f60:	d5033f9f 	dsb	sy
    6f64:	8b02014a 	add	x10, x10, x2
    6f68:	d61f0140 	br	x10
    6f6c:	d5033f9f 	dsb	sy
    6f70:	8b02014a 	add	x10, x10, x2
    6f74:	d61f0140 	br	x10
    6f78:	d5033f9f 	dsb	sy
    6f7c:	8b02014a 	add	x10, x10, x2
    6f80:	d61f0140 	br	x10
    6f84:	d5033f9f 	dsb	sy
    6f88:	8b02014a 	add	x10, x10, x2
    6f8c:	d61f0140 	br	x10
    6f90:	d5033f9f 	dsb	sy
    6f94:	8b02014a 	add	x10, x10, x2
    6f98:	d61f0140 	br	x10
    6f9c:	d5033f9f 	dsb	sy
    6fa0:	8b02014a 	add	x10, x10, x2
    6fa4:	d61f0140 	br	x10
    6fa8:	d5033f9f 	dsb	sy
    6fac:	8b02014a 	add	x10, x10, x2
    6fb0:	d61f0140 	br	x10
    6fb4:	d5033f9f 	dsb	sy
    6fb8:	8b02014a 	add	x10, x10, x2
    6fbc:	d61f0140 	br	x10
    6fc0:	d5033f9f 	dsb	sy
    6fc4:	8b02014a 	add	x10, x10, x2
    6fc8:	d61f0140 	br	x10
    6fcc:	d5033f9f 	dsb	sy
    6fd0:	8b02014a 	add	x10, x10, x2
    6fd4:	d61f0140 	br	x10
    6fd8:	d5033f9f 	dsb	sy
    6fdc:	8b02014a 	add	x10, x10, x2
    6fe0:	d61f0140 	br	x10
    6fe4:	d5033f9f 	dsb	sy
    6fe8:	8b02014a 	add	x10, x10, x2
    6fec:	d61f0140 	br	x10
    6ff0:	d5033f9f 	dsb	sy
    6ff4:	8b02014a 	add	x10, x10, x2
    6ff8:	d61f0140 	br	x10
    6ffc:	d5033f9f 	dsb	sy
    7000:	8b02014a 	add	x10, x10, x2
    7004:	d61f0140 	br	x10
    7008:	d5033f9f 	dsb	sy
    700c:	8b02014a 	add	x10, x10, x2
    7010:	d61f0140 	br	x10
    7014:	d5033f9f 	dsb	sy
    7018:	8b02014a 	add	x10, x10, x2
    701c:	d61f0140 	br	x10
    7020:	d5033f9f 	dsb	sy
    7024:	8b02014a 	add	x10, x10, x2
    7028:	d61f0140 	br	x10
    702c:	d5033f9f 	dsb	sy
    7030:	8b02014a 	add	x10, x10, x2
    7034:	d61f0140 	br	x10
    7038:	d5033f9f 	dsb	sy
    703c:	8b02014a 	add	x10, x10, x2
    7040:	d61f0140 	br	x10
    7044:	d5033f9f 	dsb	sy
    7048:	8b02014a 	add	x10, x10, x2
    704c:	d61f0140 	br	x10
    7050:	d5033f9f 	dsb	sy
    7054:	8b02014a 	add	x10, x10, x2
    7058:	d61f0140 	br	x10
    705c:	d5033f9f 	dsb	sy
    7060:	8b02014a 	add	x10, x10, x2
    7064:	d61f0140 	br	x10
    7068:	d5033f9f 	dsb	sy
    706c:	8b02014a 	add	x10, x10, x2
    7070:	d61f0140 	br	x10
    7074:	d5033f9f 	dsb	sy
    7078:	8b02014a 	add	x10, x10, x2
    707c:	d61f0140 	br	x10
    7080:	d5033f9f 	dsb	sy
    7084:	8b02014a 	add	x10, x10, x2
    7088:	d61f0140 	br	x10
    708c:	d5033f9f 	dsb	sy
    7090:	8b02014a 	add	x10, x10, x2
    7094:	d61f0140 	br	x10
    7098:	d5033f9f 	dsb	sy
    709c:	8b02014a 	add	x10, x10, x2
    70a0:	d61f0140 	br	x10
    70a4:	d5033f9f 	dsb	sy
    70a8:	8b02014a 	add	x10, x10, x2
    70ac:	d61f0140 	br	x10
    70b0:	d5033f9f 	dsb	sy
    70b4:	8b02014a 	add	x10, x10, x2
    70b8:	d61f0140 	br	x10
    70bc:	d5033f9f 	dsb	sy
    70c0:	8b02014a 	add	x10, x10, x2
    70c4:	d61f0140 	br	x10
    70c8:	d5033f9f 	dsb	sy
    70cc:	8b02014a 	add	x10, x10, x2
    70d0:	d61f0140 	br	x10
    70d4:	d5033f9f 	dsb	sy
    70d8:	8b02014a 	add	x10, x10, x2
    70dc:	d61f0140 	br	x10
    70e0:	d5033f9f 	dsb	sy
    70e4:	8b02014a 	add	x10, x10, x2
    70e8:	d61f0140 	br	x10
    70ec:	d5033f9f 	dsb	sy
    70f0:	8b02014a 	add	x10, x10, x2
    70f4:	d61f0140 	br	x10
    70f8:	d5033f9f 	dsb	sy
    70fc:	8b02014a 	add	x10, x10, x2
    7100:	d61f0140 	br	x10
    7104:	d5033f9f 	dsb	sy
    7108:	8b02014a 	add	x10, x10, x2
    710c:	d61f0140 	br	x10
    7110:	d5033f9f 	dsb	sy
    7114:	8b02014a 	add	x10, x10, x2
    7118:	d61f0140 	br	x10
    711c:	d5033f9f 	dsb	sy
    7120:	8b02014a 	add	x10, x10, x2
    7124:	d61f0140 	br	x10
    7128:	d5033f9f 	dsb	sy
    712c:	8b02014a 	add	x10, x10, x2
    7130:	d61f0140 	br	x10
    7134:	d5033f9f 	dsb	sy
    7138:	8b02014a 	add	x10, x10, x2
    713c:	d61f0140 	br	x10
    7140:	d5033f9f 	dsb	sy
    7144:	8b02014a 	add	x10, x10, x2
    7148:	d61f0140 	br	x10
    714c:	d5033f9f 	dsb	sy
    7150:	8b02014a 	add	x10, x10, x2
    7154:	d61f0140 	br	x10
    7158:	d5033f9f 	dsb	sy
    715c:	8b02014a 	add	x10, x10, x2
    7160:	d61f0140 	br	x10
    7164:	d5033f9f 	dsb	sy
    7168:	8b02014a 	add	x10, x10, x2
    716c:	d61f0140 	br	x10
    7170:	d5033f9f 	dsb	sy
    7174:	8b02014a 	add	x10, x10, x2
    7178:	d61f0140 	br	x10
    717c:	d5033f9f 	dsb	sy
    7180:	8b02014a 	add	x10, x10, x2
    7184:	d61f0140 	br	x10
    7188:	d5033f9f 	dsb	sy
    718c:	8b02014a 	add	x10, x10, x2
    7190:	d61f0140 	br	x10
    7194:	d5033f9f 	dsb	sy
    7198:	8b02014a 	add	x10, x10, x2
    719c:	d61f0140 	br	x10
    71a0:	d5033f9f 	dsb	sy
    71a4:	8b02014a 	add	x10, x10, x2
    71a8:	d61f0140 	br	x10
    71ac:	d5033f9f 	dsb	sy
    71b0:	8b02014a 	add	x10, x10, x2
    71b4:	d61f0140 	br	x10
    71b8:	d5033f9f 	dsb	sy
    71bc:	8b02014a 	add	x10, x10, x2
    71c0:	d61f0140 	br	x10
    71c4:	d5033f9f 	dsb	sy
    71c8:	8b02014a 	add	x10, x10, x2
    71cc:	d61f0140 	br	x10
    71d0:	d5033f9f 	dsb	sy
    71d4:	8b02014a 	add	x10, x10, x2
    71d8:	d61f0140 	br	x10
    71dc:	d5033f9f 	dsb	sy
    71e0:	8b02014a 	add	x10, x10, x2
    71e4:	d61f0140 	br	x10
    71e8:	d5033f9f 	dsb	sy
    71ec:	8b02014a 	add	x10, x10, x2
    71f0:	d61f0140 	br	x10
    71f4:	d5033f9f 	dsb	sy
    71f8:	8b02014a 	add	x10, x10, x2
    71fc:	d61f0140 	br	x10
    7200:	d5033f9f 	dsb	sy
    7204:	8b02014a 	add	x10, x10, x2
    7208:	d61f0140 	br	x10
    720c:	d5033f9f 	dsb	sy
    7210:	8b02014a 	add	x10, x10, x2
    7214:	d61f0140 	br	x10
    7218:	d5033f9f 	dsb	sy
    721c:	8b02014a 	add	x10, x10, x2
    7220:	d61f0140 	br	x10
    7224:	d5033f9f 	dsb	sy
    7228:	8b02014a 	add	x10, x10, x2
    722c:	d61f0140 	br	x10
    7230:	d5033f9f 	dsb	sy
    7234:	8b02014a 	add	x10, x10, x2
    7238:	d61f0140 	br	x10
    723c:	d5033f9f 	dsb	sy
    7240:	8b02014a 	add	x10, x10, x2
    7244:	d61f0140 	br	x10
    7248:	d5033f9f 	dsb	sy
    724c:	8b02014a 	add	x10, x10, x2
    7250:	d61f0140 	br	x10
    7254:	d5033f9f 	dsb	sy
    7258:	8b02014a 	add	x10, x10, x2
    725c:	d61f0140 	br	x10
    7260:	d5033f9f 	dsb	sy
    7264:	8b02014a 	add	x10, x10, x2
    7268:	d61f0140 	br	x10
    726c:	d5033f9f 	dsb	sy
    7270:	8b02014a 	add	x10, x10, x2
    7274:	d61f0140 	br	x10
    7278:	d5033f9f 	dsb	sy
    727c:	8b02014a 	add	x10, x10, x2
    7280:	d61f0140 	br	x10
    7284:	d5033f9f 	dsb	sy
    7288:	8b02014a 	add	x10, x10, x2
    728c:	d61f0140 	br	x10
    7290:	d5033f9f 	dsb	sy
    7294:	8b02014a 	add	x10, x10, x2
    7298:	d61f0140 	br	x10
    729c:	d5033f9f 	dsb	sy
    72a0:	8b02014a 	add	x10, x10, x2
    72a4:	d61f0140 	br	x10
    72a8:	d5033f9f 	dsb	sy
    72ac:	8b02014a 	add	x10, x10, x2
    72b0:	d61f0140 	br	x10
    72b4:	d5033f9f 	dsb	sy
    72b8:	8b02014a 	add	x10, x10, x2
    72bc:	d61f0140 	br	x10
    72c0:	d5033f9f 	dsb	sy
    72c4:	8b02014a 	add	x10, x10, x2
    72c8:	d61f0140 	br	x10
    72cc:	d5033f9f 	dsb	sy
    72d0:	8b02014a 	add	x10, x10, x2
    72d4:	d61f0140 	br	x10
    72d8:	d5033f9f 	dsb	sy
    72dc:	8b02014a 	add	x10, x10, x2
    72e0:	d61f0140 	br	x10
    72e4:	d5033f9f 	dsb	sy
    72e8:	8b02014a 	add	x10, x10, x2
    72ec:	d61f0140 	br	x10
    72f0:	d5033f9f 	dsb	sy
    72f4:	8b02014a 	add	x10, x10, x2
    72f8:	d61f0140 	br	x10
    72fc:	d5033f9f 	dsb	sy
    7300:	8b02014a 	add	x10, x10, x2
    7304:	d61f0140 	br	x10
    7308:	d5033f9f 	dsb	sy
    730c:	8b02014a 	add	x10, x10, x2
    7310:	d61f0140 	br	x10
    7314:	d5033f9f 	dsb	sy
    7318:	8b02014a 	add	x10, x10, x2
    731c:	d61f0140 	br	x10
    7320:	d5033f9f 	dsb	sy
    7324:	8b02014a 	add	x10, x10, x2
    7328:	d61f0140 	br	x10
    732c:	d5033f9f 	dsb	sy
    7330:	8b02014a 	add	x10, x10, x2
    7334:	d61f0140 	br	x10
    7338:	d5033f9f 	dsb	sy
    733c:	8b02014a 	add	x10, x10, x2
    7340:	d61f0140 	br	x10
    7344:	d5033f9f 	dsb	sy
    7348:	8b02014a 	add	x10, x10, x2
    734c:	d61f0140 	br	x10
    7350:	d5033f9f 	dsb	sy
    7354:	8b02014a 	add	x10, x10, x2
    7358:	d61f0140 	br	x10
    735c:	d5033f9f 	dsb	sy
    7360:	8b02014a 	add	x10, x10, x2
    7364:	d61f0140 	br	x10
    7368:	d5033f9f 	dsb	sy
    736c:	8b02014a 	add	x10, x10, x2
    7370:	d61f0140 	br	x10
    7374:	d5033f9f 	dsb	sy
    7378:	8b02014a 	add	x10, x10, x2
    737c:	d61f0140 	br	x10
    7380:	d5033f9f 	dsb	sy
    7384:	8b02014a 	add	x10, x10, x2
    7388:	d61f0140 	br	x10
    738c:	d5033f9f 	dsb	sy
    7390:	8b02014a 	add	x10, x10, x2
    7394:	d61f0140 	br	x10
    7398:	d5033f9f 	dsb	sy
    739c:	8b02014a 	add	x10, x10, x2
    73a0:	d61f0140 	br	x10
    73a4:	d5033f9f 	dsb	sy
    73a8:	8b02014a 	add	x10, x10, x2
    73ac:	d61f0140 	br	x10
    73b0:	d5033f9f 	dsb	sy
    73b4:	8b02014a 	add	x10, x10, x2
    73b8:	d61f0140 	br	x10
    73bc:	d5033f9f 	dsb	sy
    73c0:	8b02014a 	add	x10, x10, x2
    73c4:	d61f0140 	br	x10
    73c8:	d5033f9f 	dsb	sy
    73cc:	8b02014a 	add	x10, x10, x2
    73d0:	d61f0140 	br	x10
    73d4:	d5033f9f 	dsb	sy
    73d8:	8b02014a 	add	x10, x10, x2
    73dc:	d61f0140 	br	x10
    73e0:	d5033f9f 	dsb	sy
    73e4:	8b02014a 	add	x10, x10, x2
    73e8:	d61f0140 	br	x10
    73ec:	d5033f9f 	dsb	sy
    73f0:	8b02014a 	add	x10, x10, x2
    73f4:	d61f0140 	br	x10
    73f8:	d5033f9f 	dsb	sy
    73fc:	8b02014a 	add	x10, x10, x2
    7400:	d61f0140 	br	x10
    7404:	d5033f9f 	dsb	sy
    7408:	8b02014a 	add	x10, x10, x2
    740c:	d61f0140 	br	x10
    7410:	d5033f9f 	dsb	sy
    7414:	8b02014a 	add	x10, x10, x2
    7418:	d61f0140 	br	x10
    741c:	d5033f9f 	dsb	sy
    7420:	8b02014a 	add	x10, x10, x2
    7424:	d61f0140 	br	x10
    7428:	d5033f9f 	dsb	sy
    742c:	8b02014a 	add	x10, x10, x2
    7430:	d61f0140 	br	x10
    7434:	d5033f9f 	dsb	sy
    7438:	8b02014a 	add	x10, x10, x2
    743c:	d61f0140 	br	x10
    7440:	d5033f9f 	dsb	sy
    7444:	8b02014a 	add	x10, x10, x2
    7448:	d61f0140 	br	x10
    744c:	d5033f9f 	dsb	sy
    7450:	8b02014a 	add	x10, x10, x2
    7454:	d61f0140 	br	x10
    7458:	d5033f9f 	dsb	sy
    745c:	8b02014a 	add	x10, x10, x2
    7460:	d61f0140 	br	x10
    7464:	d5033f9f 	dsb	sy
    7468:	8b02014a 	add	x10, x10, x2
    746c:	d61f0140 	br	x10
    7470:	d5033f9f 	dsb	sy
    7474:	8b02014a 	add	x10, x10, x2
    7478:	d61f0140 	br	x10
    747c:	d5033f9f 	dsb	sy
    7480:	8b02014a 	add	x10, x10, x2
    7484:	d61f0140 	br	x10
    7488:	d5033f9f 	dsb	sy
    748c:	8b02014a 	add	x10, x10, x2
    7490:	d61f0140 	br	x10
    7494:	d5033f9f 	dsb	sy
    7498:	8b02014a 	add	x10, x10, x2
    749c:	d61f0140 	br	x10
    74a0:	d5033f9f 	dsb	sy
    74a4:	8b02014a 	add	x10, x10, x2
    74a8:	d61f0140 	br	x10
    74ac:	d5033f9f 	dsb	sy
    74b0:	8b02014a 	add	x10, x10, x2
    74b4:	d61f0140 	br	x10
    74b8:	d5033f9f 	dsb	sy
    74bc:	8b02014a 	add	x10, x10, x2
    74c0:	d61f0140 	br	x10
    74c4:	d5033f9f 	dsb	sy
    74c8:	8b02014a 	add	x10, x10, x2
    74cc:	d61f0140 	br	x10
    74d0:	d5033f9f 	dsb	sy
    74d4:	8b02014a 	add	x10, x10, x2
    74d8:	d61f0140 	br	x10
    74dc:	d5033f9f 	dsb	sy
    74e0:	8b02014a 	add	x10, x10, x2
    74e4:	d61f0140 	br	x10
    74e8:	d5033f9f 	dsb	sy
    74ec:	8b02014a 	add	x10, x10, x2
    74f0:	d61f0140 	br	x10
    74f4:	d5033f9f 	dsb	sy
    74f8:	8b02014a 	add	x10, x10, x2
    74fc:	d61f0140 	br	x10
    7500:	d5033f9f 	dsb	sy
    7504:	8b02014a 	add	x10, x10, x2
    7508:	d61f0140 	br	x10
    750c:	d5033f9f 	dsb	sy
    7510:	8b02014a 	add	x10, x10, x2
    7514:	d61f0140 	br	x10
    7518:	d5033f9f 	dsb	sy
    751c:	8b02014a 	add	x10, x10, x2
    7520:	d61f0140 	br	x10
    7524:	d5033f9f 	dsb	sy
    7528:	8b02014a 	add	x10, x10, x2
    752c:	d61f0140 	br	x10
    7530:	d5033f9f 	dsb	sy
    7534:	8b02014a 	add	x10, x10, x2
    7538:	d61f0140 	br	x10
    753c:	d5033f9f 	dsb	sy
    7540:	8b02014a 	add	x10, x10, x2
    7544:	d61f0140 	br	x10
    7548:	d5033f9f 	dsb	sy
    754c:	8b02014a 	add	x10, x10, x2
    7550:	d61f0140 	br	x10
    7554:	d5033f9f 	dsb	sy
    7558:	8b02014a 	add	x10, x10, x2
    755c:	d61f0140 	br	x10
    7560:	d5033f9f 	dsb	sy
    7564:	8b02014a 	add	x10, x10, x2
    7568:	d61f0140 	br	x10
    756c:	d5033f9f 	dsb	sy
    7570:	8b02014a 	add	x10, x10, x2
    7574:	d61f0140 	br	x10
    7578:	d5033f9f 	dsb	sy
    757c:	8b02014a 	add	x10, x10, x2
    7580:	d61f0140 	br	x10
    7584:	d5033f9f 	dsb	sy
    7588:	8b02014a 	add	x10, x10, x2
    758c:	d61f0140 	br	x10
    7590:	d5033f9f 	dsb	sy
    7594:	8b02014a 	add	x10, x10, x2
    7598:	d61f0140 	br	x10
    759c:	d5033f9f 	dsb	sy
    75a0:	8b02014a 	add	x10, x10, x2
    75a4:	d61f0140 	br	x10
    75a8:	d5033f9f 	dsb	sy
    75ac:	8b02014a 	add	x10, x10, x2
    75b0:	d61f0140 	br	x10
    75b4:	d5033f9f 	dsb	sy
    75b8:	8b02014a 	add	x10, x10, x2
    75bc:	d61f0140 	br	x10
    75c0:	d5033f9f 	dsb	sy
    75c4:	8b02014a 	add	x10, x10, x2
    75c8:	d61f0140 	br	x10
    75cc:	d5033f9f 	dsb	sy
    75d0:	8b02014a 	add	x10, x10, x2
    75d4:	d61f0140 	br	x10
    75d8:	d5033f9f 	dsb	sy
    75dc:	8b02014a 	add	x10, x10, x2
    75e0:	d61f0140 	br	x10
    75e4:	d5033f9f 	dsb	sy
    75e8:	8b02014a 	add	x10, x10, x2
    75ec:	d61f0140 	br	x10
    75f0:	d5033f9f 	dsb	sy
    75f4:	8b02014a 	add	x10, x10, x2
    75f8:	d61f0140 	br	x10
    75fc:	d5033f9f 	dsb	sy
    7600:	8b02014a 	add	x10, x10, x2
    7604:	d61f0140 	br	x10
    7608:	d5033f9f 	dsb	sy
    760c:	8b02014a 	add	x10, x10, x2
    7610:	d61f0140 	br	x10
    7614:	d5033f9f 	dsb	sy
    7618:	8b02014a 	add	x10, x10, x2
    761c:	d61f0140 	br	x10
    7620:	d5033f9f 	dsb	sy
    7624:	8b02014a 	add	x10, x10, x2
    7628:	d61f0140 	br	x10
    762c:	d5033f9f 	dsb	sy
    7630:	8b02014a 	add	x10, x10, x2
    7634:	d61f0140 	br	x10
    7638:	d5033f9f 	dsb	sy
    763c:	8b02014a 	add	x10, x10, x2
    7640:	d61f0140 	br	x10
    7644:	d5033f9f 	dsb	sy
    7648:	8b02014a 	add	x10, x10, x2
    764c:	d61f0140 	br	x10
    7650:	d5033f9f 	dsb	sy
    7654:	8b02014a 	add	x10, x10, x2
    7658:	d61f0140 	br	x10
    765c:	d5033f9f 	dsb	sy
    7660:	8b02014a 	add	x10, x10, x2
    7664:	d61f0140 	br	x10
    7668:	d5033f9f 	dsb	sy
    766c:	8b02014a 	add	x10, x10, x2
    7670:	d61f0140 	br	x10
    7674:	d5033f9f 	dsb	sy
    7678:	8b02014a 	add	x10, x10, x2
    767c:	d61f0140 	br	x10
    7680:	d5033f9f 	dsb	sy
    7684:	8b02014a 	add	x10, x10, x2
    7688:	d61f0140 	br	x10
    768c:	d5033f9f 	dsb	sy
    7690:	8b02014a 	add	x10, x10, x2
    7694:	d61f0140 	br	x10
    7698:	d5033f9f 	dsb	sy
    769c:	8b02014a 	add	x10, x10, x2
    76a0:	d61f0140 	br	x10
    76a4:	d5033f9f 	dsb	sy
    76a8:	8b02014a 	add	x10, x10, x2
    76ac:	d61f0140 	br	x10
    76b0:	d5033f9f 	dsb	sy
    76b4:	8b02014a 	add	x10, x10, x2
    76b8:	d61f0140 	br	x10
    76bc:	d5033f9f 	dsb	sy
    76c0:	8b02014a 	add	x10, x10, x2
    76c4:	d61f0140 	br	x10
    76c8:	d5033f9f 	dsb	sy
    76cc:	8b02014a 	add	x10, x10, x2
    76d0:	d61f0140 	br	x10
    76d4:	d5033f9f 	dsb	sy
    76d8:	8b02014a 	add	x10, x10, x2
    76dc:	d61f0140 	br	x10
    76e0:	d5033f9f 	dsb	sy
    76e4:	8b02014a 	add	x10, x10, x2
    76e8:	d61f0140 	br	x10
    76ec:	d5033f9f 	dsb	sy
    76f0:	8b02014a 	add	x10, x10, x2
    76f4:	d61f0140 	br	x10
    76f8:	d5033f9f 	dsb	sy
    76fc:	8b02014a 	add	x10, x10, x2
    7700:	d61f0140 	br	x10
    7704:	d5033f9f 	dsb	sy
    7708:	8b02014a 	add	x10, x10, x2
    770c:	d61f0140 	br	x10
    7710:	d5033f9f 	dsb	sy
    7714:	8b02014a 	add	x10, x10, x2
    7718:	d61f0140 	br	x10
    771c:	d5033f9f 	dsb	sy
    7720:	8b02014a 	add	x10, x10, x2
    7724:	d61f0140 	br	x10
    7728:	d5033f9f 	dsb	sy
    772c:	8b02014a 	add	x10, x10, x2
    7730:	d61f0140 	br	x10
    7734:	d5033f9f 	dsb	sy
    7738:	8b02014a 	add	x10, x10, x2
    773c:	d61f0140 	br	x10
    7740:	d5033f9f 	dsb	sy
    7744:	8b02014a 	add	x10, x10, x2
    7748:	d61f0140 	br	x10
    774c:	d5033f9f 	dsb	sy
    7750:	8b02014a 	add	x10, x10, x2
    7754:	d61f0140 	br	x10
    7758:	d5033f9f 	dsb	sy
    775c:	8b02014a 	add	x10, x10, x2
    7760:	d61f0140 	br	x10
    7764:	d5033f9f 	dsb	sy
    7768:	8b02014a 	add	x10, x10, x2
    776c:	d61f0140 	br	x10
    7770:	d5033f9f 	dsb	sy
    7774:	8b02014a 	add	x10, x10, x2
    7778:	d61f0140 	br	x10
    777c:	d5033f9f 	dsb	sy
    7780:	8b02014a 	add	x10, x10, x2
    7784:	d61f0140 	br	x10
    7788:	d5033f9f 	dsb	sy
    778c:	8b02014a 	add	x10, x10, x2
    7790:	d61f0140 	br	x10
    7794:	d5033f9f 	dsb	sy
    7798:	8b02014a 	add	x10, x10, x2
    779c:	d61f0140 	br	x10
    77a0:	d5033f9f 	dsb	sy
    77a4:	8b02014a 	add	x10, x10, x2
    77a8:	d61f0140 	br	x10
    77ac:	d5033f9f 	dsb	sy
    77b0:	8b02014a 	add	x10, x10, x2
    77b4:	d61f0140 	br	x10
    77b8:	d5033f9f 	dsb	sy
    77bc:	8b02014a 	add	x10, x10, x2
    77c0:	d61f0140 	br	x10
    77c4:	d5033f9f 	dsb	sy
    77c8:	8b02014a 	add	x10, x10, x2
    77cc:	d61f0140 	br	x10
    77d0:	d5033f9f 	dsb	sy
    77d4:	8b02014a 	add	x10, x10, x2
    77d8:	d61f0140 	br	x10
    77dc:	d5033f9f 	dsb	sy
    77e0:	8b02014a 	add	x10, x10, x2
    77e4:	d61f0140 	br	x10
    77e8:	d5033f9f 	dsb	sy
    77ec:	8b02014a 	add	x10, x10, x2
    77f0:	d61f0140 	br	x10
    77f4:	d5033f9f 	dsb	sy
    77f8:	8b02014a 	add	x10, x10, x2
    77fc:	d61f0140 	br	x10
    7800:	d5033f9f 	dsb	sy
    7804:	8b02014a 	add	x10, x10, x2
    7808:	d61f0140 	br	x10
    780c:	d5033f9f 	dsb	sy
    7810:	8b02014a 	add	x10, x10, x2
    7814:	d61f0140 	br	x10
    7818:	d5033f9f 	dsb	sy
    781c:	8b02014a 	add	x10, x10, x2
    7820:	d61f0140 	br	x10
    7824:	d5033f9f 	dsb	sy
    7828:	8b02014a 	add	x10, x10, x2
    782c:	d61f0140 	br	x10
    7830:	d5033f9f 	dsb	sy
    7834:	8b02014a 	add	x10, x10, x2
    7838:	d61f0140 	br	x10
    783c:	d5033f9f 	dsb	sy
    7840:	8b02014a 	add	x10, x10, x2
    7844:	d61f0140 	br	x10
    7848:	d5033f9f 	dsb	sy
    784c:	8b02014a 	add	x10, x10, x2
    7850:	d61f0140 	br	x10
    7854:	d5033f9f 	dsb	sy
    7858:	8b02014a 	add	x10, x10, x2
    785c:	d61f0140 	br	x10
    7860:	d5033f9f 	dsb	sy
    7864:	8b02014a 	add	x10, x10, x2
    7868:	d61f0140 	br	x10
    786c:	d5033f9f 	dsb	sy
    7870:	8b02014a 	add	x10, x10, x2
    7874:	d61f0140 	br	x10
    7878:	d5033f9f 	dsb	sy
    787c:	8b02014a 	add	x10, x10, x2
    7880:	d61f0140 	br	x10
    7884:	d5033f9f 	dsb	sy
    7888:	8b02014a 	add	x10, x10, x2
    788c:	d61f0140 	br	x10
    7890:	d5033f9f 	dsb	sy
    7894:	8b02014a 	add	x10, x10, x2
    7898:	d61f0140 	br	x10
    789c:	d5033f9f 	dsb	sy
    78a0:	8b02014a 	add	x10, x10, x2
    78a4:	d61f0140 	br	x10
    78a8:	d5033f9f 	dsb	sy
    78ac:	8b02014a 	add	x10, x10, x2
    78b0:	d61f0140 	br	x10
    78b4:	d5033f9f 	dsb	sy
    78b8:	8b02014a 	add	x10, x10, x2
    78bc:	d61f0140 	br	x10
    78c0:	d5033f9f 	dsb	sy
    78c4:	8b02014a 	add	x10, x10, x2
    78c8:	d61f0140 	br	x10
    78cc:	d5033f9f 	dsb	sy
    78d0:	8b02014a 	add	x10, x10, x2
    78d4:	d61f0140 	br	x10
    78d8:	d5033f9f 	dsb	sy
    78dc:	8b02014a 	add	x10, x10, x2
    78e0:	d61f0140 	br	x10
    78e4:	d5033f9f 	dsb	sy
    78e8:	8b02014a 	add	x10, x10, x2
    78ec:	d61f0140 	br	x10
    78f0:	d5033f9f 	dsb	sy
    78f4:	8b02014a 	add	x10, x10, x2
    78f8:	d61f0140 	br	x10
    78fc:	d5033f9f 	dsb	sy
    7900:	8b02014a 	add	x10, x10, x2
    7904:	d61f0140 	br	x10
    7908:	d5033f9f 	dsb	sy
    790c:	8b02014a 	add	x10, x10, x2
    7910:	d61f0140 	br	x10
    7914:	d5033f9f 	dsb	sy
    7918:	8b02014a 	add	x10, x10, x2
    791c:	d61f0140 	br	x10
    7920:	d5033f9f 	dsb	sy
    7924:	8b02014a 	add	x10, x10, x2
    7928:	d61f0140 	br	x10
    792c:	d5033f9f 	dsb	sy
    7930:	8b02014a 	add	x10, x10, x2
    7934:	d61f0140 	br	x10
    7938:	d5033f9f 	dsb	sy
    793c:	8b02014a 	add	x10, x10, x2
    7940:	d61f0140 	br	x10
    7944:	d5033f9f 	dsb	sy
    7948:	8b02014a 	add	x10, x10, x2
    794c:	d61f0140 	br	x10
    7950:	d5033f9f 	dsb	sy
    7954:	8b02014a 	add	x10, x10, x2
    7958:	d61f0140 	br	x10
    795c:	d5033f9f 	dsb	sy
    7960:	8b02014a 	add	x10, x10, x2
    7964:	d61f0140 	br	x10
    7968:	d5033f9f 	dsb	sy
    796c:	8b02014a 	add	x10, x10, x2
    7970:	d61f0140 	br	x10
    7974:	d5033f9f 	dsb	sy
    7978:	8b02014a 	add	x10, x10, x2
    797c:	d61f0140 	br	x10
    7980:	d5033f9f 	dsb	sy
    7984:	8b02014a 	add	x10, x10, x2
    7988:	d61f0140 	br	x10
    798c:	d5033f9f 	dsb	sy
    7990:	8b02014a 	add	x10, x10, x2
    7994:	d61f0140 	br	x10
    7998:	d5033f9f 	dsb	sy
    799c:	8b02014a 	add	x10, x10, x2
    79a0:	d61f0140 	br	x10
    79a4:	d5033f9f 	dsb	sy
    79a8:	8b02014a 	add	x10, x10, x2
    79ac:	d61f0140 	br	x10
    79b0:	d5033f9f 	dsb	sy
    79b4:	8b02014a 	add	x10, x10, x2
    79b8:	d61f0140 	br	x10
    79bc:	d5033f9f 	dsb	sy
    79c0:	8b02014a 	add	x10, x10, x2
    79c4:	d61f0140 	br	x10
    79c8:	d5033f9f 	dsb	sy
    79cc:	8b02014a 	add	x10, x10, x2
    79d0:	d61f0140 	br	x10
    79d4:	d5033f9f 	dsb	sy
    79d8:	8b02014a 	add	x10, x10, x2
    79dc:	d61f0140 	br	x10
    79e0:	d5033f9f 	dsb	sy
    79e4:	8b02014a 	add	x10, x10, x2
    79e8:	d61f0140 	br	x10
    79ec:	d5033f9f 	dsb	sy
    79f0:	8b02014a 	add	x10, x10, x2
    79f4:	d61f0140 	br	x10
    79f8:	d5033f9f 	dsb	sy
    79fc:	8b02014a 	add	x10, x10, x2
    7a00:	d61f0140 	br	x10
    7a04:	d5033f9f 	dsb	sy
    7a08:	8b02014a 	add	x10, x10, x2
    7a0c:	d61f0140 	br	x10
    7a10:	d5033f9f 	dsb	sy
    7a14:	8b02014a 	add	x10, x10, x2
    7a18:	d61f0140 	br	x10
    7a1c:	d5033f9f 	dsb	sy
    7a20:	8b02014a 	add	x10, x10, x2
    7a24:	d61f0140 	br	x10
    7a28:	d5033f9f 	dsb	sy
    7a2c:	8b02014a 	add	x10, x10, x2
    7a30:	d61f0140 	br	x10
    7a34:	d5033f9f 	dsb	sy
    7a38:	8b02014a 	add	x10, x10, x2
    7a3c:	d61f0140 	br	x10
    7a40:	d5033f9f 	dsb	sy
    7a44:	8b02014a 	add	x10, x10, x2
    7a48:	d61f0140 	br	x10
    7a4c:	d5033f9f 	dsb	sy
    7a50:	8b02014a 	add	x10, x10, x2
    7a54:	d61f0140 	br	x10
    7a58:	d5033f9f 	dsb	sy
    7a5c:	8b02014a 	add	x10, x10, x2
    7a60:	d61f0140 	br	x10
    7a64:	d5033f9f 	dsb	sy
    7a68:	8b02014a 	add	x10, x10, x2
    7a6c:	d61f0140 	br	x10
    7a70:	d5033f9f 	dsb	sy
    7a74:	8b02014a 	add	x10, x10, x2
    7a78:	d61f0140 	br	x10
    7a7c:	d5033f9f 	dsb	sy
    7a80:	8b02014a 	add	x10, x10, x2
    7a84:	d61f0140 	br	x10
    7a88:	d5033f9f 	dsb	sy
    7a8c:	8b02014a 	add	x10, x10, x2
    7a90:	d61f0140 	br	x10
    7a94:	d5033f9f 	dsb	sy
    7a98:	8b02014a 	add	x10, x10, x2
    7a9c:	d61f0140 	br	x10
    7aa0:	d5033f9f 	dsb	sy
    7aa4:	8b02014a 	add	x10, x10, x2
    7aa8:	d61f0140 	br	x10
    7aac:	d5033f9f 	dsb	sy
    7ab0:	8b02014a 	add	x10, x10, x2
    7ab4:	d61f0140 	br	x10
    7ab8:	d5033f9f 	dsb	sy
    7abc:	8b02014a 	add	x10, x10, x2
    7ac0:	d61f0140 	br	x10
    7ac4:	d5033f9f 	dsb	sy
    7ac8:	8b02014a 	add	x10, x10, x2
    7acc:	d61f0140 	br	x10
    7ad0:	d5033f9f 	dsb	sy
    7ad4:	8b02014a 	add	x10, x10, x2
    7ad8:	d61f0140 	br	x10
    7adc:	d5033f9f 	dsb	sy
    7ae0:	8b02014a 	add	x10, x10, x2
    7ae4:	d61f0140 	br	x10
    7ae8:	d5033f9f 	dsb	sy
    7aec:	8b02014a 	add	x10, x10, x2
    7af0:	d61f0140 	br	x10
    7af4:	d5033f9f 	dsb	sy
    7af8:	8b02014a 	add	x10, x10, x2
    7afc:	d61f0140 	br	x10
    7b00:	d5033f9f 	dsb	sy
    7b04:	8b02014a 	add	x10, x10, x2
    7b08:	d61f0140 	br	x10
    7b0c:	d5033f9f 	dsb	sy
    7b10:	8b02014a 	add	x10, x10, x2
    7b14:	d61f0140 	br	x10
    7b18:	d5033f9f 	dsb	sy
    7b1c:	8b02014a 	add	x10, x10, x2
    7b20:	d61f0140 	br	x10
    7b24:	d5033f9f 	dsb	sy
    7b28:	8b02014a 	add	x10, x10, x2
    7b2c:	d61f0140 	br	x10
    7b30:	d5033f9f 	dsb	sy
    7b34:	8b02014a 	add	x10, x10, x2
    7b38:	d61f0140 	br	x10
    7b3c:	d5033f9f 	dsb	sy
    7b40:	8b02014a 	add	x10, x10, x2
    7b44:	d61f0140 	br	x10
    7b48:	d5033f9f 	dsb	sy
    7b4c:	8b02014a 	add	x10, x10, x2
    7b50:	d61f0140 	br	x10
    7b54:	d5033f9f 	dsb	sy
    7b58:	8b02014a 	add	x10, x10, x2
    7b5c:	d61f0140 	br	x10
    7b60:	d5033f9f 	dsb	sy
    7b64:	8b02014a 	add	x10, x10, x2
    7b68:	d61f0140 	br	x10
    7b6c:	d5033f9f 	dsb	sy
    7b70:	8b02014a 	add	x10, x10, x2
    7b74:	d61f0140 	br	x10
    7b78:	d5033f9f 	dsb	sy
    7b7c:	8b02014a 	add	x10, x10, x2
    7b80:	d61f0140 	br	x10
    7b84:	d5033f9f 	dsb	sy
    7b88:	8b02014a 	add	x10, x10, x2
    7b8c:	d61f0140 	br	x10
    7b90:	d5033f9f 	dsb	sy
    7b94:	8b02014a 	add	x10, x10, x2
    7b98:	d61f0140 	br	x10
    7b9c:	d5033f9f 	dsb	sy
    7ba0:	8b02014a 	add	x10, x10, x2
    7ba4:	d61f0140 	br	x10
    7ba8:	d5033f9f 	dsb	sy
    7bac:	8b02014a 	add	x10, x10, x2
    7bb0:	d61f0140 	br	x10
    7bb4:	d5033f9f 	dsb	sy
    7bb8:	8b02014a 	add	x10, x10, x2
    7bbc:	d61f0140 	br	x10
    7bc0:	d5033f9f 	dsb	sy
    7bc4:	8b02014a 	add	x10, x10, x2
    7bc8:	d61f0140 	br	x10
    7bcc:	d5033f9f 	dsb	sy
    7bd0:	8b02014a 	add	x10, x10, x2
    7bd4:	d61f0140 	br	x10
    7bd8:	d5033f9f 	dsb	sy
    7bdc:	8b02014a 	add	x10, x10, x2
    7be0:	d61f0140 	br	x10
    7be4:	d5033f9f 	dsb	sy
    7be8:	8b02014a 	add	x10, x10, x2
    7bec:	d61f0140 	br	x10
    7bf0:	d5033f9f 	dsb	sy
    7bf4:	8b02014a 	add	x10, x10, x2
    7bf8:	d61f0140 	br	x10
    7bfc:	d5033f9f 	dsb	sy
    7c00:	8b02014a 	add	x10, x10, x2
    7c04:	d61f0140 	br	x10
    7c08:	d5033f9f 	dsb	sy
    7c0c:	8b02014a 	add	x10, x10, x2
    7c10:	d61f0140 	br	x10
    7c14:	d5033f9f 	dsb	sy
    7c18:	8b02014a 	add	x10, x10, x2
    7c1c:	d61f0140 	br	x10
    7c20:	d5033f9f 	dsb	sy
    7c24:	8b02014a 	add	x10, x10, x2
    7c28:	d61f0140 	br	x10
    7c2c:	d5033f9f 	dsb	sy
    7c30:	8b02014a 	add	x10, x10, x2
    7c34:	d61f0140 	br	x10
    7c38:	d5033f9f 	dsb	sy
    7c3c:	8b02014a 	add	x10, x10, x2
    7c40:	d61f0140 	br	x10
    7c44:	d5033f9f 	dsb	sy
    7c48:	8b02014a 	add	x10, x10, x2
    7c4c:	d61f0140 	br	x10
    7c50:	d5033f9f 	dsb	sy
    7c54:	8b02014a 	add	x10, x10, x2
    7c58:	d61f0140 	br	x10
    7c5c:	d5033f9f 	dsb	sy
    7c60:	8b02014a 	add	x10, x10, x2
    7c64:	d61f0140 	br	x10
    7c68:	d5033f9f 	dsb	sy
    7c6c:	8b02014a 	add	x10, x10, x2
    7c70:	d61f0140 	br	x10
    7c74:	d5033f9f 	dsb	sy
    7c78:	8b02014a 	add	x10, x10, x2
    7c7c:	d61f0140 	br	x10
    7c80:	d5033f9f 	dsb	sy
    7c84:	8b02014a 	add	x10, x10, x2
    7c88:	d61f0140 	br	x10
    7c8c:	d5033f9f 	dsb	sy
    7c90:	8b02014a 	add	x10, x10, x2
    7c94:	d61f0140 	br	x10
    7c98:	d5033f9f 	dsb	sy
    7c9c:	8b02014a 	add	x10, x10, x2
    7ca0:	d61f0140 	br	x10
    7ca4:	d5033f9f 	dsb	sy
    7ca8:	8b02014a 	add	x10, x10, x2
    7cac:	d61f0140 	br	x10
    7cb0:	d5033f9f 	dsb	sy
    7cb4:	8b02014a 	add	x10, x10, x2
    7cb8:	d61f0140 	br	x10
    7cbc:	d5033f9f 	dsb	sy
    7cc0:	8b02014a 	add	x10, x10, x2
    7cc4:	d61f0140 	br	x10
    7cc8:	d5033f9f 	dsb	sy
    7ccc:	8b02014a 	add	x10, x10, x2
    7cd0:	d61f0140 	br	x10
    7cd4:	d5033f9f 	dsb	sy
    7cd8:	8b02014a 	add	x10, x10, x2
    7cdc:	d61f0140 	br	x10
    7ce0:	d5033f9f 	dsb	sy
    7ce4:	8b02014a 	add	x10, x10, x2
    7ce8:	d61f0140 	br	x10
    7cec:	d5033f9f 	dsb	sy
    7cf0:	8b02014a 	add	x10, x10, x2
    7cf4:	d61f0140 	br	x10
    7cf8:	d5033f9f 	dsb	sy
    7cfc:	8b02014a 	add	x10, x10, x2
    7d00:	d61f0140 	br	x10
    7d04:	d5033f9f 	dsb	sy
    7d08:	8b02014a 	add	x10, x10, x2
    7d0c:	d61f0140 	br	x10
    7d10:	d5033f9f 	dsb	sy
    7d14:	8b02014a 	add	x10, x10, x2
    7d18:	d61f0140 	br	x10
    7d1c:	d5033f9f 	dsb	sy
    7d20:	8b02014a 	add	x10, x10, x2
    7d24:	d61f0140 	br	x10
    7d28:	d5033f9f 	dsb	sy
    7d2c:	8b02014a 	add	x10, x10, x2
    7d30:	d61f0140 	br	x10
    7d34:	d5033f9f 	dsb	sy
    7d38:	8b02014a 	add	x10, x10, x2
    7d3c:	d61f0140 	br	x10
    7d40:	d5033f9f 	dsb	sy
    7d44:	8b02014a 	add	x10, x10, x2
    7d48:	d61f0140 	br	x10
    7d4c:	d5033f9f 	dsb	sy
    7d50:	8b02014a 	add	x10, x10, x2
    7d54:	d61f0140 	br	x10
    7d58:	d5033f9f 	dsb	sy
    7d5c:	8b02014a 	add	x10, x10, x2
    7d60:	d61f0140 	br	x10
    7d64:	d5033f9f 	dsb	sy
    7d68:	8b02014a 	add	x10, x10, x2
    7d6c:	d61f0140 	br	x10
    7d70:	d5033f9f 	dsb	sy
    7d74:	8b02014a 	add	x10, x10, x2
    7d78:	d61f0140 	br	x10
    7d7c:	d5033f9f 	dsb	sy
    7d80:	8b02014a 	add	x10, x10, x2
    7d84:	d61f0140 	br	x10
    7d88:	d5033f9f 	dsb	sy
    7d8c:	8b02014a 	add	x10, x10, x2
    7d90:	d61f0140 	br	x10
    7d94:	d5033f9f 	dsb	sy
    7d98:	8b02014a 	add	x10, x10, x2
    7d9c:	d61f0140 	br	x10
    7da0:	d5033f9f 	dsb	sy
    7da4:	8b02014a 	add	x10, x10, x2
    7da8:	d61f0140 	br	x10
    7dac:	d5033f9f 	dsb	sy
    7db0:	8b02014a 	add	x10, x10, x2
    7db4:	d61f0140 	br	x10
    7db8:	d5033f9f 	dsb	sy
    7dbc:	8b02014a 	add	x10, x10, x2
    7dc0:	d61f0140 	br	x10
    7dc4:	d5033f9f 	dsb	sy
    7dc8:	8b02014a 	add	x10, x10, x2
    7dcc:	d61f0140 	br	x10
    7dd0:	d5033f9f 	dsb	sy
    7dd4:	8b02014a 	add	x10, x10, x2
    7dd8:	d61f0140 	br	x10
    7ddc:	d5033f9f 	dsb	sy
    7de0:	8b02014a 	add	x10, x10, x2
    7de4:	d61f0140 	br	x10
    7de8:	d5033f9f 	dsb	sy
    7dec:	8b02014a 	add	x10, x10, x2
    7df0:	d61f0140 	br	x10
    7df4:	d5033f9f 	dsb	sy
    7df8:	8b02014a 	add	x10, x10, x2
    7dfc:	d61f0140 	br	x10
    7e00:	d5033f9f 	dsb	sy
    7e04:	8b02014a 	add	x10, x10, x2
    7e08:	d61f0140 	br	x10
    7e0c:	d5033f9f 	dsb	sy
    7e10:	8b02014a 	add	x10, x10, x2
    7e14:	d61f0140 	br	x10
    7e18:	d5033f9f 	dsb	sy
    7e1c:	8b02014a 	add	x10, x10, x2
    7e20:	d61f0140 	br	x10
    7e24:	d5033f9f 	dsb	sy
    7e28:	8b02014a 	add	x10, x10, x2
    7e2c:	d61f0140 	br	x10
    7e30:	d5033f9f 	dsb	sy
    7e34:	8b02014a 	add	x10, x10, x2
    7e38:	d61f0140 	br	x10
    7e3c:	d5033f9f 	dsb	sy
    7e40:	8b02014a 	add	x10, x10, x2
    7e44:	d61f0140 	br	x10
    7e48:	d5033f9f 	dsb	sy
    7e4c:	8b02014a 	add	x10, x10, x2
    7e50:	d61f0140 	br	x10
    7e54:	d5033f9f 	dsb	sy
    7e58:	8b02014a 	add	x10, x10, x2
    7e5c:	d61f0140 	br	x10
    7e60:	d5033f9f 	dsb	sy
    7e64:	8b02014a 	add	x10, x10, x2
    7e68:	d61f0140 	br	x10
    7e6c:	d5033f9f 	dsb	sy
    7e70:	8b02014a 	add	x10, x10, x2
    7e74:	d61f0140 	br	x10
    7e78:	d5033f9f 	dsb	sy
    7e7c:	8b02014a 	add	x10, x10, x2
    7e80:	d61f0140 	br	x10
    7e84:	d5033f9f 	dsb	sy
    7e88:	8b02014a 	add	x10, x10, x2
    7e8c:	d61f0140 	br	x10
    7e90:	d5033f9f 	dsb	sy
    7e94:	8b02014a 	add	x10, x10, x2
    7e98:	d61f0140 	br	x10
    7e9c:	d5033f9f 	dsb	sy
    7ea0:	8b02014a 	add	x10, x10, x2
    7ea4:	d61f0140 	br	x10
    7ea8:	d5033f9f 	dsb	sy
    7eac:	8b02014a 	add	x10, x10, x2
    7eb0:	d61f0140 	br	x10
    7eb4:	d5033f9f 	dsb	sy
    7eb8:	8b02014a 	add	x10, x10, x2
    7ebc:	d61f0140 	br	x10
    7ec0:	d5033f9f 	dsb	sy
    7ec4:	8b02014a 	add	x10, x10, x2
    7ec8:	d61f0140 	br	x10
    7ecc:	d5033f9f 	dsb	sy
    7ed0:	8b02014a 	add	x10, x10, x2
    7ed4:	d61f0140 	br	x10
    7ed8:	d5033f9f 	dsb	sy
    7edc:	8b02014a 	add	x10, x10, x2
    7ee0:	d61f0140 	br	x10
    7ee4:	d5033f9f 	dsb	sy
    7ee8:	8b02014a 	add	x10, x10, x2
    7eec:	d61f0140 	br	x10
    7ef0:	d5033f9f 	dsb	sy
    7ef4:	8b02014a 	add	x10, x10, x2
    7ef8:	d61f0140 	br	x10
    7efc:	d5033f9f 	dsb	sy
    7f00:	8b02014a 	add	x10, x10, x2
    7f04:	d61f0140 	br	x10
    7f08:	d5033f9f 	dsb	sy
    7f0c:	8b02014a 	add	x10, x10, x2
    7f10:	d61f0140 	br	x10
    7f14:	d5033f9f 	dsb	sy
    7f18:	8b02014a 	add	x10, x10, x2
    7f1c:	d61f0140 	br	x10
    7f20:	d5033f9f 	dsb	sy
    7f24:	8b02014a 	add	x10, x10, x2
    7f28:	d61f0140 	br	x10
    7f2c:	d5033f9f 	dsb	sy
    7f30:	8b02014a 	add	x10, x10, x2
    7f34:	d61f0140 	br	x10
    7f38:	d5033f9f 	dsb	sy
    7f3c:	8b02014a 	add	x10, x10, x2
    7f40:	d61f0140 	br	x10
    7f44:	d5033f9f 	dsb	sy
    7f48:	8b02014a 	add	x10, x10, x2
    7f4c:	d61f0140 	br	x10
    7f50:	d5033f9f 	dsb	sy
    7f54:	8b02014a 	add	x10, x10, x2
    7f58:	d61f0140 	br	x10
    7f5c:	d5033f9f 	dsb	sy
    7f60:	8b02014a 	add	x10, x10, x2
    7f64:	d61f0140 	br	x10
    7f68:	d5033f9f 	dsb	sy
    7f6c:	8b02014a 	add	x10, x10, x2
    7f70:	d61f0140 	br	x10
    7f74:	d5033f9f 	dsb	sy
    7f78:	8b02014a 	add	x10, x10, x2
    7f7c:	d61f0140 	br	x10
    7f80:	d5033f9f 	dsb	sy
    7f84:	8b02014a 	add	x10, x10, x2
    7f88:	d61f0140 	br	x10
    7f8c:	d5033f9f 	dsb	sy
    7f90:	8b02014a 	add	x10, x10, x2
    7f94:	d61f0140 	br	x10
    7f98:	d5033f9f 	dsb	sy
    7f9c:	8b02014a 	add	x10, x10, x2
    7fa0:	d61f0140 	br	x10
    7fa4:	d5033f9f 	dsb	sy
    7fa8:	8b02014a 	add	x10, x10, x2
    7fac:	d61f0140 	br	x10
    7fb0:	d5033f9f 	dsb	sy
    7fb4:	8b02014a 	add	x10, x10, x2
    7fb8:	d61f0140 	br	x10
    7fbc:	d5033f9f 	dsb	sy
    7fc0:	8b02014a 	add	x10, x10, x2
    7fc4:	d61f0140 	br	x10
    7fc8:	d5033f9f 	dsb	sy
    7fcc:	8b02014a 	add	x10, x10, x2
    7fd0:	d61f0140 	br	x10
    7fd4:	d5033f9f 	dsb	sy
    7fd8:	8b02014a 	add	x10, x10, x2
    7fdc:	d61f0140 	br	x10
    7fe0:	d5033f9f 	dsb	sy
    7fe4:	8b02014a 	add	x10, x10, x2
    7fe8:	d61f0140 	br	x10
    7fec:	d5033f9f 	dsb	sy
    7ff0:	8b02014a 	add	x10, x10, x2
    7ff4:	d61f0140 	br	x10
    7ff8:	d5033f9f 	dsb	sy
    7ffc:	8b02014a 	add	x10, x10, x2
    8000:	d61f0140 	br	x10
    8004:	d5033f9f 	dsb	sy
    8008:	8b02014a 	add	x10, x10, x2
    800c:	d61f0140 	br	x10
    8010:	d5033f9f 	dsb	sy
    8014:	8b02014a 	add	x10, x10, x2
    8018:	d61f0140 	br	x10
    801c:	d5033f9f 	dsb	sy
    8020:	8b02014a 	add	x10, x10, x2
    8024:	d61f0140 	br	x10
    8028:	d5033f9f 	dsb	sy
    802c:	8b02014a 	add	x10, x10, x2
    8030:	d61f0140 	br	x10
    8034:	d5033f9f 	dsb	sy
    8038:	8b02014a 	add	x10, x10, x2
    803c:	d61f0140 	br	x10
    8040:	d5033f9f 	dsb	sy
    8044:	8b02014a 	add	x10, x10, x2
    8048:	d61f0140 	br	x10
    804c:	d5033f9f 	dsb	sy
    8050:	8b02014a 	add	x10, x10, x2
    8054:	d61f0140 	br	x10
    8058:	d5033f9f 	dsb	sy
    805c:	8b02014a 	add	x10, x10, x2
    8060:	d61f0140 	br	x10
    8064:	d5033f9f 	dsb	sy
    8068:	8b02014a 	add	x10, x10, x2
    806c:	d61f0140 	br	x10
    8070:	d5033f9f 	dsb	sy
    8074:	8b02014a 	add	x10, x10, x2
    8078:	d61f0140 	br	x10
    807c:	d5033f9f 	dsb	sy
    8080:	8b02014a 	add	x10, x10, x2
    8084:	d61f0140 	br	x10
    8088:	d5033f9f 	dsb	sy
    808c:	8b02014a 	add	x10, x10, x2
    8090:	d61f0140 	br	x10
    8094:	d5033f9f 	dsb	sy
    8098:	8b02014a 	add	x10, x10, x2
    809c:	d61f0140 	br	x10
    80a0:	d5033f9f 	dsb	sy
    80a4:	8b02014a 	add	x10, x10, x2
    80a8:	d61f0140 	br	x10
    80ac:	d5033f9f 	dsb	sy
    80b0:	8b02014a 	add	x10, x10, x2
    80b4:	d61f0140 	br	x10
    80b8:	d5033f9f 	dsb	sy
    80bc:	8b02014a 	add	x10, x10, x2
    80c0:	d61f0140 	br	x10
    80c4:	d5033f9f 	dsb	sy
    80c8:	8b02014a 	add	x10, x10, x2
    80cc:	d61f0140 	br	x10
    80d0:	d5033f9f 	dsb	sy
    80d4:	8b02014a 	add	x10, x10, x2
    80d8:	d61f0140 	br	x10
    80dc:	d5033f9f 	dsb	sy
    80e0:	8b02014a 	add	x10, x10, x2
    80e4:	d61f0140 	br	x10
    80e8:	d5033f9f 	dsb	sy
    80ec:	8b02014a 	add	x10, x10, x2
    80f0:	d61f0140 	br	x10
    80f4:	d5033f9f 	dsb	sy
    80f8:	8b02014a 	add	x10, x10, x2
    80fc:	d61f0140 	br	x10
    8100:	d5033f9f 	dsb	sy
    8104:	8b02014a 	add	x10, x10, x2
    8108:	d61f0140 	br	x10
    810c:	d5033f9f 	dsb	sy
    8110:	8b02014a 	add	x10, x10, x2
    8114:	d61f0140 	br	x10
    8118:	d5033f9f 	dsb	sy
    811c:	8b02014a 	add	x10, x10, x2
    8120:	d61f0140 	br	x10
    8124:	d5033f9f 	dsb	sy
    8128:	8b02014a 	add	x10, x10, x2
    812c:	d61f0140 	br	x10
    8130:	d5033f9f 	dsb	sy
    8134:	8b02014a 	add	x10, x10, x2
    8138:	d61f0140 	br	x10
    813c:	d5033f9f 	dsb	sy
    8140:	8b02014a 	add	x10, x10, x2
    8144:	d61f0140 	br	x10
    8148:	d5033f9f 	dsb	sy
    814c:	8b02014a 	add	x10, x10, x2
    8150:	d61f0140 	br	x10
    8154:	d5033f9f 	dsb	sy
    8158:	8b02014a 	add	x10, x10, x2
    815c:	d61f0140 	br	x10
    8160:	d5033f9f 	dsb	sy
    8164:	8b02014a 	add	x10, x10, x2
    8168:	d61f0140 	br	x10
    816c:	d5033f9f 	dsb	sy
    8170:	8b02014a 	add	x10, x10, x2
    8174:	d61f0140 	br	x10
    8178:	d5033f9f 	dsb	sy
    817c:	8b02014a 	add	x10, x10, x2
    8180:	d61f0140 	br	x10
    8184:	d5033f9f 	dsb	sy
    8188:	8b02014a 	add	x10, x10, x2
    818c:	d61f0140 	br	x10
    8190:	d5033f9f 	dsb	sy
    8194:	8b02014a 	add	x10, x10, x2
    8198:	d61f0140 	br	x10
    819c:	d5033f9f 	dsb	sy
    81a0:	8b02014a 	add	x10, x10, x2
    81a4:	d61f0140 	br	x10
    81a8:	d5033f9f 	dsb	sy
    81ac:	8b02014a 	add	x10, x10, x2
    81b0:	d61f0140 	br	x10
    81b4:	d5033f9f 	dsb	sy
    81b8:	8b02014a 	add	x10, x10, x2
    81bc:	d61f0140 	br	x10
    81c0:	d5033f9f 	dsb	sy
    81c4:	8b02014a 	add	x10, x10, x2
    81c8:	d61f0140 	br	x10
    81cc:	d5033f9f 	dsb	sy
    81d0:	8b02014a 	add	x10, x10, x2
    81d4:	d61f0140 	br	x10
    81d8:	d5033f9f 	dsb	sy
    81dc:	8b02014a 	add	x10, x10, x2
    81e0:	d61f0140 	br	x10
    81e4:	d5033f9f 	dsb	sy
    81e8:	8b02014a 	add	x10, x10, x2
    81ec:	d61f0140 	br	x10
    81f0:	d5033f9f 	dsb	sy
    81f4:	8b02014a 	add	x10, x10, x2
    81f8:	d61f0140 	br	x10
    81fc:	d5033f9f 	dsb	sy
    8200:	8b02014a 	add	x10, x10, x2
    8204:	d61f0140 	br	x10
    8208:	d5033f9f 	dsb	sy
    820c:	8b02014a 	add	x10, x10, x2
    8210:	d61f0140 	br	x10
    8214:	d5033f9f 	dsb	sy
    8218:	8b02014a 	add	x10, x10, x2
    821c:	d61f0140 	br	x10
    8220:	d5033f9f 	dsb	sy
    8224:	8b02014a 	add	x10, x10, x2
    8228:	d61f0140 	br	x10
    822c:	d5033f9f 	dsb	sy
    8230:	8b02014a 	add	x10, x10, x2
    8234:	d61f0140 	br	x10
    8238:	d5033f9f 	dsb	sy
    823c:	8b02014a 	add	x10, x10, x2
    8240:	d61f0140 	br	x10
    8244:	d5033f9f 	dsb	sy
    8248:	8b02014a 	add	x10, x10, x2
    824c:	d61f0140 	br	x10
    8250:	d5033f9f 	dsb	sy
    8254:	8b02014a 	add	x10, x10, x2
    8258:	d61f0140 	br	x10
    825c:	d5033f9f 	dsb	sy
    8260:	8b02014a 	add	x10, x10, x2
    8264:	d61f0140 	br	x10
    8268:	d5033f9f 	dsb	sy
    826c:	8b02014a 	add	x10, x10, x2
    8270:	d61f0140 	br	x10
    8274:	d5033f9f 	dsb	sy
    8278:	8b02014a 	add	x10, x10, x2
    827c:	d61f0140 	br	x10
    8280:	d5033f9f 	dsb	sy
    8284:	8b02014a 	add	x10, x10, x2
    8288:	d61f0140 	br	x10
    828c:	d5033f9f 	dsb	sy
    8290:	8b02014a 	add	x10, x10, x2
    8294:	d61f0140 	br	x10
    8298:	d5033f9f 	dsb	sy
    829c:	8b02014a 	add	x10, x10, x2
    82a0:	d61f0140 	br	x10
    82a4:	d5033f9f 	dsb	sy
    82a8:	8b02014a 	add	x10, x10, x2
    82ac:	d61f0140 	br	x10
    82b0:	d5033f9f 	dsb	sy
    82b4:	8b02014a 	add	x10, x10, x2
    82b8:	d61f0140 	br	x10
    82bc:	d5033f9f 	dsb	sy
    82c0:	8b02014a 	add	x10, x10, x2
    82c4:	d61f0140 	br	x10
    82c8:	d5033f9f 	dsb	sy
    82cc:	8b02014a 	add	x10, x10, x2
    82d0:	d61f0140 	br	x10
    82d4:	d5033f9f 	dsb	sy
    82d8:	8b02014a 	add	x10, x10, x2
    82dc:	d61f0140 	br	x10
    82e0:	d5033f9f 	dsb	sy
    82e4:	8b02014a 	add	x10, x10, x2
    82e8:	d61f0140 	br	x10
    82ec:	d5033f9f 	dsb	sy
    82f0:	8b02014a 	add	x10, x10, x2
    82f4:	d61f0140 	br	x10
    82f8:	d5033f9f 	dsb	sy
    82fc:	8b02014a 	add	x10, x10, x2
    8300:	d61f0140 	br	x10
    8304:	d5033f9f 	dsb	sy
    8308:	8b02014a 	add	x10, x10, x2
    830c:	d61f0140 	br	x10
    8310:	d5033f9f 	dsb	sy
    8314:	8b02014a 	add	x10, x10, x2
    8318:	d61f0140 	br	x10
    831c:	d5033f9f 	dsb	sy
    8320:	8b02014a 	add	x10, x10, x2
    8324:	d61f0140 	br	x10
    8328:	d5033f9f 	dsb	sy
    832c:	8b02014a 	add	x10, x10, x2
    8330:	d61f0140 	br	x10
    8334:	d5033f9f 	dsb	sy
    8338:	8b02014a 	add	x10, x10, x2
    833c:	d61f0140 	br	x10
    8340:	d5033f9f 	dsb	sy
    8344:	8b02014a 	add	x10, x10, x2
    8348:	d61f0140 	br	x10
    834c:	d5033f9f 	dsb	sy
    8350:	8b02014a 	add	x10, x10, x2
    8354:	d61f0140 	br	x10
    8358:	d5033f9f 	dsb	sy
    835c:	8b02014a 	add	x10, x10, x2
    8360:	d61f0140 	br	x10
    8364:	d5033f9f 	dsb	sy
    8368:	8b02014a 	add	x10, x10, x2
    836c:	d61f0140 	br	x10
    8370:	d5033f9f 	dsb	sy
    8374:	8b02014a 	add	x10, x10, x2
    8378:	d61f0140 	br	x10
    837c:	d5033f9f 	dsb	sy
    8380:	8b02014a 	add	x10, x10, x2
    8384:	d61f0140 	br	x10
    8388:	d5033f9f 	dsb	sy
    838c:	8b02014a 	add	x10, x10, x2
    8390:	d61f0140 	br	x10
    8394:	d5033f9f 	dsb	sy
    8398:	8b02014a 	add	x10, x10, x2
    839c:	d61f0140 	br	x10
    83a0:	d5033f9f 	dsb	sy
    83a4:	8b02014a 	add	x10, x10, x2
    83a8:	d61f0140 	br	x10
    83ac:	d5033f9f 	dsb	sy
    83b0:	8b02014a 	add	x10, x10, x2
    83b4:	d61f0140 	br	x10
    83b8:	d5033f9f 	dsb	sy
    83bc:	8b02014a 	add	x10, x10, x2
    83c0:	d61f0140 	br	x10
    83c4:	d5033f9f 	dsb	sy
    83c8:	8b02014a 	add	x10, x10, x2
    83cc:	d61f0140 	br	x10
    83d0:	d5033f9f 	dsb	sy
    83d4:	8b02014a 	add	x10, x10, x2
    83d8:	d61f0140 	br	x10
    83dc:	d5033f9f 	dsb	sy
    83e0:	8b02014a 	add	x10, x10, x2
    83e4:	d61f0140 	br	x10
    83e8:	d5033f9f 	dsb	sy
    83ec:	8b02014a 	add	x10, x10, x2
    83f0:	d61f0140 	br	x10
    83f4:	d5033f9f 	dsb	sy
    83f8:	8b02014a 	add	x10, x10, x2
    83fc:	d61f0140 	br	x10
    8400:	d5033f9f 	dsb	sy
    8404:	8b02014a 	add	x10, x10, x2
    8408:	d61f0140 	br	x10
    840c:	d5033f9f 	dsb	sy
    8410:	8b02014a 	add	x10, x10, x2
    8414:	d61f0140 	br	x10
    8418:	d5033f9f 	dsb	sy
    841c:	8b02014a 	add	x10, x10, x2
    8420:	d61f0140 	br	x10
    8424:	d5033f9f 	dsb	sy
    8428:	8b02014a 	add	x10, x10, x2
    842c:	d61f0140 	br	x10
    8430:	d5033f9f 	dsb	sy
    8434:	8b02014a 	add	x10, x10, x2
    8438:	d61f0140 	br	x10
    843c:	d5033f9f 	dsb	sy
    8440:	8b02014a 	add	x10, x10, x2
    8444:	d61f0140 	br	x10
    8448:	d5033f9f 	dsb	sy
    844c:	8b02014a 	add	x10, x10, x2
    8450:	d61f0140 	br	x10
    8454:	d5033f9f 	dsb	sy
    8458:	8b02014a 	add	x10, x10, x2
    845c:	d61f0140 	br	x10
    8460:	d5033f9f 	dsb	sy
    8464:	8b02014a 	add	x10, x10, x2
    8468:	d61f0140 	br	x10
    846c:	d5033f9f 	dsb	sy
    8470:	8b02014a 	add	x10, x10, x2
    8474:	d61f0140 	br	x10
    8478:	d5033f9f 	dsb	sy
    847c:	8b02014a 	add	x10, x10, x2
    8480:	d61f0140 	br	x10
    8484:	d5033f9f 	dsb	sy
    8488:	8b02014a 	add	x10, x10, x2
    848c:	d61f0140 	br	x10
    8490:	d5033f9f 	dsb	sy
    8494:	8b02014a 	add	x10, x10, x2
    8498:	d61f0140 	br	x10
    849c:	d5033f9f 	dsb	sy
    84a0:	8b02014a 	add	x10, x10, x2
    84a4:	d61f0140 	br	x10
    84a8:	d5033f9f 	dsb	sy
    84ac:	8b02014a 	add	x10, x10, x2
    84b0:	d61f0140 	br	x10
    84b4:	d5033f9f 	dsb	sy
    84b8:	8b02014a 	add	x10, x10, x2
    84bc:	d61f0140 	br	x10
    84c0:	d5033f9f 	dsb	sy
    84c4:	8b02014a 	add	x10, x10, x2
    84c8:	d61f0140 	br	x10
    84cc:	d5033f9f 	dsb	sy
    84d0:	8b02014a 	add	x10, x10, x2
    84d4:	d61f0140 	br	x10
    84d8:	d5033f9f 	dsb	sy
    84dc:	8b02014a 	add	x10, x10, x2
    84e0:	d61f0140 	br	x10
    84e4:	d5033f9f 	dsb	sy
    84e8:	8b02014a 	add	x10, x10, x2
    84ec:	d61f0140 	br	x10
    84f0:	d5033f9f 	dsb	sy
    84f4:	8b02014a 	add	x10, x10, x2
    84f8:	d61f0140 	br	x10
    84fc:	d5033f9f 	dsb	sy
    8500:	8b02014a 	add	x10, x10, x2
    8504:	d61f0140 	br	x10
    8508:	d5033f9f 	dsb	sy
    850c:	8b02014a 	add	x10, x10, x2
    8510:	d61f0140 	br	x10
    8514:	d5033f9f 	dsb	sy
    8518:	8b02014a 	add	x10, x10, x2
    851c:	d61f0140 	br	x10
    8520:	d5033f9f 	dsb	sy
    8524:	8b02014a 	add	x10, x10, x2
    8528:	d61f0140 	br	x10
    852c:	d5033f9f 	dsb	sy
    8530:	8b02014a 	add	x10, x10, x2
    8534:	d61f0140 	br	x10
    8538:	d5033f9f 	dsb	sy
    853c:	8b02014a 	add	x10, x10, x2
    8540:	d61f0140 	br	x10
    8544:	d5033f9f 	dsb	sy
    8548:	8b02014a 	add	x10, x10, x2
    854c:	d61f0140 	br	x10
    8550:	d5033f9f 	dsb	sy
    8554:	8b02014a 	add	x10, x10, x2
    8558:	d61f0140 	br	x10
    855c:	d5033f9f 	dsb	sy
    8560:	8b02014a 	add	x10, x10, x2
    8564:	d61f0140 	br	x10
    8568:	d5033f9f 	dsb	sy
    856c:	8b02014a 	add	x10, x10, x2
    8570:	d61f0140 	br	x10
    8574:	d5033f9f 	dsb	sy
    8578:	8b02014a 	add	x10, x10, x2
    857c:	d61f0140 	br	x10
    8580:	d5033f9f 	dsb	sy
    8584:	8b02014a 	add	x10, x10, x2
    8588:	d61f0140 	br	x10
    858c:	d5033f9f 	dsb	sy
    8590:	8b02014a 	add	x10, x10, x2
    8594:	d61f0140 	br	x10
    8598:	d5033f9f 	dsb	sy
    859c:	8b02014a 	add	x10, x10, x2
    85a0:	d61f0140 	br	x10
    85a4:	d5033f9f 	dsb	sy
    85a8:	8b02014a 	add	x10, x10, x2
    85ac:	d61f0140 	br	x10
    85b0:	d5033f9f 	dsb	sy
    85b4:	8b02014a 	add	x10, x10, x2
    85b8:	d61f0140 	br	x10
    85bc:	d5033f9f 	dsb	sy
    85c0:	8b02014a 	add	x10, x10, x2
    85c4:	d61f0140 	br	x10
    85c8:	d5033f9f 	dsb	sy
